
kernel.bin：     文件格式 elf32-i386


Disassembly of section .text:

c0001500 <main>:
c0001500:	8d 4c 24 04          	lea    0x4(%esp),%ecx
c0001504:	83 e4 f0             	and    $0xfffffff0,%esp
c0001507:	ff 71 fc             	pushl  -0x4(%ecx)
c000150a:	55                   	push   %ebp
c000150b:	89 e5                	mov    %esp,%ebp
c000150d:	53                   	push   %ebx
c000150e:	51                   	push   %ecx
c000150f:	83 ec 20             	sub    $0x20,%esp
c0001512:	e8 de 04 00 00       	call   c00019f5 <__x86.get_pc_thunk.bx>
c0001517:	81 c3 e9 0a 01 00    	add    $0x10ae9,%ebx
c000151d:	83 ec 0c             	sub    $0xc,%esp
c0001520:	8d 83 24 af ff ff    	lea    -0x50dc(%ebx),%eax
c0001526:	50                   	push   %eax
c0001527:	e8 14 12 00 00       	call   c0002740 <put_str>
c000152c:	83 c4 10             	add    $0x10,%esp
c000152f:	e8 c5 04 00 00       	call   c00019f9 <init_all>
c0001534:	e8 c1 09 00 00       	call   c0001efa <intr_enable>
c0001539:	c7 45 f0 44 27 00 00 	movl   $0x2744,-0x10(%ebp)
c0001540:	8b 45 f0             	mov    -0x10(%ebp),%eax
c0001543:	05 ff 01 00 00       	add    $0x1ff,%eax
c0001548:	c1 e8 09             	shr    $0x9,%eax
c000154b:	89 45 ec             	mov    %eax,-0x14(%ebp)
c000154e:	c7 c0 40 33 01 c0    	mov    $0xc0013340,%eax
c0001554:	8d 40 40             	lea    0x40(%eax),%eax
c0001557:	89 45 e8             	mov    %eax,-0x18(%ebp)
c000155a:	83 ec 0c             	sub    $0xc,%esp
c000155d:	ff 75 f0             	pushl  -0x10(%ebp)
c0001560:	e8 22 24 00 00       	call   c0003987 <sys_malloc>
c0001565:	83 c4 10             	add    $0x10,%esp
c0001568:	89 45 e4             	mov    %eax,-0x1c(%ebp)
c000156b:	ff 75 ec             	pushl  -0x14(%ebp)
c000156e:	ff 75 e4             	pushl  -0x1c(%ebp)
c0001571:	68 2c 01 00 00       	push   $0x12c
c0001576:	ff 75 e8             	pushl  -0x18(%ebp)
c0001579:	e8 a4 51 00 00       	call   c0006722 <ide_read>
c000157e:	83 c4 10             	add    $0x10,%esp
c0001581:	83 ec 0c             	sub    $0xc,%esp
c0001584:	8d 83 31 af ff ff    	lea    -0x50cf(%ebx),%eax
c000158a:	50                   	push   %eax
c000158b:	e8 29 4d 00 00       	call   c00062b9 <printf>
c0001590:	83 c4 10             	add    $0x10,%esp
c0001593:	83 ec 08             	sub    $0x8,%esp
c0001596:	6a 06                	push   $0x6
c0001598:	8d 83 37 af ff ff    	lea    -0x50c9(%ebx),%eax
c000159e:	50                   	push   %eax
c000159f:	e8 1c 8b 00 00       	call   c000a0c0 <sys_open>
c00015a4:	83 c4 10             	add    $0x10,%esp
c00015a7:	89 45 f4             	mov    %eax,-0xc(%ebp)
c00015aa:	83 7d f4 ff          	cmpl   $0xffffffff,-0xc(%ebp)
c00015ae:	75 3b                	jne    c00015eb <main+0xeb>
c00015b0:	83 ec 0c             	sub    $0xc,%esp
c00015b3:	8d 83 41 af ff ff    	lea    -0x50bf(%ebx),%eax
c00015b9:	50                   	push   %eax
c00015ba:	e8 fa 4c 00 00       	call   c00062b9 <printf>
c00015bf:	83 c4 10             	add    $0x10,%esp
c00015c2:	83 ec 0c             	sub    $0xc,%esp
c00015c5:	8d 83 37 af ff ff    	lea    -0x50c9(%ebx),%eax
c00015cb:	50                   	push   %eax
c00015cc:	e8 10 49 00 00       	call   c0005ee1 <unlink>
c00015d1:	83 c4 10             	add    $0x10,%esp
c00015d4:	83 ec 08             	sub    $0x8,%esp
c00015d7:	6a 06                	push   $0x6
c00015d9:	8d 83 37 af ff ff    	lea    -0x50c9(%ebx),%eax
c00015df:	50                   	push   %eax
c00015e0:	e8 db 8a 00 00       	call   c000a0c0 <sys_open>
c00015e5:	83 c4 10             	add    $0x10,%esp
c00015e8:	89 45 f4             	mov    %eax,-0xc(%ebp)
c00015eb:	83 7d f4 ff          	cmpl   $0xffffffff,-0xc(%ebp)
c00015ef:	74 3f                	je     c0001630 <main+0x130>
c00015f1:	83 ec 0c             	sub    $0xc,%esp
c00015f4:	8d 83 4b af ff ff    	lea    -0x50b5(%ebx),%eax
c00015fa:	50                   	push   %eax
c00015fb:	e8 b9 4c 00 00       	call   c00062b9 <printf>
c0001600:	83 c4 10             	add    $0x10,%esp
c0001603:	83 ec 04             	sub    $0x4,%esp
c0001606:	ff 75 f0             	pushl  -0x10(%ebp)
c0001609:	ff 75 e4             	pushl  -0x1c(%ebp)
c000160c:	ff 75 f4             	pushl  -0xc(%ebp)
c000160f:	e8 9c 8d 00 00       	call   c000a3b0 <sys_write>
c0001614:	83 c4 10             	add    $0x10,%esp
c0001617:	83 f8 ff             	cmp    $0xffffffff,%eax
c000161a:	75 14                	jne    c0001630 <main+0x130>
c000161c:	83 ec 0c             	sub    $0xc,%esp
c000161f:	8d 83 52 af ff ff    	lea    -0x50ae(%ebx),%eax
c0001625:	50                   	push   %eax
c0001626:	e8 8e 4c 00 00       	call   c00062b9 <printf>
c000162b:	83 c4 10             	add    $0x10,%esp
c000162e:	eb fe                	jmp    c000162e <main+0x12e>
c0001630:	83 ec 0c             	sub    $0xc,%esp
c0001633:	8d 83 65 af ff ff    	lea    -0x509b(%ebx),%eax
c0001639:	50                   	push   %eax
c000163a:	e8 d1 39 00 00       	call   c0005010 <console_put_str>
c000163f:	83 c4 10             	add    $0x10,%esp
c0001642:	eb fe                	jmp    c0001642 <main+0x142>

c0001644 <init>:
c0001644:	55                   	push   %ebp
c0001645:	89 e5                	mov    %esp,%ebp
c0001647:	53                   	push   %ebx
c0001648:	83 ec 14             	sub    $0x14,%esp
c000164b:	e8 a5 03 00 00       	call   c00019f5 <__x86.get_pc_thunk.bx>
c0001650:	81 c3 b0 09 01 00    	add    $0x109b0,%ebx
c0001656:	e8 33 47 00 00       	call   c0005d8e <fork>
c000165b:	98                   	cwtl   
c000165c:	89 45 f4             	mov    %eax,-0xc(%ebp)
c000165f:	83 7d f4 00          	cmpl   $0x0,-0xc(%ebp)
c0001663:	74 1d                	je     c0001682 <init+0x3e>
c0001665:	e8 88 46 00 00       	call   c0005cf2 <getpid>
c000166a:	83 ec 04             	sub    $0x4,%esp
c000166d:	ff 75 f4             	pushl  -0xc(%ebp)
c0001670:	50                   	push   %eax
c0001671:	8d 83 7c af ff ff    	lea    -0x5084(%ebx),%eax
c0001677:	50                   	push   %eax
c0001678:	e8 3c 4c 00 00       	call   c00062b9 <printf>
c000167d:	83 c4 10             	add    $0x10,%esp
c0001680:	eb fe                	jmp    c0001680 <init+0x3c>
c0001682:	e8 6b 46 00 00       	call   c0005cf2 <getpid>
c0001687:	83 ec 04             	sub    $0x4,%esp
c000168a:	ff 75 f4             	pushl  -0xc(%ebp)
c000168d:	50                   	push   %eax
c000168e:	8d 83 a8 af ff ff    	lea    -0x5058(%ebx),%eax
c0001694:	50                   	push   %eax
c0001695:	e8 1f 4c 00 00       	call   c00062b9 <printf>
c000169a:	83 c4 10             	add    $0x10,%esp
c000169d:	e8 b8 a6 00 00       	call   c000bd5a <my_shell>
c00016a2:	8d 83 d1 af ff ff    	lea    -0x502f(%ebx),%eax
c00016a8:	50                   	push   %eax
c00016a9:	8d 83 74 b0 ff ff    	lea    -0x4f8c(%ebx),%eax
c00016af:	50                   	push   %eax
c00016b0:	6a 50                	push   $0x50
c00016b2:	8d 83 ea af ff ff    	lea    -0x5016(%ebx),%eax
c00016b8:	50                   	push   %eax
c00016b9:	e8 33 12 00 00       	call   c00028f1 <panic_spin>
c00016be:	83 c4 10             	add    $0x10,%esp
c00016c1:	eb fe                	jmp    c00016c1 <init+0x7d>

c00016c3 <k_thread_a>:
c00016c3:	55                   	push   %ebp
c00016c4:	89 e5                	mov    %esp,%ebp
c00016c6:	53                   	push   %ebx
c00016c7:	83 ec 14             	sub    $0x14,%esp
c00016ca:	e8 26 03 00 00       	call   c00019f5 <__x86.get_pc_thunk.bx>
c00016cf:	81 c3 31 09 01 00    	add    $0x10931,%ebx
c00016d5:	83 ec 0c             	sub    $0xc,%esp
c00016d8:	68 00 01 00 00       	push   $0x100
c00016dd:	e8 a5 22 00 00       	call   c0003987 <sys_malloc>
c00016e2:	83 c4 10             	add    $0x10,%esp
c00016e5:	89 45 f0             	mov    %eax,-0x10(%ebp)
c00016e8:	83 ec 0c             	sub    $0xc,%esp
c00016eb:	68 ff 00 00 00       	push   $0xff
c00016f0:	e8 92 22 00 00       	call   c0003987 <sys_malloc>
c00016f5:	83 c4 10             	add    $0x10,%esp
c00016f8:	89 45 ec             	mov    %eax,-0x14(%ebp)
c00016fb:	83 ec 0c             	sub    $0xc,%esp
c00016fe:	68 fe 00 00 00       	push   $0xfe
c0001703:	e8 7f 22 00 00       	call   c0003987 <sys_malloc>
c0001708:	83 c4 10             	add    $0x10,%esp
c000170b:	89 45 e8             	mov    %eax,-0x18(%ebp)
c000170e:	83 ec 0c             	sub    $0xc,%esp
c0001711:	8d 83 f8 af ff ff    	lea    -0x5008(%ebx),%eax
c0001717:	50                   	push   %eax
c0001718:	e8 f3 38 00 00       	call   c0005010 <console_put_str>
c000171d:	83 c4 10             	add    $0x10,%esp
c0001720:	8b 45 f0             	mov    -0x10(%ebp),%eax
c0001723:	83 ec 0c             	sub    $0xc,%esp
c0001726:	50                   	push   %eax
c0001727:	e8 4c 39 00 00       	call   c0005078 <console_put_int>
c000172c:	83 c4 10             	add    $0x10,%esp
c000172f:	83 ec 0c             	sub    $0xc,%esp
c0001732:	6a 2c                	push   $0x2c
c0001734:	e8 07 39 00 00       	call   c0005040 <console_put_char>
c0001739:	83 c4 10             	add    $0x10,%esp
c000173c:	8b 45 ec             	mov    -0x14(%ebp),%eax
c000173f:	83 ec 0c             	sub    $0xc,%esp
c0001742:	50                   	push   %eax
c0001743:	e8 30 39 00 00       	call   c0005078 <console_put_int>
c0001748:	83 c4 10             	add    $0x10,%esp
c000174b:	83 ec 0c             	sub    $0xc,%esp
c000174e:	6a 2c                	push   $0x2c
c0001750:	e8 eb 38 00 00       	call   c0005040 <console_put_char>
c0001755:	83 c4 10             	add    $0x10,%esp
c0001758:	8b 45 e8             	mov    -0x18(%ebp),%eax
c000175b:	83 ec 0c             	sub    $0xc,%esp
c000175e:	50                   	push   %eax
c000175f:	e8 14 39 00 00       	call   c0005078 <console_put_int>
c0001764:	83 c4 10             	add    $0x10,%esp
c0001767:	83 ec 0c             	sub    $0xc,%esp
c000176a:	6a 0a                	push   $0xa
c000176c:	e8 cf 38 00 00       	call   c0005040 <console_put_char>
c0001771:	83 c4 10             	add    $0x10,%esp
c0001774:	c7 45 f4 40 42 0f 00 	movl   $0xf4240,-0xc(%ebp)
c000177b:	90                   	nop
c000177c:	8b 45 f4             	mov    -0xc(%ebp),%eax
c000177f:	8d 50 ff             	lea    -0x1(%eax),%edx
c0001782:	89 55 f4             	mov    %edx,-0xc(%ebp)
c0001785:	85 c0                	test   %eax,%eax
c0001787:	7f f3                	jg     c000177c <k_thread_a+0xb9>
c0001789:	83 ec 0c             	sub    $0xc,%esp
c000178c:	ff 75 f0             	pushl  -0x10(%ebp)
c000178f:	e8 79 27 00 00       	call   c0003f0d <sys_free>
c0001794:	83 c4 10             	add    $0x10,%esp
c0001797:	83 ec 0c             	sub    $0xc,%esp
c000179a:	ff 75 ec             	pushl  -0x14(%ebp)
c000179d:	e8 6b 27 00 00       	call   c0003f0d <sys_free>
c00017a2:	83 c4 10             	add    $0x10,%esp
c00017a5:	83 ec 0c             	sub    $0xc,%esp
c00017a8:	ff 75 e8             	pushl  -0x18(%ebp)
c00017ab:	e8 5d 27 00 00       	call   c0003f0d <sys_free>
c00017b0:	83 c4 10             	add    $0x10,%esp
c00017b3:	eb fe                	jmp    c00017b3 <k_thread_a+0xf0>

c00017b5 <k_thread_b>:
c00017b5:	55                   	push   %ebp
c00017b6:	89 e5                	mov    %esp,%ebp
c00017b8:	53                   	push   %ebx
c00017b9:	83 ec 14             	sub    $0x14,%esp
c00017bc:	e8 34 02 00 00       	call   c00019f5 <__x86.get_pc_thunk.bx>
c00017c1:	81 c3 3f 08 01 00    	add    $0x1083f,%ebx
c00017c7:	83 ec 0c             	sub    $0xc,%esp
c00017ca:	68 00 01 00 00       	push   $0x100
c00017cf:	e8 b3 21 00 00       	call   c0003987 <sys_malloc>
c00017d4:	83 c4 10             	add    $0x10,%esp
c00017d7:	89 45 f0             	mov    %eax,-0x10(%ebp)
c00017da:	83 ec 0c             	sub    $0xc,%esp
c00017dd:	68 ff 00 00 00       	push   $0xff
c00017e2:	e8 a0 21 00 00       	call   c0003987 <sys_malloc>
c00017e7:	83 c4 10             	add    $0x10,%esp
c00017ea:	89 45 ec             	mov    %eax,-0x14(%ebp)
c00017ed:	83 ec 0c             	sub    $0xc,%esp
c00017f0:	68 fe 00 00 00       	push   $0xfe
c00017f5:	e8 8d 21 00 00       	call   c0003987 <sys_malloc>
c00017fa:	83 c4 10             	add    $0x10,%esp
c00017fd:	89 45 e8             	mov    %eax,-0x18(%ebp)
c0001800:	83 ec 0c             	sub    $0xc,%esp
c0001803:	8d 83 11 b0 ff ff    	lea    -0x4fef(%ebx),%eax
c0001809:	50                   	push   %eax
c000180a:	e8 01 38 00 00       	call   c0005010 <console_put_str>
c000180f:	83 c4 10             	add    $0x10,%esp
c0001812:	8b 45 f0             	mov    -0x10(%ebp),%eax
c0001815:	83 ec 0c             	sub    $0xc,%esp
c0001818:	50                   	push   %eax
c0001819:	e8 5a 38 00 00       	call   c0005078 <console_put_int>
c000181e:	83 c4 10             	add    $0x10,%esp
c0001821:	83 ec 0c             	sub    $0xc,%esp
c0001824:	6a 2c                	push   $0x2c
c0001826:	e8 15 38 00 00       	call   c0005040 <console_put_char>
c000182b:	83 c4 10             	add    $0x10,%esp
c000182e:	8b 45 ec             	mov    -0x14(%ebp),%eax
c0001831:	83 ec 0c             	sub    $0xc,%esp
c0001834:	50                   	push   %eax
c0001835:	e8 3e 38 00 00       	call   c0005078 <console_put_int>
c000183a:	83 c4 10             	add    $0x10,%esp
c000183d:	83 ec 0c             	sub    $0xc,%esp
c0001840:	6a 2c                	push   $0x2c
c0001842:	e8 f9 37 00 00       	call   c0005040 <console_put_char>
c0001847:	83 c4 10             	add    $0x10,%esp
c000184a:	8b 45 e8             	mov    -0x18(%ebp),%eax
c000184d:	83 ec 0c             	sub    $0xc,%esp
c0001850:	50                   	push   %eax
c0001851:	e8 22 38 00 00       	call   c0005078 <console_put_int>
c0001856:	83 c4 10             	add    $0x10,%esp
c0001859:	83 ec 0c             	sub    $0xc,%esp
c000185c:	6a 0a                	push   $0xa
c000185e:	e8 dd 37 00 00       	call   c0005040 <console_put_char>
c0001863:	83 c4 10             	add    $0x10,%esp
c0001866:	c7 45 f4 40 42 0f 00 	movl   $0xf4240,-0xc(%ebp)
c000186d:	90                   	nop
c000186e:	8b 45 f4             	mov    -0xc(%ebp),%eax
c0001871:	8d 50 ff             	lea    -0x1(%eax),%edx
c0001874:	89 55 f4             	mov    %edx,-0xc(%ebp)
c0001877:	85 c0                	test   %eax,%eax
c0001879:	7f f3                	jg     c000186e <k_thread_b+0xb9>
c000187b:	83 ec 0c             	sub    $0xc,%esp
c000187e:	ff 75 f0             	pushl  -0x10(%ebp)
c0001881:	e8 87 26 00 00       	call   c0003f0d <sys_free>
c0001886:	83 c4 10             	add    $0x10,%esp
c0001889:	83 ec 0c             	sub    $0xc,%esp
c000188c:	ff 75 ec             	pushl  -0x14(%ebp)
c000188f:	e8 79 26 00 00       	call   c0003f0d <sys_free>
c0001894:	83 c4 10             	add    $0x10,%esp
c0001897:	83 ec 0c             	sub    $0xc,%esp
c000189a:	ff 75 e8             	pushl  -0x18(%ebp)
c000189d:	e8 6b 26 00 00       	call   c0003f0d <sys_free>
c00018a2:	83 c4 10             	add    $0x10,%esp
c00018a5:	eb fe                	jmp    c00018a5 <k_thread_b+0xf0>

c00018a7 <u_prog_a>:
c00018a7:	55                   	push   %ebp
c00018a8:	89 e5                	mov    %esp,%ebp
c00018aa:	53                   	push   %ebx
c00018ab:	83 ec 14             	sub    $0x14,%esp
c00018ae:	e8 42 01 00 00       	call   c00019f5 <__x86.get_pc_thunk.bx>
c00018b3:	81 c3 4d 07 01 00    	add    $0x1074d,%ebx
c00018b9:	83 ec 0c             	sub    $0xc,%esp
c00018bc:	68 00 01 00 00       	push   $0x100
c00018c1:	e8 78 44 00 00       	call   c0005d3e <malloc>
c00018c6:	83 c4 10             	add    $0x10,%esp
c00018c9:	89 45 f0             	mov    %eax,-0x10(%ebp)
c00018cc:	83 ec 0c             	sub    $0xc,%esp
c00018cf:	68 ff 00 00 00       	push   $0xff
c00018d4:	e8 65 44 00 00       	call   c0005d3e <malloc>
c00018d9:	83 c4 10             	add    $0x10,%esp
c00018dc:	89 45 ec             	mov    %eax,-0x14(%ebp)
c00018df:	83 ec 0c             	sub    $0xc,%esp
c00018e2:	68 fe 00 00 00       	push   $0xfe
c00018e7:	e8 52 44 00 00       	call   c0005d3e <malloc>
c00018ec:	83 c4 10             	add    $0x10,%esp
c00018ef:	89 45 e8             	mov    %eax,-0x18(%ebp)
c00018f2:	8b 4d e8             	mov    -0x18(%ebp),%ecx
c00018f5:	8b 55 ec             	mov    -0x14(%ebp),%edx
c00018f8:	8b 45 f0             	mov    -0x10(%ebp),%eax
c00018fb:	51                   	push   %ecx
c00018fc:	52                   	push   %edx
c00018fd:	50                   	push   %eax
c00018fe:	8d 83 2c b0 ff ff    	lea    -0x4fd4(%ebx),%eax
c0001904:	50                   	push   %eax
c0001905:	e8 af 49 00 00       	call   c00062b9 <printf>
c000190a:	83 c4 10             	add    $0x10,%esp
c000190d:	c7 45 f4 a0 86 01 00 	movl   $0x186a0,-0xc(%ebp)
c0001914:	90                   	nop
c0001915:	8b 45 f4             	mov    -0xc(%ebp),%eax
c0001918:	8d 50 ff             	lea    -0x1(%eax),%edx
c000191b:	89 55 f4             	mov    %edx,-0xc(%ebp)
c000191e:	85 c0                	test   %eax,%eax
c0001920:	7f f3                	jg     c0001915 <u_prog_a+0x6e>
c0001922:	83 ec 0c             	sub    $0xc,%esp
c0001925:	ff 75 f0             	pushl  -0x10(%ebp)
c0001928:	e8 3a 44 00 00       	call   c0005d67 <free>
c000192d:	83 c4 10             	add    $0x10,%esp
c0001930:	83 ec 0c             	sub    $0xc,%esp
c0001933:	ff 75 ec             	pushl  -0x14(%ebp)
c0001936:	e8 2c 44 00 00       	call   c0005d67 <free>
c000193b:	83 c4 10             	add    $0x10,%esp
c000193e:	83 ec 0c             	sub    $0xc,%esp
c0001941:	ff 75 e8             	pushl  -0x18(%ebp)
c0001944:	e8 1e 44 00 00       	call   c0005d67 <free>
c0001949:	83 c4 10             	add    $0x10,%esp
c000194c:	eb fe                	jmp    c000194c <u_prog_a+0xa5>

c000194e <u_prog_b>:
c000194e:	55                   	push   %ebp
c000194f:	89 e5                	mov    %esp,%ebp
c0001951:	53                   	push   %ebx
c0001952:	83 ec 14             	sub    $0x14,%esp
c0001955:	e8 9b 00 00 00       	call   c00019f5 <__x86.get_pc_thunk.bx>
c000195a:	81 c3 a6 06 01 00    	add    $0x106a6,%ebx
c0001960:	83 ec 0c             	sub    $0xc,%esp
c0001963:	68 00 01 00 00       	push   $0x100
c0001968:	e8 d1 43 00 00       	call   c0005d3e <malloc>
c000196d:	83 c4 10             	add    $0x10,%esp
c0001970:	89 45 f0             	mov    %eax,-0x10(%ebp)
c0001973:	83 ec 0c             	sub    $0xc,%esp
c0001976:	68 ff 00 00 00       	push   $0xff
c000197b:	e8 be 43 00 00       	call   c0005d3e <malloc>
c0001980:	83 c4 10             	add    $0x10,%esp
c0001983:	89 45 ec             	mov    %eax,-0x14(%ebp)
c0001986:	83 ec 0c             	sub    $0xc,%esp
c0001989:	68 fe 00 00 00       	push   $0xfe
c000198e:	e8 ab 43 00 00       	call   c0005d3e <malloc>
c0001993:	83 c4 10             	add    $0x10,%esp
c0001996:	89 45 e8             	mov    %eax,-0x18(%ebp)
c0001999:	8b 4d e8             	mov    -0x18(%ebp),%ecx
c000199c:	8b 55 ec             	mov    -0x14(%ebp),%edx
c000199f:	8b 45 f0             	mov    -0x10(%ebp),%eax
c00019a2:	51                   	push   %ecx
c00019a3:	52                   	push   %edx
c00019a4:	50                   	push   %eax
c00019a5:	8d 83 50 b0 ff ff    	lea    -0x4fb0(%ebx),%eax
c00019ab:	50                   	push   %eax
c00019ac:	e8 08 49 00 00       	call   c00062b9 <printf>
c00019b1:	83 c4 10             	add    $0x10,%esp
c00019b4:	c7 45 f4 a0 86 01 00 	movl   $0x186a0,-0xc(%ebp)
c00019bb:	90                   	nop
c00019bc:	8b 45 f4             	mov    -0xc(%ebp),%eax
c00019bf:	8d 50 ff             	lea    -0x1(%eax),%edx
c00019c2:	89 55 f4             	mov    %edx,-0xc(%ebp)
c00019c5:	85 c0                	test   %eax,%eax
c00019c7:	7f f3                	jg     c00019bc <u_prog_b+0x6e>
c00019c9:	83 ec 0c             	sub    $0xc,%esp
c00019cc:	ff 75 f0             	pushl  -0x10(%ebp)
c00019cf:	e8 93 43 00 00       	call   c0005d67 <free>
c00019d4:	83 c4 10             	add    $0x10,%esp
c00019d7:	83 ec 0c             	sub    $0xc,%esp
c00019da:	ff 75 ec             	pushl  -0x14(%ebp)
c00019dd:	e8 85 43 00 00       	call   c0005d67 <free>
c00019e2:	83 c4 10             	add    $0x10,%esp
c00019e5:	83 ec 0c             	sub    $0xc,%esp
c00019e8:	ff 75 e8             	pushl  -0x18(%ebp)
c00019eb:	e8 77 43 00 00       	call   c0005d67 <free>
c00019f0:	83 c4 10             	add    $0x10,%esp
c00019f3:	eb fe                	jmp    c00019f3 <u_prog_b+0xa5>

c00019f5 <__x86.get_pc_thunk.bx>:
c00019f5:	8b 1c 24             	mov    (%esp),%ebx
c00019f8:	c3                   	ret    

c00019f9 <init_all>:
c00019f9:	55                   	push   %ebp
c00019fa:	89 e5                	mov    %esp,%ebp
c00019fc:	53                   	push   %ebx
c00019fd:	83 ec 04             	sub    $0x4,%esp
c0001a00:	e8 f0 ff ff ff       	call   c00019f5 <__x86.get_pc_thunk.bx>
c0001a05:	81 c3 fb 05 01 00    	add    $0x105fb,%ebx
c0001a0b:	83 ec 0c             	sub    $0xc,%esp
c0001a0e:	8d 83 79 b0 ff ff    	lea    -0x4f87(%ebx),%eax
c0001a14:	50                   	push   %eax
c0001a15:	e8 26 0d 00 00       	call   c0002740 <put_str>
c0001a1a:	83 c4 10             	add    $0x10,%esp
c0001a1d:	e8 58 04 00 00       	call   c0001e7a <idt_init>
c0001a22:	e8 e6 28 00 00       	call   c000430d <mem_init>
c0001a27:	e8 5f 32 00 00       	call   c0004c8b <thread_init>
c0001a2c:	e8 3f 07 00 00       	call   c0002170 <timer_init>
c0001a31:	e8 ae 3b 00 00       	call   c00055e4 <keyboard_init>
c0001a36:	e8 54 35 00 00       	call   c0004f8f <console_init>
c0001a3b:	e8 97 3c 00 00       	call   c00056d7 <tss_init>
c0001a40:	e8 19 41 00 00       	call   c0005b5e <syscall_init>
c0001a45:	e8 39 54 00 00       	call   c0006e83 <ide_init>
c0001a4a:	e8 51 9a 00 00       	call   c000b4a0 <filesys_init>
c0001a4f:	90                   	nop
c0001a50:	8b 5d fc             	mov    -0x4(%ebp),%ebx
c0001a53:	c9                   	leave  
c0001a54:	c3                   	ret    

c0001a55 <outb>:
c0001a55:	55                   	push   %ebp
c0001a56:	89 e5                	mov    %esp,%ebp
c0001a58:	83 ec 08             	sub    $0x8,%esp
c0001a5b:	e8 78 05 00 00       	call   c0001fd8 <__x86.get_pc_thunk.ax>
c0001a60:	05 a0 05 01 00       	add    $0x105a0,%eax
c0001a65:	8b 55 08             	mov    0x8(%ebp),%edx
c0001a68:	8b 45 0c             	mov    0xc(%ebp),%eax
c0001a6b:	66 89 55 fc          	mov    %dx,-0x4(%ebp)
c0001a6f:	88 45 f8             	mov    %al,-0x8(%ebp)
c0001a72:	0f b6 45 f8          	movzbl -0x8(%ebp),%eax
c0001a76:	0f b7 55 fc          	movzwl -0x4(%ebp),%edx
c0001a7a:	ee                   	out    %al,(%dx)
c0001a7b:	90                   	nop
c0001a7c:	c9                   	leave  
c0001a7d:	c3                   	ret    

c0001a7e <pic_init>:
c0001a7e:	55                   	push   %ebp
c0001a7f:	89 e5                	mov    %esp,%ebp
c0001a81:	53                   	push   %ebx
c0001a82:	83 ec 04             	sub    $0x4,%esp
c0001a85:	e8 6b ff ff ff       	call   c00019f5 <__x86.get_pc_thunk.bx>
c0001a8a:	81 c3 76 05 01 00    	add    $0x10576,%ebx
c0001a90:	6a 11                	push   $0x11
c0001a92:	6a 20                	push   $0x20
c0001a94:	e8 bc ff ff ff       	call   c0001a55 <outb>
c0001a99:	83 c4 08             	add    $0x8,%esp
c0001a9c:	6a 20                	push   $0x20
c0001a9e:	6a 21                	push   $0x21
c0001aa0:	e8 b0 ff ff ff       	call   c0001a55 <outb>
c0001aa5:	83 c4 08             	add    $0x8,%esp
c0001aa8:	6a 04                	push   $0x4
c0001aaa:	6a 21                	push   $0x21
c0001aac:	e8 a4 ff ff ff       	call   c0001a55 <outb>
c0001ab1:	83 c4 08             	add    $0x8,%esp
c0001ab4:	6a 10                	push   $0x10
c0001ab6:	6a 21                	push   $0x21
c0001ab8:	e8 98 ff ff ff       	call   c0001a55 <outb>
c0001abd:	83 c4 08             	add    $0x8,%esp
c0001ac0:	6a 11                	push   $0x11
c0001ac2:	68 a0 00 00 00       	push   $0xa0
c0001ac7:	e8 89 ff ff ff       	call   c0001a55 <outb>
c0001acc:	83 c4 08             	add    $0x8,%esp
c0001acf:	6a 28                	push   $0x28
c0001ad1:	68 a1 00 00 00       	push   $0xa1
c0001ad6:	e8 7a ff ff ff       	call   c0001a55 <outb>
c0001adb:	83 c4 08             	add    $0x8,%esp
c0001ade:	6a 02                	push   $0x2
c0001ae0:	68 a1 00 00 00       	push   $0xa1
c0001ae5:	e8 6b ff ff ff       	call   c0001a55 <outb>
c0001aea:	83 c4 08             	add    $0x8,%esp
c0001aed:	6a 10                	push   $0x10
c0001aef:	68 a1 00 00 00       	push   $0xa1
c0001af4:	e8 5c ff ff ff       	call   c0001a55 <outb>
c0001af9:	83 c4 08             	add    $0x8,%esp
c0001afc:	68 f8 00 00 00       	push   $0xf8
c0001b01:	6a 21                	push   $0x21
c0001b03:	e8 4d ff ff ff       	call   c0001a55 <outb>
c0001b08:	83 c4 08             	add    $0x8,%esp
c0001b0b:	68 bf 00 00 00       	push   $0xbf
c0001b10:	68 a1 00 00 00       	push   $0xa1
c0001b15:	e8 3b ff ff ff       	call   c0001a55 <outb>
c0001b1a:	83 c4 08             	add    $0x8,%esp
c0001b1d:	83 ec 0c             	sub    $0xc,%esp
c0001b20:	8d 83 84 b0 ff ff    	lea    -0x4f7c(%ebx),%eax
c0001b26:	50                   	push   %eax
c0001b27:	e8 14 0c 00 00       	call   c0002740 <put_str>
c0001b2c:	83 c4 10             	add    $0x10,%esp
c0001b2f:	90                   	nop
c0001b30:	8b 5d fc             	mov    -0x4(%ebp),%ebx
c0001b33:	c9                   	leave  
c0001b34:	c3                   	ret    

c0001b35 <make_idt_desc>:
c0001b35:	55                   	push   %ebp
c0001b36:	89 e5                	mov    %esp,%ebp
c0001b38:	83 ec 04             	sub    $0x4,%esp
c0001b3b:	e8 98 04 00 00       	call   c0001fd8 <__x86.get_pc_thunk.ax>
c0001b40:	05 c0 04 01 00       	add    $0x104c0,%eax
c0001b45:	8b 45 0c             	mov    0xc(%ebp),%eax
c0001b48:	88 45 fc             	mov    %al,-0x4(%ebp)
c0001b4b:	8b 45 10             	mov    0x10(%ebp),%eax
c0001b4e:	89 c2                	mov    %eax,%edx
c0001b50:	8b 45 08             	mov    0x8(%ebp),%eax
c0001b53:	66 89 10             	mov    %dx,(%eax)
c0001b56:	8b 45 08             	mov    0x8(%ebp),%eax
c0001b59:	66 c7 40 02 08 00    	movw   $0x8,0x2(%eax)
c0001b5f:	8b 45 08             	mov    0x8(%ebp),%eax
c0001b62:	c6 40 04 00          	movb   $0x0,0x4(%eax)
c0001b66:	8b 45 08             	mov    0x8(%ebp),%eax
c0001b69:	0f b6 55 fc          	movzbl -0x4(%ebp),%edx
c0001b6d:	88 50 05             	mov    %dl,0x5(%eax)
c0001b70:	8b 45 10             	mov    0x10(%ebp),%eax
c0001b73:	c1 e8 10             	shr    $0x10,%eax
c0001b76:	89 c2                	mov    %eax,%edx
c0001b78:	8b 45 08             	mov    0x8(%ebp),%eax
c0001b7b:	66 89 50 06          	mov    %dx,0x6(%eax)
c0001b7f:	90                   	nop
c0001b80:	c9                   	leave  
c0001b81:	c3                   	ret    

c0001b82 <idt_desc_init>:
c0001b82:	55                   	push   %ebp
c0001b83:	89 e5                	mov    %esp,%ebp
c0001b85:	53                   	push   %ebx
c0001b86:	83 ec 14             	sub    $0x14,%esp
c0001b89:	e8 67 fe ff ff       	call   c00019f5 <__x86.get_pc_thunk.bx>
c0001b8e:	81 c3 72 04 01 00    	add    $0x10472,%ebx
c0001b94:	c7 45 f0 80 00 00 00 	movl   $0x80,-0x10(%ebp)
c0001b9b:	c7 45 f4 00 00 00 00 	movl   $0x0,-0xc(%ebp)
c0001ba2:	eb 31                	jmp    c0001bd5 <idt_desc_init+0x53>
c0001ba4:	c7 c0 20 20 01 c0    	mov    $0xc0012020,%eax
c0001baa:	8b 55 f4             	mov    -0xc(%ebp),%edx
c0001bad:	8b 04 90             	mov    (%eax,%edx,4),%eax
c0001bb0:	8b 55 f4             	mov    -0xc(%ebp),%edx
c0001bb3:	8d 0c d5 00 00 00 00 	lea    0x0(,%edx,8),%ecx
c0001bba:	8d 93 80 01 00 00    	lea    0x180(%ebx),%edx
c0001bc0:	01 ca                	add    %ecx,%edx
c0001bc2:	50                   	push   %eax
c0001bc3:	68 8e 00 00 00       	push   $0x8e
c0001bc8:	52                   	push   %edx
c0001bc9:	e8 67 ff ff ff       	call   c0001b35 <make_idt_desc>
c0001bce:	83 c4 0c             	add    $0xc,%esp
c0001bd1:	83 45 f4 01          	addl   $0x1,-0xc(%ebp)
c0001bd5:	81 7d f4 80 00 00 00 	cmpl   $0x80,-0xc(%ebp)
c0001bdc:	7e c6                	jle    c0001ba4 <idt_desc_init+0x22>
c0001bde:	8b 45 f0             	mov    -0x10(%ebp),%eax
c0001be1:	8d 14 c5 00 00 00 00 	lea    0x0(,%eax,8),%edx
c0001be8:	8d 83 80 01 00 00    	lea    0x180(%ebx),%eax
c0001bee:	01 d0                	add    %edx,%eax
c0001bf0:	c7 c2 17 27 00 c0    	mov    $0xc0002717,%edx
c0001bf6:	52                   	push   %edx
c0001bf7:	68 ee 00 00 00       	push   $0xee
c0001bfc:	50                   	push   %eax
c0001bfd:	e8 33 ff ff ff       	call   c0001b35 <make_idt_desc>
c0001c02:	83 c4 0c             	add    $0xc,%esp
c0001c05:	83 ec 0c             	sub    $0xc,%esp
c0001c08:	8d 83 95 b0 ff ff    	lea    -0x4f6b(%ebx),%eax
c0001c0e:	50                   	push   %eax
c0001c0f:	e8 2c 0b 00 00       	call   c0002740 <put_str>
c0001c14:	83 c4 10             	add    $0x10,%esp
c0001c17:	90                   	nop
c0001c18:	8b 5d fc             	mov    -0x4(%ebp),%ebx
c0001c1b:	c9                   	leave  
c0001c1c:	c3                   	ret    

c0001c1d <general_intr_handler>:
c0001c1d:	55                   	push   %ebp
c0001c1e:	89 e5                	mov    %esp,%ebp
c0001c20:	53                   	push   %ebx
c0001c21:	83 ec 24             	sub    $0x24,%esp
c0001c24:	e8 cc fd ff ff       	call   c00019f5 <__x86.get_pc_thunk.bx>
c0001c29:	81 c3 d7 03 01 00    	add    $0x103d7,%ebx
c0001c2f:	8b 45 08             	mov    0x8(%ebp),%eax
c0001c32:	88 45 e4             	mov    %al,-0x1c(%ebp)
c0001c35:	80 7d e4 27          	cmpb   $0x27,-0x1c(%ebp)
c0001c39:	0f 84 c7 00 00 00    	je     c0001d06 <general_intr_handler+0xe9>
c0001c3f:	80 7d e4 2f          	cmpb   $0x2f,-0x1c(%ebp)
c0001c43:	0f 84 bd 00 00 00    	je     c0001d06 <general_intr_handler+0xe9>
c0001c49:	83 ec 0c             	sub    $0xc,%esp
c0001c4c:	6a 00                	push   $0x0
c0001c4e:	e8 7a 0c 00 00       	call   c00028cd <set_cursor>
c0001c53:	83 c4 10             	add    $0x10,%esp
c0001c56:	c7 45 f4 00 00 00 00 	movl   $0x0,-0xc(%ebp)
c0001c5d:	eb 11                	jmp    c0001c70 <general_intr_handler+0x53>
c0001c5f:	83 ec 0c             	sub    $0xc,%esp
c0001c62:	6a 20                	push   $0x20
c0001c64:	e8 f5 0a 00 00       	call   c000275e <put_char>
c0001c69:	83 c4 10             	add    $0x10,%esp
c0001c6c:	83 45 f4 01          	addl   $0x1,-0xc(%ebp)
c0001c70:	81 7d f4 3f 01 00 00 	cmpl   $0x13f,-0xc(%ebp)
c0001c77:	7e e6                	jle    c0001c5f <general_intr_handler+0x42>
c0001c79:	83 ec 0c             	sub    $0xc,%esp
c0001c7c:	6a 00                	push   $0x0
c0001c7e:	e8 4a 0c 00 00       	call   c00028cd <set_cursor>
c0001c83:	83 c4 10             	add    $0x10,%esp
c0001c86:	83 ec 0c             	sub    $0xc,%esp
c0001c89:	8d 83 ac b0 ff ff    	lea    -0x4f54(%ebx),%eax
c0001c8f:	50                   	push   %eax
c0001c90:	e8 ab 0a 00 00       	call   c0002740 <put_str>
c0001c95:	83 c4 10             	add    $0x10,%esp
c0001c98:	83 ec 0c             	sub    $0xc,%esp
c0001c9b:	6a 58                	push   $0x58
c0001c9d:	e8 2b 0c 00 00       	call   c00028cd <set_cursor>
c0001ca2:	83 c4 10             	add    $0x10,%esp
c0001ca5:	0f b6 55 e4          	movzbl -0x1c(%ebp),%edx
c0001ca9:	c7 c0 60 2c 01 c0    	mov    $0xc0012c60,%eax
c0001caf:	8b 04 90             	mov    (%eax,%edx,4),%eax
c0001cb2:	83 ec 0c             	sub    $0xc,%esp
c0001cb5:	50                   	push   %eax
c0001cb6:	e8 85 0a 00 00       	call   c0002740 <put_str>
c0001cbb:	83 c4 10             	add    $0x10,%esp
c0001cbe:	80 7d e4 0e          	cmpb   $0xe,-0x1c(%ebp)
c0001cc2:	75 2e                	jne    c0001cf2 <general_intr_handler+0xd5>
c0001cc4:	c7 45 f0 00 00 00 00 	movl   $0x0,-0x10(%ebp)
c0001ccb:	0f 20 d0             	mov    %cr2,%eax
c0001cce:	89 45 f0             	mov    %eax,-0x10(%ebp)
c0001cd1:	83 ec 0c             	sub    $0xc,%esp
c0001cd4:	8d 83 da b0 ff ff    	lea    -0x4f26(%ebx),%eax
c0001cda:	50                   	push   %eax
c0001cdb:	e8 60 0a 00 00       	call   c0002740 <put_str>
c0001ce0:	83 c4 10             	add    $0x10,%esp
c0001ce3:	8b 45 f0             	mov    -0x10(%ebp),%eax
c0001ce6:	83 ec 0c             	sub    $0xc,%esp
c0001ce9:	50                   	push   %eax
c0001cea:	e8 7b 0b 00 00       	call   c000286a <put_int>
c0001cef:	83 c4 10             	add    $0x10,%esp
c0001cf2:	83 ec 0c             	sub    $0xc,%esp
c0001cf5:	8d 83 f0 b0 ff ff    	lea    -0x4f10(%ebx),%eax
c0001cfb:	50                   	push   %eax
c0001cfc:	e8 3f 0a 00 00       	call   c0002740 <put_str>
c0001d01:	83 c4 10             	add    $0x10,%esp
c0001d04:	eb fe                	jmp    c0001d04 <general_intr_handler+0xe7>
c0001d06:	90                   	nop
c0001d07:	8b 5d fc             	mov    -0x4(%ebp),%ebx
c0001d0a:	c9                   	leave  
c0001d0b:	c3                   	ret    

c0001d0c <exception_init>:
c0001d0c:	55                   	push   %ebp
c0001d0d:	89 e5                	mov    %esp,%ebp
c0001d0f:	53                   	push   %ebx
c0001d10:	83 ec 10             	sub    $0x10,%esp
c0001d13:	e8 c0 02 00 00       	call   c0001fd8 <__x86.get_pc_thunk.ax>
c0001d18:	05 e8 02 01 00       	add    $0x102e8,%eax
c0001d1d:	c7 45 f8 00 00 00 00 	movl   $0x0,-0x8(%ebp)
c0001d24:	eb 28                	jmp    c0001d4e <exception_init+0x42>
c0001d26:	c7 c2 80 2e 01 c0    	mov    $0xc0012e80,%edx
c0001d2c:	8b 4d f8             	mov    -0x8(%ebp),%ecx
c0001d2f:	8d 98 1d fc fe ff    	lea    -0x103e3(%eax),%ebx
c0001d35:	89 1c 8a             	mov    %ebx,(%edx,%ecx,4)
c0001d38:	c7 c2 60 2c 01 c0    	mov    $0xc0012c60,%edx
c0001d3e:	8b 4d f8             	mov    -0x8(%ebp),%ecx
c0001d41:	8d 98 22 b1 ff ff    	lea    -0x4ede(%eax),%ebx
c0001d47:	89 1c 8a             	mov    %ebx,(%edx,%ecx,4)
c0001d4a:	83 45 f8 01          	addl   $0x1,-0x8(%ebp)
c0001d4e:	81 7d f8 80 00 00 00 	cmpl   $0x80,-0x8(%ebp)
c0001d55:	7e cf                	jle    c0001d26 <exception_init+0x1a>
c0001d57:	c7 c2 60 2c 01 c0    	mov    $0xc0012c60,%edx
c0001d5d:	8d 88 2a b1 ff ff    	lea    -0x4ed6(%eax),%ecx
c0001d63:	89 0a                	mov    %ecx,(%edx)
c0001d65:	c7 c2 60 2c 01 c0    	mov    $0xc0012c60,%edx
c0001d6b:	8d 88 3b b1 ff ff    	lea    -0x4ec5(%eax),%ecx
c0001d71:	89 4a 04             	mov    %ecx,0x4(%edx)
c0001d74:	c7 c2 60 2c 01 c0    	mov    $0xc0012c60,%edx
c0001d7a:	8d 88 4f b1 ff ff    	lea    -0x4eb1(%eax),%ecx
c0001d80:	89 4a 08             	mov    %ecx,0x8(%edx)
c0001d83:	c7 c2 60 2c 01 c0    	mov    $0xc0012c60,%edx
c0001d89:	8d 88 5d b1 ff ff    	lea    -0x4ea3(%eax),%ecx
c0001d8f:	89 4a 0c             	mov    %ecx,0xc(%edx)
c0001d92:	c7 c2 60 2c 01 c0    	mov    $0xc0012c60,%edx
c0001d98:	8d 88 76 b1 ff ff    	lea    -0x4e8a(%eax),%ecx
c0001d9e:	89 4a 10             	mov    %ecx,0x10(%edx)
c0001da1:	c7 c2 60 2c 01 c0    	mov    $0xc0012c60,%edx
c0001da7:	8d 88 90 b1 ff ff    	lea    -0x4e70(%eax),%ecx
c0001dad:	89 4a 14             	mov    %ecx,0x14(%edx)
c0001db0:	c7 c2 60 2c 01 c0    	mov    $0xc0012c60,%edx
c0001db6:	8d 88 b3 b1 ff ff    	lea    -0x4e4d(%eax),%ecx
c0001dbc:	89 4a 18             	mov    %ecx,0x18(%edx)
c0001dbf:	c7 c2 60 2c 01 c0    	mov    $0xc0012c60,%edx
c0001dc5:	8d 88 d0 b1 ff ff    	lea    -0x4e30(%eax),%ecx
c0001dcb:	89 4a 1c             	mov    %ecx,0x1c(%edx)
c0001dce:	c7 c2 60 2c 01 c0    	mov    $0xc0012c60,%edx
c0001dd4:	8d 88 f3 b1 ff ff    	lea    -0x4e0d(%eax),%ecx
c0001dda:	89 4a 20             	mov    %ecx,0x20(%edx)
c0001ddd:	c7 c2 60 2c 01 c0    	mov    $0xc0012c60,%edx
c0001de3:	8d 88 0e b2 ff ff    	lea    -0x4df2(%eax),%ecx
c0001de9:	89 4a 24             	mov    %ecx,0x24(%edx)
c0001dec:	c7 c2 60 2c 01 c0    	mov    $0xc0012c60,%edx
c0001df2:	8d 88 2a b2 ff ff    	lea    -0x4dd6(%eax),%ecx
c0001df8:	89 4a 28             	mov    %ecx,0x28(%edx)
c0001dfb:	c7 c2 60 2c 01 c0    	mov    $0xc0012c60,%edx
c0001e01:	8d 88 44 b2 ff ff    	lea    -0x4dbc(%eax),%ecx
c0001e07:	89 4a 2c             	mov    %ecx,0x2c(%edx)
c0001e0a:	c7 c2 60 2c 01 c0    	mov    $0xc0012c60,%edx
c0001e10:	8d 88 5c b2 ff ff    	lea    -0x4da4(%eax),%ecx
c0001e16:	89 4a 30             	mov    %ecx,0x30(%edx)
c0001e19:	c7 c2 60 2c 01 c0    	mov    $0xc0012c60,%edx
c0001e1f:	8d 88 78 b2 ff ff    	lea    -0x4d88(%eax),%ecx
c0001e25:	89 4a 34             	mov    %ecx,0x34(%edx)
c0001e28:	c7 c2 60 2c 01 c0    	mov    $0xc0012c60,%edx
c0001e2e:	8d 88 99 b2 ff ff    	lea    -0x4d67(%eax),%ecx
c0001e34:	89 4a 38             	mov    %ecx,0x38(%edx)
c0001e37:	c7 c2 60 2c 01 c0    	mov    $0xc0012c60,%edx
c0001e3d:	8d 88 b4 b2 ff ff    	lea    -0x4d4c(%eax),%ecx
c0001e43:	89 4a 40             	mov    %ecx,0x40(%edx)
c0001e46:	c7 c2 60 2c 01 c0    	mov    $0xc0012c60,%edx
c0001e4c:	8d 88 d5 b2 ff ff    	lea    -0x4d2b(%eax),%ecx
c0001e52:	89 4a 44             	mov    %ecx,0x44(%edx)
c0001e55:	c7 c2 60 2c 01 c0    	mov    $0xc0012c60,%edx
c0001e5b:	8d 88 f3 b2 ff ff    	lea    -0x4d0d(%eax),%ecx
c0001e61:	89 4a 48             	mov    %ecx,0x48(%edx)
c0001e64:	c7 c2 60 2c 01 c0    	mov    $0xc0012c60,%edx
c0001e6a:	8d 80 10 b3 ff ff    	lea    -0x4cf0(%eax),%eax
c0001e70:	89 42 4c             	mov    %eax,0x4c(%edx)
c0001e73:	90                   	nop
c0001e74:	83 c4 10             	add    $0x10,%esp
c0001e77:	5b                   	pop    %ebx
c0001e78:	5d                   	pop    %ebp
c0001e79:	c3                   	ret    

c0001e7a <idt_init>:
c0001e7a:	55                   	push   %ebp
c0001e7b:	89 e5                	mov    %esp,%ebp
c0001e7d:	57                   	push   %edi
c0001e7e:	56                   	push   %esi
c0001e7f:	53                   	push   %ebx
c0001e80:	83 ec 1c             	sub    $0x1c,%esp
c0001e83:	e8 6d fb ff ff       	call   c00019f5 <__x86.get_pc_thunk.bx>
c0001e88:	81 c3 78 01 01 00    	add    $0x10178,%ebx
c0001e8e:	83 ec 0c             	sub    $0xc,%esp
c0001e91:	8d 83 32 b3 ff ff    	lea    -0x4cce(%ebx),%eax
c0001e97:	50                   	push   %eax
c0001e98:	e8 a3 08 00 00       	call   c0002740 <put_str>
c0001e9d:	83 c4 10             	add    $0x10,%esp
c0001ea0:	e8 dd fc ff ff       	call   c0001b82 <idt_desc_init>
c0001ea5:	e8 62 fe ff ff       	call   c0001d0c <exception_init>
c0001eaa:	e8 cf fb ff ff       	call   c0001a7e <pic_init>
c0001eaf:	8d 83 80 01 00 00    	lea    0x180(%ebx),%eax
c0001eb5:	ba 00 00 00 00       	mov    $0x0,%edx
c0001eba:	0f a4 c2 10          	shld   $0x10,%eax,%edx
c0001ebe:	c1 e0 10             	shl    $0x10,%eax
c0001ec1:	89 d1                	mov    %edx,%ecx
c0001ec3:	89 c2                	mov    %eax,%edx
c0001ec5:	89 d0                	mov    %edx,%eax
c0001ec7:	0d 07 04 00 00       	or     $0x407,%eax
c0001ecc:	89 c6                	mov    %eax,%esi
c0001ece:	89 c8                	mov    %ecx,%eax
c0001ed0:	80 cc 00             	or     $0x0,%ah
c0001ed3:	89 c7                	mov    %eax,%edi
c0001ed5:	89 75 e0             	mov    %esi,-0x20(%ebp)
c0001ed8:	89 7d e4             	mov    %edi,-0x1c(%ebp)
c0001edb:	0f 01 5d e0          	lidtl  -0x20(%ebp)
c0001edf:	83 ec 0c             	sub    $0xc,%esp
c0001ee2:	8d 83 42 b3 ff ff    	lea    -0x4cbe(%ebx),%eax
c0001ee8:	50                   	push   %eax
c0001ee9:	e8 52 08 00 00       	call   c0002740 <put_str>
c0001eee:	83 c4 10             	add    $0x10,%esp
c0001ef1:	90                   	nop
c0001ef2:	8d 65 f4             	lea    -0xc(%ebp),%esp
c0001ef5:	5b                   	pop    %ebx
c0001ef6:	5e                   	pop    %esi
c0001ef7:	5f                   	pop    %edi
c0001ef8:	5d                   	pop    %ebp
c0001ef9:	c3                   	ret    

c0001efa <intr_enable>:
c0001efa:	55                   	push   %ebp
c0001efb:	89 e5                	mov    %esp,%ebp
c0001efd:	83 ec 18             	sub    $0x18,%esp
c0001f00:	e8 d3 00 00 00       	call   c0001fd8 <__x86.get_pc_thunk.ax>
c0001f05:	05 fb 00 01 00       	add    $0x100fb,%eax
c0001f0a:	e8 79 00 00 00       	call   c0001f88 <intr_get_status>
c0001f0f:	83 f8 01             	cmp    $0x1,%eax
c0001f12:	75 0c                	jne    c0001f20 <intr_enable+0x26>
c0001f14:	c7 45 f4 01 00 00 00 	movl   $0x1,-0xc(%ebp)
c0001f1b:	8b 45 f4             	mov    -0xc(%ebp),%eax
c0001f1e:	eb 0b                	jmp    c0001f2b <intr_enable+0x31>
c0001f20:	c7 45 f4 00 00 00 00 	movl   $0x0,-0xc(%ebp)
c0001f27:	fb                   	sti    
c0001f28:	8b 45 f4             	mov    -0xc(%ebp),%eax
c0001f2b:	c9                   	leave  
c0001f2c:	c3                   	ret    

c0001f2d <intr_disable>:
c0001f2d:	55                   	push   %ebp
c0001f2e:	89 e5                	mov    %esp,%ebp
c0001f30:	83 ec 18             	sub    $0x18,%esp
c0001f33:	e8 a0 00 00 00       	call   c0001fd8 <__x86.get_pc_thunk.ax>
c0001f38:	05 c8 00 01 00       	add    $0x100c8,%eax
c0001f3d:	e8 46 00 00 00       	call   c0001f88 <intr_get_status>
c0001f42:	83 f8 01             	cmp    $0x1,%eax
c0001f45:	75 0d                	jne    c0001f54 <intr_disable+0x27>
c0001f47:	c7 45 f4 01 00 00 00 	movl   $0x1,-0xc(%ebp)
c0001f4e:	fa                   	cli    
c0001f4f:	8b 45 f4             	mov    -0xc(%ebp),%eax
c0001f52:	eb 0a                	jmp    c0001f5e <intr_disable+0x31>
c0001f54:	c7 45 f4 00 00 00 00 	movl   $0x0,-0xc(%ebp)
c0001f5b:	8b 45 f4             	mov    -0xc(%ebp),%eax
c0001f5e:	c9                   	leave  
c0001f5f:	c3                   	ret    

c0001f60 <intr_set_status>:
c0001f60:	55                   	push   %ebp
c0001f61:	89 e5                	mov    %esp,%ebp
c0001f63:	83 ec 08             	sub    $0x8,%esp
c0001f66:	e8 6d 00 00 00       	call   c0001fd8 <__x86.get_pc_thunk.ax>
c0001f6b:	05 95 00 01 00       	add    $0x10095,%eax
c0001f70:	8b 45 08             	mov    0x8(%ebp),%eax
c0001f73:	83 e0 01             	and    $0x1,%eax
c0001f76:	85 c0                	test   %eax,%eax
c0001f78:	74 07                	je     c0001f81 <intr_set_status+0x21>
c0001f7a:	e8 7b ff ff ff       	call   c0001efa <intr_enable>
c0001f7f:	eb 05                	jmp    c0001f86 <intr_set_status+0x26>
c0001f81:	e8 a7 ff ff ff       	call   c0001f2d <intr_disable>
c0001f86:	c9                   	leave  
c0001f87:	c3                   	ret    

c0001f88 <intr_get_status>:
c0001f88:	55                   	push   %ebp
c0001f89:	89 e5                	mov    %esp,%ebp
c0001f8b:	83 ec 10             	sub    $0x10,%esp
c0001f8e:	e8 45 00 00 00       	call   c0001fd8 <__x86.get_pc_thunk.ax>
c0001f93:	05 6d 00 01 00       	add    $0x1006d,%eax
c0001f98:	c7 45 fc 00 00 00 00 	movl   $0x0,-0x4(%ebp)
c0001f9f:	9c                   	pushf  
c0001fa0:	58                   	pop    %eax
c0001fa1:	89 45 fc             	mov    %eax,-0x4(%ebp)
c0001fa4:	8b 45 fc             	mov    -0x4(%ebp),%eax
c0001fa7:	c1 e8 09             	shr    $0x9,%eax
c0001faa:	83 e0 01             	and    $0x1,%eax
c0001fad:	c9                   	leave  
c0001fae:	c3                   	ret    

c0001faf <register_handler>:
c0001faf:	55                   	push   %ebp
c0001fb0:	89 e5                	mov    %esp,%ebp
c0001fb2:	83 ec 04             	sub    $0x4,%esp
c0001fb5:	e8 1e 00 00 00       	call   c0001fd8 <__x86.get_pc_thunk.ax>
c0001fba:	05 46 00 01 00       	add    $0x10046,%eax
c0001fbf:	8b 55 08             	mov    0x8(%ebp),%edx
c0001fc2:	88 55 fc             	mov    %dl,-0x4(%ebp)
c0001fc5:	0f b6 55 fc          	movzbl -0x4(%ebp),%edx
c0001fc9:	c7 c0 80 2e 01 c0    	mov    $0xc0012e80,%eax
c0001fcf:	8b 4d 0c             	mov    0xc(%ebp),%ecx
c0001fd2:	89 0c 90             	mov    %ecx,(%eax,%edx,4)
c0001fd5:	90                   	nop
c0001fd6:	c9                   	leave  
c0001fd7:	c3                   	ret    

c0001fd8 <__x86.get_pc_thunk.ax>:
c0001fd8:	8b 04 24             	mov    (%esp),%eax
c0001fdb:	c3                   	ret    

c0001fdc <outb>:
c0001fdc:	55                   	push   %ebp
c0001fdd:	89 e5                	mov    %esp,%ebp
c0001fdf:	83 ec 08             	sub    $0x8,%esp
c0001fe2:	e8 f1 ff ff ff       	call   c0001fd8 <__x86.get_pc_thunk.ax>
c0001fe7:	05 19 00 01 00       	add    $0x10019,%eax
c0001fec:	8b 55 08             	mov    0x8(%ebp),%edx
c0001fef:	8b 45 0c             	mov    0xc(%ebp),%eax
c0001ff2:	66 89 55 fc          	mov    %dx,-0x4(%ebp)
c0001ff6:	88 45 f8             	mov    %al,-0x8(%ebp)
c0001ff9:	0f b6 45 f8          	movzbl -0x8(%ebp),%eax
c0001ffd:	0f b7 55 fc          	movzwl -0x4(%ebp),%edx
c0002001:	ee                   	out    %al,(%dx)
c0002002:	90                   	nop
c0002003:	c9                   	leave  
c0002004:	c3                   	ret    

c0002005 <frequency_set>:
c0002005:	55                   	push   %ebp
c0002006:	89 e5                	mov    %esp,%ebp
c0002008:	57                   	push   %edi
c0002009:	56                   	push   %esi
c000200a:	53                   	push   %ebx
c000200b:	83 ec 14             	sub    $0x14,%esp
c000200e:	e8 c5 ff ff ff       	call   c0001fd8 <__x86.get_pc_thunk.ax>
c0002013:	05 ed ff 00 00       	add    $0xffed,%eax
c0002018:	8b 75 08             	mov    0x8(%ebp),%esi
c000201b:	8b 5d 0c             	mov    0xc(%ebp),%ebx
c000201e:	8b 4d 10             	mov    0x10(%ebp),%ecx
c0002021:	8b 55 14             	mov    0x14(%ebp),%edx
c0002024:	8b 7d 18             	mov    0x18(%ebp),%edi
c0002027:	89 f0                	mov    %esi,%eax
c0002029:	88 45 f0             	mov    %al,-0x10(%ebp)
c000202c:	88 5d ec             	mov    %bl,-0x14(%ebp)
c000202f:	88 4d e8             	mov    %cl,-0x18(%ebp)
c0002032:	88 55 e4             	mov    %dl,-0x1c(%ebp)
c0002035:	89 f8                	mov    %edi,%eax
c0002037:	66 89 45 e0          	mov    %ax,-0x20(%ebp)
c000203b:	0f b6 45 ec          	movzbl -0x14(%ebp),%eax
c000203f:	c1 e0 06             	shl    $0x6,%eax
c0002042:	89 c2                	mov    %eax,%edx
c0002044:	0f b6 45 e8          	movzbl -0x18(%ebp),%eax
c0002048:	c1 e0 04             	shl    $0x4,%eax
c000204b:	09 c2                	or     %eax,%edx
c000204d:	0f b6 45 e4          	movzbl -0x1c(%ebp),%eax
c0002051:	01 c0                	add    %eax,%eax
c0002053:	09 d0                	or     %edx,%eax
c0002055:	0f b6 c0             	movzbl %al,%eax
c0002058:	50                   	push   %eax
c0002059:	6a 43                	push   $0x43
c000205b:	e8 7c ff ff ff       	call   c0001fdc <outb>
c0002060:	83 c4 08             	add    $0x8,%esp
c0002063:	0f b7 45 e0          	movzwl -0x20(%ebp),%eax
c0002067:	0f b6 d0             	movzbl %al,%edx
c000206a:	0f b6 45 f0          	movzbl -0x10(%ebp),%eax
c000206e:	52                   	push   %edx
c000206f:	50                   	push   %eax
c0002070:	e8 67 ff ff ff       	call   c0001fdc <outb>
c0002075:	83 c4 08             	add    $0x8,%esp
c0002078:	0f b7 45 e0          	movzwl -0x20(%ebp),%eax
c000207c:	66 c1 e8 08          	shr    $0x8,%ax
c0002080:	0f b6 d0             	movzbl %al,%edx
c0002083:	0f b6 45 f0          	movzbl -0x10(%ebp),%eax
c0002087:	52                   	push   %edx
c0002088:	50                   	push   %eax
c0002089:	e8 4e ff ff ff       	call   c0001fdc <outb>
c000208e:	83 c4 08             	add    $0x8,%esp
c0002091:	90                   	nop
c0002092:	8d 65 f4             	lea    -0xc(%ebp),%esp
c0002095:	5b                   	pop    %ebx
c0002096:	5e                   	pop    %esi
c0002097:	5f                   	pop    %edi
c0002098:	5d                   	pop    %ebp
c0002099:	c3                   	ret    

c000209a <ticks_to_sleep>:
c000209a:	55                   	push   %ebp
c000209b:	89 e5                	mov    %esp,%ebp
c000209d:	53                   	push   %ebx
c000209e:	83 ec 14             	sub    $0x14,%esp
c00020a1:	e8 4f f9 ff ff       	call   c00019f5 <__x86.get_pc_thunk.bx>
c00020a6:	81 c3 5a ff 00 00    	add    $0xff5a,%ebx
c00020ac:	c7 c0 84 30 01 c0    	mov    $0xc0013084,%eax
c00020b2:	8b 00                	mov    (%eax),%eax
c00020b4:	89 45 f4             	mov    %eax,-0xc(%ebp)
c00020b7:	eb 05                	jmp    c00020be <ticks_to_sleep+0x24>
c00020b9:	e8 c7 27 00 00       	call   c0004885 <thread_yield>
c00020be:	c7 c0 84 30 01 c0    	mov    $0xc0013084,%eax
c00020c4:	8b 00                	mov    (%eax),%eax
c00020c6:	2b 45 f4             	sub    -0xc(%ebp),%eax
c00020c9:	39 45 08             	cmp    %eax,0x8(%ebp)
c00020cc:	77 eb                	ja     c00020b9 <ticks_to_sleep+0x1f>
c00020ce:	90                   	nop
c00020cf:	83 c4 14             	add    $0x14,%esp
c00020d2:	5b                   	pop    %ebx
c00020d3:	5d                   	pop    %ebp
c00020d4:	c3                   	ret    

c00020d5 <mtime_sleep>:
c00020d5:	55                   	push   %ebp
c00020d6:	89 e5                	mov    %esp,%ebp
c00020d8:	83 ec 18             	sub    $0x18,%esp
c00020db:	e8 f8 fe ff ff       	call   c0001fd8 <__x86.get_pc_thunk.ax>
c00020e0:	05 20 ff 00 00       	add    $0xff20,%eax
c00020e5:	8b 45 08             	mov    0x8(%ebp),%eax
c00020e8:	83 c0 09             	add    $0x9,%eax
c00020eb:	ba cd cc cc cc       	mov    $0xcccccccd,%edx
c00020f0:	f7 e2                	mul    %edx
c00020f2:	89 d0                	mov    %edx,%eax
c00020f4:	c1 e8 03             	shr    $0x3,%eax
c00020f7:	89 45 f4             	mov    %eax,-0xc(%ebp)
c00020fa:	83 ec 0c             	sub    $0xc,%esp
c00020fd:	ff 75 f4             	pushl  -0xc(%ebp)
c0002100:	e8 95 ff ff ff       	call   c000209a <ticks_to_sleep>
c0002105:	83 c4 10             	add    $0x10,%esp
c0002108:	90                   	nop
c0002109:	c9                   	leave  
c000210a:	c3                   	ret    

c000210b <intr_timer_handler>:
c000210b:	55                   	push   %ebp
c000210c:	89 e5                	mov    %esp,%ebp
c000210e:	53                   	push   %ebx
c000210f:	83 ec 14             	sub    $0x14,%esp
c0002112:	e8 de f8 ff ff       	call   c00019f5 <__x86.get_pc_thunk.bx>
c0002117:	81 c3 e9 fe 00 00    	add    $0xfee9,%ebx
c000211d:	e8 51 22 00 00       	call   c0004373 <running_thread>
c0002122:	89 45 f4             	mov    %eax,-0xc(%ebp)
c0002125:	8b 45 f4             	mov    -0xc(%ebp),%eax
c0002128:	8b 40 20             	mov    0x20(%eax),%eax
c000212b:	8d 50 01             	lea    0x1(%eax),%edx
c000212e:	8b 45 f4             	mov    -0xc(%ebp),%eax
c0002131:	89 50 20             	mov    %edx,0x20(%eax)
c0002134:	c7 c0 84 30 01 c0    	mov    $0xc0013084,%eax
c000213a:	8b 00                	mov    (%eax),%eax
c000213c:	8d 50 01             	lea    0x1(%eax),%edx
c000213f:	c7 c0 84 30 01 c0    	mov    $0xc0013084,%eax
c0002145:	89 10                	mov    %edx,(%eax)
c0002147:	8b 45 f4             	mov    -0xc(%ebp),%eax
c000214a:	0f b6 40 1d          	movzbl 0x1d(%eax),%eax
c000214e:	84 c0                	test   %al,%al
c0002150:	75 07                	jne    c0002159 <intr_timer_handler+0x4e>
c0002152:	e8 74 25 00 00       	call   c00046cb <schedule>
c0002157:	eb 10                	jmp    c0002169 <intr_timer_handler+0x5e>
c0002159:	8b 45 f4             	mov    -0xc(%ebp),%eax
c000215c:	0f b6 40 1d          	movzbl 0x1d(%eax),%eax
c0002160:	8d 50 ff             	lea    -0x1(%eax),%edx
c0002163:	8b 45 f4             	mov    -0xc(%ebp),%eax
c0002166:	88 50 1d             	mov    %dl,0x1d(%eax)
c0002169:	90                   	nop
c000216a:	83 c4 14             	add    $0x14,%esp
c000216d:	5b                   	pop    %ebx
c000216e:	5d                   	pop    %ebp
c000216f:	c3                   	ret    

c0002170 <timer_init>:
c0002170:	55                   	push   %ebp
c0002171:	89 e5                	mov    %esp,%ebp
c0002173:	53                   	push   %ebx
c0002174:	83 ec 04             	sub    $0x4,%esp
c0002177:	e8 79 f8 ff ff       	call   c00019f5 <__x86.get_pc_thunk.bx>
c000217c:	81 c3 84 fe 00 00    	add    $0xfe84,%ebx
c0002182:	83 ec 0c             	sub    $0xc,%esp
c0002185:	8d 83 51 b3 ff ff    	lea    -0x4caf(%ebx),%eax
c000218b:	50                   	push   %eax
c000218c:	e8 af 05 00 00       	call   c0002740 <put_str>
c0002191:	83 c4 10             	add    $0x10,%esp
c0002194:	83 ec 0c             	sub    $0xc,%esp
c0002197:	68 9b 2e 00 00       	push   $0x2e9b
c000219c:	6a 02                	push   $0x2
c000219e:	6a 03                	push   $0x3
c00021a0:	6a 00                	push   $0x0
c00021a2:	6a 40                	push   $0x40
c00021a4:	e8 5c fe ff ff       	call   c0002005 <frequency_set>
c00021a9:	83 c4 20             	add    $0x20,%esp
c00021ac:	83 ec 08             	sub    $0x8,%esp
c00021af:	8d 83 0b 01 ff ff    	lea    -0xfef5(%ebx),%eax
c00021b5:	50                   	push   %eax
c00021b6:	6a 20                	push   $0x20
c00021b8:	e8 f2 fd ff ff       	call   c0001faf <register_handler>
c00021bd:	83 c4 10             	add    $0x10,%esp
c00021c0:	83 ec 0c             	sub    $0xc,%esp
c00021c3:	8d 83 63 b3 ff ff    	lea    -0x4c9d(%ebx),%eax
c00021c9:	50                   	push   %eax
c00021ca:	e8 71 05 00 00       	call   c0002740 <put_str>
c00021cf:	83 c4 10             	add    $0x10,%esp
c00021d2:	90                   	nop
c00021d3:	8b 5d fc             	mov    -0x4(%ebp),%ebx
c00021d6:	c9                   	leave  
c00021d7:	c3                   	ret    
c00021d8:	66 90                	xchg   %ax,%ax
c00021da:	66 90                	xchg   %ax,%ax
c00021dc:	66 90                	xchg   %ax,%ax
c00021de:	66 90                	xchg   %ax,%ax

c00021e0 <intr_exit>:
c00021e0:	83 c4 04             	add    $0x4,%esp
c00021e3:	61                   	popa   
c00021e4:	0f a9                	pop    %gs
c00021e6:	0f a1                	pop    %fs
c00021e8:	07                   	pop    %es
c00021e9:	1f                   	pop    %ds
c00021ea:	83 c4 04             	add    $0x4,%esp
c00021ed:	cf                   	iret   

c00021ee <intr0x00entry>:
c00021ee:	6a 00                	push   $0x0
c00021f0:	1e                   	push   %ds
c00021f1:	06                   	push   %es
c00021f2:	0f a0                	push   %fs
c00021f4:	0f a8                	push   %gs
c00021f6:	60                   	pusha  
c00021f7:	b0 20                	mov    $0x20,%al
c00021f9:	e6 a0                	out    %al,$0xa0
c00021fb:	e6 20                	out    %al,$0x20
c00021fd:	6a 00                	push   $0x0
c00021ff:	ff 15 80 2e 01 c0    	call   *0xc0012e80
c0002205:	eb d9                	jmp    c00021e0 <intr_exit>

c0002207 <intr0x01entry>:
c0002207:	6a 00                	push   $0x0
c0002209:	1e                   	push   %ds
c000220a:	06                   	push   %es
c000220b:	0f a0                	push   %fs
c000220d:	0f a8                	push   %gs
c000220f:	60                   	pusha  
c0002210:	b0 20                	mov    $0x20,%al
c0002212:	e6 a0                	out    %al,$0xa0
c0002214:	e6 20                	out    %al,$0x20
c0002216:	6a 01                	push   $0x1
c0002218:	ff 15 84 2e 01 c0    	call   *0xc0012e84
c000221e:	eb c0                	jmp    c00021e0 <intr_exit>

c0002220 <intr0x02entry>:
c0002220:	6a 00                	push   $0x0
c0002222:	1e                   	push   %ds
c0002223:	06                   	push   %es
c0002224:	0f a0                	push   %fs
c0002226:	0f a8                	push   %gs
c0002228:	60                   	pusha  
c0002229:	b0 20                	mov    $0x20,%al
c000222b:	e6 a0                	out    %al,$0xa0
c000222d:	e6 20                	out    %al,$0x20
c000222f:	6a 02                	push   $0x2
c0002231:	ff 15 88 2e 01 c0    	call   *0xc0012e88
c0002237:	eb a7                	jmp    c00021e0 <intr_exit>

c0002239 <intr0x03entry>:
c0002239:	6a 00                	push   $0x0
c000223b:	1e                   	push   %ds
c000223c:	06                   	push   %es
c000223d:	0f a0                	push   %fs
c000223f:	0f a8                	push   %gs
c0002241:	60                   	pusha  
c0002242:	b0 20                	mov    $0x20,%al
c0002244:	e6 a0                	out    %al,$0xa0
c0002246:	e6 20                	out    %al,$0x20
c0002248:	6a 03                	push   $0x3
c000224a:	ff 15 8c 2e 01 c0    	call   *0xc0012e8c
c0002250:	eb 8e                	jmp    c00021e0 <intr_exit>

c0002252 <intr0x04entry>:
c0002252:	6a 00                	push   $0x0
c0002254:	1e                   	push   %ds
c0002255:	06                   	push   %es
c0002256:	0f a0                	push   %fs
c0002258:	0f a8                	push   %gs
c000225a:	60                   	pusha  
c000225b:	b0 20                	mov    $0x20,%al
c000225d:	e6 a0                	out    %al,$0xa0
c000225f:	e6 20                	out    %al,$0x20
c0002261:	6a 04                	push   $0x4
c0002263:	ff 15 90 2e 01 c0    	call   *0xc0012e90
c0002269:	e9 72 ff ff ff       	jmp    c00021e0 <intr_exit>

c000226e <intr0x05entry>:
c000226e:	6a 00                	push   $0x0
c0002270:	1e                   	push   %ds
c0002271:	06                   	push   %es
c0002272:	0f a0                	push   %fs
c0002274:	0f a8                	push   %gs
c0002276:	60                   	pusha  
c0002277:	b0 20                	mov    $0x20,%al
c0002279:	e6 a0                	out    %al,$0xa0
c000227b:	e6 20                	out    %al,$0x20
c000227d:	6a 05                	push   $0x5
c000227f:	ff 15 94 2e 01 c0    	call   *0xc0012e94
c0002285:	e9 56 ff ff ff       	jmp    c00021e0 <intr_exit>

c000228a <intr0x06entry>:
c000228a:	6a 00                	push   $0x0
c000228c:	1e                   	push   %ds
c000228d:	06                   	push   %es
c000228e:	0f a0                	push   %fs
c0002290:	0f a8                	push   %gs
c0002292:	60                   	pusha  
c0002293:	b0 20                	mov    $0x20,%al
c0002295:	e6 a0                	out    %al,$0xa0
c0002297:	e6 20                	out    %al,$0x20
c0002299:	6a 06                	push   $0x6
c000229b:	ff 15 98 2e 01 c0    	call   *0xc0012e98
c00022a1:	e9 3a ff ff ff       	jmp    c00021e0 <intr_exit>

c00022a6 <intr0x07entry>:
c00022a6:	6a 00                	push   $0x0
c00022a8:	1e                   	push   %ds
c00022a9:	06                   	push   %es
c00022aa:	0f a0                	push   %fs
c00022ac:	0f a8                	push   %gs
c00022ae:	60                   	pusha  
c00022af:	b0 20                	mov    $0x20,%al
c00022b1:	e6 a0                	out    %al,$0xa0
c00022b3:	e6 20                	out    %al,$0x20
c00022b5:	6a 07                	push   $0x7
c00022b7:	ff 15 9c 2e 01 c0    	call   *0xc0012e9c
c00022bd:	e9 1e ff ff ff       	jmp    c00021e0 <intr_exit>

c00022c2 <intr0x08entry>:
c00022c2:	90                   	nop
c00022c3:	1e                   	push   %ds
c00022c4:	06                   	push   %es
c00022c5:	0f a0                	push   %fs
c00022c7:	0f a8                	push   %gs
c00022c9:	60                   	pusha  
c00022ca:	b0 20                	mov    $0x20,%al
c00022cc:	e6 a0                	out    %al,$0xa0
c00022ce:	e6 20                	out    %al,$0x20
c00022d0:	6a 08                	push   $0x8
c00022d2:	ff 15 a0 2e 01 c0    	call   *0xc0012ea0
c00022d8:	e9 03 ff ff ff       	jmp    c00021e0 <intr_exit>

c00022dd <intr0x09entry>:
c00022dd:	6a 00                	push   $0x0
c00022df:	1e                   	push   %ds
c00022e0:	06                   	push   %es
c00022e1:	0f a0                	push   %fs
c00022e3:	0f a8                	push   %gs
c00022e5:	60                   	pusha  
c00022e6:	b0 20                	mov    $0x20,%al
c00022e8:	e6 a0                	out    %al,$0xa0
c00022ea:	e6 20                	out    %al,$0x20
c00022ec:	6a 09                	push   $0x9
c00022ee:	ff 15 a4 2e 01 c0    	call   *0xc0012ea4
c00022f4:	e9 e7 fe ff ff       	jmp    c00021e0 <intr_exit>

c00022f9 <intr0x0aentry>:
c00022f9:	90                   	nop
c00022fa:	1e                   	push   %ds
c00022fb:	06                   	push   %es
c00022fc:	0f a0                	push   %fs
c00022fe:	0f a8                	push   %gs
c0002300:	60                   	pusha  
c0002301:	b0 20                	mov    $0x20,%al
c0002303:	e6 a0                	out    %al,$0xa0
c0002305:	e6 20                	out    %al,$0x20
c0002307:	6a 0a                	push   $0xa
c0002309:	ff 15 a8 2e 01 c0    	call   *0xc0012ea8
c000230f:	e9 cc fe ff ff       	jmp    c00021e0 <intr_exit>

c0002314 <intr0x0bentry>:
c0002314:	90                   	nop
c0002315:	1e                   	push   %ds
c0002316:	06                   	push   %es
c0002317:	0f a0                	push   %fs
c0002319:	0f a8                	push   %gs
c000231b:	60                   	pusha  
c000231c:	b0 20                	mov    $0x20,%al
c000231e:	e6 a0                	out    %al,$0xa0
c0002320:	e6 20                	out    %al,$0x20
c0002322:	6a 0b                	push   $0xb
c0002324:	ff 15 ac 2e 01 c0    	call   *0xc0012eac
c000232a:	e9 b1 fe ff ff       	jmp    c00021e0 <intr_exit>

c000232f <intr0x0centry>:
c000232f:	6a 00                	push   $0x0
c0002331:	1e                   	push   %ds
c0002332:	06                   	push   %es
c0002333:	0f a0                	push   %fs
c0002335:	0f a8                	push   %gs
c0002337:	60                   	pusha  
c0002338:	b0 20                	mov    $0x20,%al
c000233a:	e6 a0                	out    %al,$0xa0
c000233c:	e6 20                	out    %al,$0x20
c000233e:	6a 0c                	push   $0xc
c0002340:	ff 15 b0 2e 01 c0    	call   *0xc0012eb0
c0002346:	e9 95 fe ff ff       	jmp    c00021e0 <intr_exit>

c000234b <intr0x0dentry>:
c000234b:	90                   	nop
c000234c:	1e                   	push   %ds
c000234d:	06                   	push   %es
c000234e:	0f a0                	push   %fs
c0002350:	0f a8                	push   %gs
c0002352:	60                   	pusha  
c0002353:	b0 20                	mov    $0x20,%al
c0002355:	e6 a0                	out    %al,$0xa0
c0002357:	e6 20                	out    %al,$0x20
c0002359:	6a 0d                	push   $0xd
c000235b:	ff 15 b4 2e 01 c0    	call   *0xc0012eb4
c0002361:	e9 7a fe ff ff       	jmp    c00021e0 <intr_exit>

c0002366 <intr0x0eentry>:
c0002366:	90                   	nop
c0002367:	1e                   	push   %ds
c0002368:	06                   	push   %es
c0002369:	0f a0                	push   %fs
c000236b:	0f a8                	push   %gs
c000236d:	60                   	pusha  
c000236e:	b0 20                	mov    $0x20,%al
c0002370:	e6 a0                	out    %al,$0xa0
c0002372:	e6 20                	out    %al,$0x20
c0002374:	6a 0e                	push   $0xe
c0002376:	ff 15 b8 2e 01 c0    	call   *0xc0012eb8
c000237c:	e9 5f fe ff ff       	jmp    c00021e0 <intr_exit>

c0002381 <intr0x0fentry>:
c0002381:	6a 00                	push   $0x0
c0002383:	1e                   	push   %ds
c0002384:	06                   	push   %es
c0002385:	0f a0                	push   %fs
c0002387:	0f a8                	push   %gs
c0002389:	60                   	pusha  
c000238a:	b0 20                	mov    $0x20,%al
c000238c:	e6 a0                	out    %al,$0xa0
c000238e:	e6 20                	out    %al,$0x20
c0002390:	6a 0f                	push   $0xf
c0002392:	ff 15 bc 2e 01 c0    	call   *0xc0012ebc
c0002398:	e9 43 fe ff ff       	jmp    c00021e0 <intr_exit>

c000239d <intr0x10entry>:
c000239d:	6a 00                	push   $0x0
c000239f:	1e                   	push   %ds
c00023a0:	06                   	push   %es
c00023a1:	0f a0                	push   %fs
c00023a3:	0f a8                	push   %gs
c00023a5:	60                   	pusha  
c00023a6:	b0 20                	mov    $0x20,%al
c00023a8:	e6 a0                	out    %al,$0xa0
c00023aa:	e6 20                	out    %al,$0x20
c00023ac:	6a 10                	push   $0x10
c00023ae:	ff 15 c0 2e 01 c0    	call   *0xc0012ec0
c00023b4:	e9 27 fe ff ff       	jmp    c00021e0 <intr_exit>

c00023b9 <intr0x11entry>:
c00023b9:	90                   	nop
c00023ba:	1e                   	push   %ds
c00023bb:	06                   	push   %es
c00023bc:	0f a0                	push   %fs
c00023be:	0f a8                	push   %gs
c00023c0:	60                   	pusha  
c00023c1:	b0 20                	mov    $0x20,%al
c00023c3:	e6 a0                	out    %al,$0xa0
c00023c5:	e6 20                	out    %al,$0x20
c00023c7:	6a 11                	push   $0x11
c00023c9:	ff 15 c4 2e 01 c0    	call   *0xc0012ec4
c00023cf:	e9 0c fe ff ff       	jmp    c00021e0 <intr_exit>

c00023d4 <intr0x12entry>:
c00023d4:	6a 00                	push   $0x0
c00023d6:	1e                   	push   %ds
c00023d7:	06                   	push   %es
c00023d8:	0f a0                	push   %fs
c00023da:	0f a8                	push   %gs
c00023dc:	60                   	pusha  
c00023dd:	b0 20                	mov    $0x20,%al
c00023df:	e6 a0                	out    %al,$0xa0
c00023e1:	e6 20                	out    %al,$0x20
c00023e3:	6a 12                	push   $0x12
c00023e5:	ff 15 c8 2e 01 c0    	call   *0xc0012ec8
c00023eb:	e9 f0 fd ff ff       	jmp    c00021e0 <intr_exit>

c00023f0 <intr0x13entry>:
c00023f0:	6a 00                	push   $0x0
c00023f2:	1e                   	push   %ds
c00023f3:	06                   	push   %es
c00023f4:	0f a0                	push   %fs
c00023f6:	0f a8                	push   %gs
c00023f8:	60                   	pusha  
c00023f9:	b0 20                	mov    $0x20,%al
c00023fb:	e6 a0                	out    %al,$0xa0
c00023fd:	e6 20                	out    %al,$0x20
c00023ff:	6a 13                	push   $0x13
c0002401:	ff 15 cc 2e 01 c0    	call   *0xc0012ecc
c0002407:	e9 d4 fd ff ff       	jmp    c00021e0 <intr_exit>

c000240c <intr0x14entry>:
c000240c:	6a 00                	push   $0x0
c000240e:	1e                   	push   %ds
c000240f:	06                   	push   %es
c0002410:	0f a0                	push   %fs
c0002412:	0f a8                	push   %gs
c0002414:	60                   	pusha  
c0002415:	b0 20                	mov    $0x20,%al
c0002417:	e6 a0                	out    %al,$0xa0
c0002419:	e6 20                	out    %al,$0x20
c000241b:	6a 14                	push   $0x14
c000241d:	ff 15 d0 2e 01 c0    	call   *0xc0012ed0
c0002423:	e9 b8 fd ff ff       	jmp    c00021e0 <intr_exit>

c0002428 <intr0x15entry>:
c0002428:	6a 00                	push   $0x0
c000242a:	1e                   	push   %ds
c000242b:	06                   	push   %es
c000242c:	0f a0                	push   %fs
c000242e:	0f a8                	push   %gs
c0002430:	60                   	pusha  
c0002431:	b0 20                	mov    $0x20,%al
c0002433:	e6 a0                	out    %al,$0xa0
c0002435:	e6 20                	out    %al,$0x20
c0002437:	6a 15                	push   $0x15
c0002439:	ff 15 d4 2e 01 c0    	call   *0xc0012ed4
c000243f:	e9 9c fd ff ff       	jmp    c00021e0 <intr_exit>

c0002444 <intr0x16entry>:
c0002444:	6a 00                	push   $0x0
c0002446:	1e                   	push   %ds
c0002447:	06                   	push   %es
c0002448:	0f a0                	push   %fs
c000244a:	0f a8                	push   %gs
c000244c:	60                   	pusha  
c000244d:	b0 20                	mov    $0x20,%al
c000244f:	e6 a0                	out    %al,$0xa0
c0002451:	e6 20                	out    %al,$0x20
c0002453:	6a 16                	push   $0x16
c0002455:	ff 15 d8 2e 01 c0    	call   *0xc0012ed8
c000245b:	e9 80 fd ff ff       	jmp    c00021e0 <intr_exit>

c0002460 <intr0x17entry>:
c0002460:	6a 00                	push   $0x0
c0002462:	1e                   	push   %ds
c0002463:	06                   	push   %es
c0002464:	0f a0                	push   %fs
c0002466:	0f a8                	push   %gs
c0002468:	60                   	pusha  
c0002469:	b0 20                	mov    $0x20,%al
c000246b:	e6 a0                	out    %al,$0xa0
c000246d:	e6 20                	out    %al,$0x20
c000246f:	6a 17                	push   $0x17
c0002471:	ff 15 dc 2e 01 c0    	call   *0xc0012edc
c0002477:	e9 64 fd ff ff       	jmp    c00021e0 <intr_exit>

c000247c <intr0x18entry>:
c000247c:	90                   	nop
c000247d:	1e                   	push   %ds
c000247e:	06                   	push   %es
c000247f:	0f a0                	push   %fs
c0002481:	0f a8                	push   %gs
c0002483:	60                   	pusha  
c0002484:	b0 20                	mov    $0x20,%al
c0002486:	e6 a0                	out    %al,$0xa0
c0002488:	e6 20                	out    %al,$0x20
c000248a:	6a 18                	push   $0x18
c000248c:	ff 15 e0 2e 01 c0    	call   *0xc0012ee0
c0002492:	e9 49 fd ff ff       	jmp    c00021e0 <intr_exit>

c0002497 <intr0x19entry>:
c0002497:	6a 00                	push   $0x0
c0002499:	1e                   	push   %ds
c000249a:	06                   	push   %es
c000249b:	0f a0                	push   %fs
c000249d:	0f a8                	push   %gs
c000249f:	60                   	pusha  
c00024a0:	b0 20                	mov    $0x20,%al
c00024a2:	e6 a0                	out    %al,$0xa0
c00024a4:	e6 20                	out    %al,$0x20
c00024a6:	6a 19                	push   $0x19
c00024a8:	ff 15 e4 2e 01 c0    	call   *0xc0012ee4
c00024ae:	e9 2d fd ff ff       	jmp    c00021e0 <intr_exit>

c00024b3 <intr0x1aentry>:
c00024b3:	90                   	nop
c00024b4:	1e                   	push   %ds
c00024b5:	06                   	push   %es
c00024b6:	0f a0                	push   %fs
c00024b8:	0f a8                	push   %gs
c00024ba:	60                   	pusha  
c00024bb:	b0 20                	mov    $0x20,%al
c00024bd:	e6 a0                	out    %al,$0xa0
c00024bf:	e6 20                	out    %al,$0x20
c00024c1:	6a 1a                	push   $0x1a
c00024c3:	ff 15 e8 2e 01 c0    	call   *0xc0012ee8
c00024c9:	e9 12 fd ff ff       	jmp    c00021e0 <intr_exit>

c00024ce <intr0x1bentry>:
c00024ce:	90                   	nop
c00024cf:	1e                   	push   %ds
c00024d0:	06                   	push   %es
c00024d1:	0f a0                	push   %fs
c00024d3:	0f a8                	push   %gs
c00024d5:	60                   	pusha  
c00024d6:	b0 20                	mov    $0x20,%al
c00024d8:	e6 a0                	out    %al,$0xa0
c00024da:	e6 20                	out    %al,$0x20
c00024dc:	6a 1b                	push   $0x1b
c00024de:	ff 15 ec 2e 01 c0    	call   *0xc0012eec
c00024e4:	e9 f7 fc ff ff       	jmp    c00021e0 <intr_exit>

c00024e9 <intr0x1centry>:
c00024e9:	6a 00                	push   $0x0
c00024eb:	1e                   	push   %ds
c00024ec:	06                   	push   %es
c00024ed:	0f a0                	push   %fs
c00024ef:	0f a8                	push   %gs
c00024f1:	60                   	pusha  
c00024f2:	b0 20                	mov    $0x20,%al
c00024f4:	e6 a0                	out    %al,$0xa0
c00024f6:	e6 20                	out    %al,$0x20
c00024f8:	6a 1c                	push   $0x1c
c00024fa:	ff 15 f0 2e 01 c0    	call   *0xc0012ef0
c0002500:	e9 db fc ff ff       	jmp    c00021e0 <intr_exit>

c0002505 <intr0x1dentry>:
c0002505:	90                   	nop
c0002506:	1e                   	push   %ds
c0002507:	06                   	push   %es
c0002508:	0f a0                	push   %fs
c000250a:	0f a8                	push   %gs
c000250c:	60                   	pusha  
c000250d:	b0 20                	mov    $0x20,%al
c000250f:	e6 a0                	out    %al,$0xa0
c0002511:	e6 20                	out    %al,$0x20
c0002513:	6a 1d                	push   $0x1d
c0002515:	ff 15 f4 2e 01 c0    	call   *0xc0012ef4
c000251b:	e9 c0 fc ff ff       	jmp    c00021e0 <intr_exit>

c0002520 <intr0x1eentry>:
c0002520:	90                   	nop
c0002521:	1e                   	push   %ds
c0002522:	06                   	push   %es
c0002523:	0f a0                	push   %fs
c0002525:	0f a8                	push   %gs
c0002527:	60                   	pusha  
c0002528:	b0 20                	mov    $0x20,%al
c000252a:	e6 a0                	out    %al,$0xa0
c000252c:	e6 20                	out    %al,$0x20
c000252e:	6a 1e                	push   $0x1e
c0002530:	ff 15 f8 2e 01 c0    	call   *0xc0012ef8
c0002536:	e9 a5 fc ff ff       	jmp    c00021e0 <intr_exit>

c000253b <intr0x1fentry>:
c000253b:	6a 00                	push   $0x0
c000253d:	1e                   	push   %ds
c000253e:	06                   	push   %es
c000253f:	0f a0                	push   %fs
c0002541:	0f a8                	push   %gs
c0002543:	60                   	pusha  
c0002544:	b0 20                	mov    $0x20,%al
c0002546:	e6 a0                	out    %al,$0xa0
c0002548:	e6 20                	out    %al,$0x20
c000254a:	6a 1f                	push   $0x1f
c000254c:	ff 15 fc 2e 01 c0    	call   *0xc0012efc
c0002552:	e9 89 fc ff ff       	jmp    c00021e0 <intr_exit>

c0002557 <intr0x20entry>:
c0002557:	6a 00                	push   $0x0
c0002559:	1e                   	push   %ds
c000255a:	06                   	push   %es
c000255b:	0f a0                	push   %fs
c000255d:	0f a8                	push   %gs
c000255f:	60                   	pusha  
c0002560:	b0 20                	mov    $0x20,%al
c0002562:	e6 a0                	out    %al,$0xa0
c0002564:	e6 20                	out    %al,$0x20
c0002566:	6a 20                	push   $0x20
c0002568:	ff 15 00 2f 01 c0    	call   *0xc0012f00
c000256e:	e9 6d fc ff ff       	jmp    c00021e0 <intr_exit>

c0002573 <intr0x21entry>:
c0002573:	6a 00                	push   $0x0
c0002575:	1e                   	push   %ds
c0002576:	06                   	push   %es
c0002577:	0f a0                	push   %fs
c0002579:	0f a8                	push   %gs
c000257b:	60                   	pusha  
c000257c:	b0 20                	mov    $0x20,%al
c000257e:	e6 a0                	out    %al,$0xa0
c0002580:	e6 20                	out    %al,$0x20
c0002582:	6a 21                	push   $0x21
c0002584:	ff 15 04 2f 01 c0    	call   *0xc0012f04
c000258a:	e9 51 fc ff ff       	jmp    c00021e0 <intr_exit>

c000258f <intr0x22entry>:
c000258f:	6a 00                	push   $0x0
c0002591:	1e                   	push   %ds
c0002592:	06                   	push   %es
c0002593:	0f a0                	push   %fs
c0002595:	0f a8                	push   %gs
c0002597:	60                   	pusha  
c0002598:	b0 20                	mov    $0x20,%al
c000259a:	e6 a0                	out    %al,$0xa0
c000259c:	e6 20                	out    %al,$0x20
c000259e:	6a 22                	push   $0x22
c00025a0:	ff 15 08 2f 01 c0    	call   *0xc0012f08
c00025a6:	e9 35 fc ff ff       	jmp    c00021e0 <intr_exit>

c00025ab <intr0x23entry>:
c00025ab:	6a 00                	push   $0x0
c00025ad:	1e                   	push   %ds
c00025ae:	06                   	push   %es
c00025af:	0f a0                	push   %fs
c00025b1:	0f a8                	push   %gs
c00025b3:	60                   	pusha  
c00025b4:	b0 20                	mov    $0x20,%al
c00025b6:	e6 a0                	out    %al,$0xa0
c00025b8:	e6 20                	out    %al,$0x20
c00025ba:	6a 23                	push   $0x23
c00025bc:	ff 15 0c 2f 01 c0    	call   *0xc0012f0c
c00025c2:	e9 19 fc ff ff       	jmp    c00021e0 <intr_exit>

c00025c7 <intr0x24entry>:
c00025c7:	6a 00                	push   $0x0
c00025c9:	1e                   	push   %ds
c00025ca:	06                   	push   %es
c00025cb:	0f a0                	push   %fs
c00025cd:	0f a8                	push   %gs
c00025cf:	60                   	pusha  
c00025d0:	b0 20                	mov    $0x20,%al
c00025d2:	e6 a0                	out    %al,$0xa0
c00025d4:	e6 20                	out    %al,$0x20
c00025d6:	6a 24                	push   $0x24
c00025d8:	ff 15 10 2f 01 c0    	call   *0xc0012f10
c00025de:	e9 fd fb ff ff       	jmp    c00021e0 <intr_exit>

c00025e3 <intr0x25entry>:
c00025e3:	6a 00                	push   $0x0
c00025e5:	1e                   	push   %ds
c00025e6:	06                   	push   %es
c00025e7:	0f a0                	push   %fs
c00025e9:	0f a8                	push   %gs
c00025eb:	60                   	pusha  
c00025ec:	b0 20                	mov    $0x20,%al
c00025ee:	e6 a0                	out    %al,$0xa0
c00025f0:	e6 20                	out    %al,$0x20
c00025f2:	6a 25                	push   $0x25
c00025f4:	ff 15 14 2f 01 c0    	call   *0xc0012f14
c00025fa:	e9 e1 fb ff ff       	jmp    c00021e0 <intr_exit>

c00025ff <intr0x26entry>:
c00025ff:	6a 00                	push   $0x0
c0002601:	1e                   	push   %ds
c0002602:	06                   	push   %es
c0002603:	0f a0                	push   %fs
c0002605:	0f a8                	push   %gs
c0002607:	60                   	pusha  
c0002608:	b0 20                	mov    $0x20,%al
c000260a:	e6 a0                	out    %al,$0xa0
c000260c:	e6 20                	out    %al,$0x20
c000260e:	6a 26                	push   $0x26
c0002610:	ff 15 18 2f 01 c0    	call   *0xc0012f18
c0002616:	e9 c5 fb ff ff       	jmp    c00021e0 <intr_exit>

c000261b <intr0x27entry>:
c000261b:	6a 00                	push   $0x0
c000261d:	1e                   	push   %ds
c000261e:	06                   	push   %es
c000261f:	0f a0                	push   %fs
c0002621:	0f a8                	push   %gs
c0002623:	60                   	pusha  
c0002624:	b0 20                	mov    $0x20,%al
c0002626:	e6 a0                	out    %al,$0xa0
c0002628:	e6 20                	out    %al,$0x20
c000262a:	6a 27                	push   $0x27
c000262c:	ff 15 1c 2f 01 c0    	call   *0xc0012f1c
c0002632:	e9 a9 fb ff ff       	jmp    c00021e0 <intr_exit>

c0002637 <intr0x28entry>:
c0002637:	6a 00                	push   $0x0
c0002639:	1e                   	push   %ds
c000263a:	06                   	push   %es
c000263b:	0f a0                	push   %fs
c000263d:	0f a8                	push   %gs
c000263f:	60                   	pusha  
c0002640:	b0 20                	mov    $0x20,%al
c0002642:	e6 a0                	out    %al,$0xa0
c0002644:	e6 20                	out    %al,$0x20
c0002646:	6a 28                	push   $0x28
c0002648:	ff 15 20 2f 01 c0    	call   *0xc0012f20
c000264e:	e9 8d fb ff ff       	jmp    c00021e0 <intr_exit>

c0002653 <intr0x29entry>:
c0002653:	6a 00                	push   $0x0
c0002655:	1e                   	push   %ds
c0002656:	06                   	push   %es
c0002657:	0f a0                	push   %fs
c0002659:	0f a8                	push   %gs
c000265b:	60                   	pusha  
c000265c:	b0 20                	mov    $0x20,%al
c000265e:	e6 a0                	out    %al,$0xa0
c0002660:	e6 20                	out    %al,$0x20
c0002662:	6a 29                	push   $0x29
c0002664:	ff 15 24 2f 01 c0    	call   *0xc0012f24
c000266a:	e9 71 fb ff ff       	jmp    c00021e0 <intr_exit>

c000266f <intr0x2aentry>:
c000266f:	6a 00                	push   $0x0
c0002671:	1e                   	push   %ds
c0002672:	06                   	push   %es
c0002673:	0f a0                	push   %fs
c0002675:	0f a8                	push   %gs
c0002677:	60                   	pusha  
c0002678:	b0 20                	mov    $0x20,%al
c000267a:	e6 a0                	out    %al,$0xa0
c000267c:	e6 20                	out    %al,$0x20
c000267e:	6a 2a                	push   $0x2a
c0002680:	ff 15 28 2f 01 c0    	call   *0xc0012f28
c0002686:	e9 55 fb ff ff       	jmp    c00021e0 <intr_exit>

c000268b <intr0x2bentry>:
c000268b:	6a 00                	push   $0x0
c000268d:	1e                   	push   %ds
c000268e:	06                   	push   %es
c000268f:	0f a0                	push   %fs
c0002691:	0f a8                	push   %gs
c0002693:	60                   	pusha  
c0002694:	b0 20                	mov    $0x20,%al
c0002696:	e6 a0                	out    %al,$0xa0
c0002698:	e6 20                	out    %al,$0x20
c000269a:	6a 2b                	push   $0x2b
c000269c:	ff 15 2c 2f 01 c0    	call   *0xc0012f2c
c00026a2:	e9 39 fb ff ff       	jmp    c00021e0 <intr_exit>

c00026a7 <intr0x2centry>:
c00026a7:	6a 00                	push   $0x0
c00026a9:	1e                   	push   %ds
c00026aa:	06                   	push   %es
c00026ab:	0f a0                	push   %fs
c00026ad:	0f a8                	push   %gs
c00026af:	60                   	pusha  
c00026b0:	b0 20                	mov    $0x20,%al
c00026b2:	e6 a0                	out    %al,$0xa0
c00026b4:	e6 20                	out    %al,$0x20
c00026b6:	6a 2c                	push   $0x2c
c00026b8:	ff 15 30 2f 01 c0    	call   *0xc0012f30
c00026be:	e9 1d fb ff ff       	jmp    c00021e0 <intr_exit>

c00026c3 <intr0x2dentry>:
c00026c3:	6a 00                	push   $0x0
c00026c5:	1e                   	push   %ds
c00026c6:	06                   	push   %es
c00026c7:	0f a0                	push   %fs
c00026c9:	0f a8                	push   %gs
c00026cb:	60                   	pusha  
c00026cc:	b0 20                	mov    $0x20,%al
c00026ce:	e6 a0                	out    %al,$0xa0
c00026d0:	e6 20                	out    %al,$0x20
c00026d2:	6a 2d                	push   $0x2d
c00026d4:	ff 15 34 2f 01 c0    	call   *0xc0012f34
c00026da:	e9 01 fb ff ff       	jmp    c00021e0 <intr_exit>

c00026df <intr0x2eentry>:
c00026df:	6a 00                	push   $0x0
c00026e1:	1e                   	push   %ds
c00026e2:	06                   	push   %es
c00026e3:	0f a0                	push   %fs
c00026e5:	0f a8                	push   %gs
c00026e7:	60                   	pusha  
c00026e8:	b0 20                	mov    $0x20,%al
c00026ea:	e6 a0                	out    %al,$0xa0
c00026ec:	e6 20                	out    %al,$0x20
c00026ee:	6a 2e                	push   $0x2e
c00026f0:	ff 15 38 2f 01 c0    	call   *0xc0012f38
c00026f6:	e9 e5 fa ff ff       	jmp    c00021e0 <intr_exit>

c00026fb <intr0x2fentry>:
c00026fb:	6a 00                	push   $0x0
c00026fd:	1e                   	push   %ds
c00026fe:	06                   	push   %es
c00026ff:	0f a0                	push   %fs
c0002701:	0f a8                	push   %gs
c0002703:	60                   	pusha  
c0002704:	b0 20                	mov    $0x20,%al
c0002706:	e6 a0                	out    %al,$0xa0
c0002708:	e6 20                	out    %al,$0x20
c000270a:	6a 2f                	push   $0x2f
c000270c:	ff 15 3c 2f 01 c0    	call   *0xc0012f3c
c0002712:	e9 c9 fa ff ff       	jmp    c00021e0 <intr_exit>

c0002717 <syscall_handler>:
c0002717:	6a 00                	push   $0x0
c0002719:	1e                   	push   %ds
c000271a:	06                   	push   %es
c000271b:	0f a0                	push   %fs
c000271d:	0f a8                	push   %gs
c000271f:	60                   	pusha  
c0002720:	68 80 00 00 00       	push   $0x80
c0002725:	52                   	push   %edx
c0002726:	51                   	push   %ecx
c0002727:	53                   	push   %ebx
c0002728:	ff 14 85 a0 32 01 c0 	call   *-0x3ffecd60(,%eax,4)
c000272f:	83 c4 0c             	add    $0xc,%esp
c0002732:	89 44 24 20          	mov    %eax,0x20(%esp)
c0002736:	e9 a5 fa ff ff       	jmp    c00021e0 <intr_exit>
c000273b:	66 90                	xchg   %ax,%ax
c000273d:	66 90                	xchg   %ax,%ax
c000273f:	90                   	nop

c0002740 <put_str>:
c0002740:	53                   	push   %ebx
c0002741:	51                   	push   %ecx
c0002742:	31 c9                	xor    %ecx,%ecx
c0002744:	8b 5c 24 0c          	mov    0xc(%esp),%ebx

c0002748 <put_str.goon>:
c0002748:	8a 0b                	mov    (%ebx),%cl
c000274a:	80 f9 00             	cmp    $0x0,%cl
c000274d:	74 0c                	je     c000275b <put_str.str_over>
c000274f:	51                   	push   %ecx
c0002750:	e8 09 00 00 00       	call   c000275e <put_char>
c0002755:	83 c4 04             	add    $0x4,%esp
c0002758:	43                   	inc    %ebx
c0002759:	eb ed                	jmp    c0002748 <put_str.goon>

c000275b <put_str.str_over>:
c000275b:	59                   	pop    %ecx
c000275c:	5b                   	pop    %ebx
c000275d:	c3                   	ret    

c000275e <put_char>:
c000275e:	60                   	pusha  
c000275f:	66 b8 18 00          	mov    $0x18,%ax
c0002763:	8e e8                	mov    %eax,%gs
c0002765:	66 ba d4 03          	mov    $0x3d4,%dx
c0002769:	b0 0e                	mov    $0xe,%al
c000276b:	ee                   	out    %al,(%dx)
c000276c:	66 ba d5 03          	mov    $0x3d5,%dx
c0002770:	ec                   	in     (%dx),%al
c0002771:	88 c4                	mov    %al,%ah
c0002773:	66 ba d4 03          	mov    $0x3d4,%dx
c0002777:	b0 0f                	mov    $0xf,%al
c0002779:	ee                   	out    %al,(%dx)
c000277a:	66 ba d5 03          	mov    $0x3d5,%dx
c000277e:	ec                   	in     (%dx),%al
c000277f:	66 89 c3             	mov    %ax,%bx
c0002782:	8b 4c 24 24          	mov    0x24(%esp),%ecx
c0002786:	80 f9 0d             	cmp    $0xd,%cl
c0002789:	74 3c                	je     c00027c7 <put_char.is_carriage_return>
c000278b:	80 f9 0a             	cmp    $0xa,%cl
c000278e:	74 37                	je     c00027c7 <put_char.is_carriage_return>
c0002790:	80 f9 08             	cmp    $0x8,%cl
c0002793:	74 02                	je     c0002797 <put_char.is_backspace>
c0002795:	eb 16                	jmp    c00027ad <put_char.put_other>

c0002797 <put_char.is_backspace>:
c0002797:	66 4b                	dec    %bx
c0002799:	66 d1 e3             	shl    %bx
c000279c:	65 67 c6 07 20       	movb   $0x20,%gs:(%bx)
c00027a1:	66 43                	inc    %bx
c00027a3:	65 67 c6 07 07       	movb   $0x7,%gs:(%bx)
c00027a8:	66 d1 eb             	shr    %bx
c00027ab:	eb 60                	jmp    c000280d <put_char.set_cursor>

c00027ad <put_char.put_other>:
c00027ad:	66 d1 e3             	shl    %bx
c00027b0:	65 67 88 0f          	mov    %cl,%gs:(%bx)
c00027b4:	66 43                	inc    %bx
c00027b6:	65 67 c6 07 07       	movb   $0x7,%gs:(%bx)
c00027bb:	66 d1 eb             	shr    %bx
c00027be:	66 43                	inc    %bx
c00027c0:	66 81 fb d0 07       	cmp    $0x7d0,%bx
c00027c5:	7c 46                	jl     c000280d <put_char.set_cursor>

c00027c7 <put_char.is_carriage_return>:
c00027c7:	66 31 d2             	xor    %dx,%dx
c00027ca:	66 89 d8             	mov    %bx,%ax
c00027cd:	66 be 50 00          	mov    $0x50,%si
c00027d1:	66 f7 f6             	div    %si
c00027d4:	66 29 d3             	sub    %dx,%bx

c00027d7 <put_char.is_carriage_return_end>:
c00027d7:	66 83 c3 50          	add    $0x50,%bx
c00027db:	66 81 fb d0 07       	cmp    $0x7d0,%bx

c00027e0 <put_char.is_line_feed_end>:
c00027e0:	7c 2b                	jl     c000280d <put_char.set_cursor>

c00027e2 <put_char.roll_screen>:
c00027e2:	fc                   	cld    
c00027e3:	b9 c0 03 00 00       	mov    $0x3c0,%ecx
c00027e8:	be a0 80 0b c0       	mov    $0xc00b80a0,%esi
c00027ed:	bf 00 80 0b c0       	mov    $0xc00b8000,%edi
c00027f2:	f3 a5                	rep movsl %ds:(%esi),%es:(%edi)
c00027f4:	bb 00 0f 00 00       	mov    $0xf00,%ebx
c00027f9:	b9 50 00 00 00       	mov    $0x50,%ecx

c00027fe <put_char.cls>:
c00027fe:	65 66 c7 03 20 07    	movw   $0x720,%gs:(%ebx)
c0002804:	83 c3 02             	add    $0x2,%ebx
c0002807:	e2 f5                	loop   c00027fe <put_char.cls>
c0002809:	66 bb 80 07          	mov    $0x780,%bx

c000280d <put_char.set_cursor>:
c000280d:	66 ba d4 03          	mov    $0x3d4,%dx
c0002811:	b0 0e                	mov    $0xe,%al
c0002813:	ee                   	out    %al,(%dx)
c0002814:	66 ba d5 03          	mov    $0x3d5,%dx
c0002818:	88 f8                	mov    %bh,%al
c000281a:	ee                   	out    %al,(%dx)
c000281b:	66 ba d4 03          	mov    $0x3d4,%dx
c000281f:	b0 0f                	mov    $0xf,%al
c0002821:	ee                   	out    %al,(%dx)
c0002822:	66 ba d5 03          	mov    $0x3d5,%dx
c0002826:	88 d8                	mov    %bl,%al
c0002828:	ee                   	out    %al,(%dx)

c0002829 <put_char.put_char_done>:
c0002829:	61                   	popa   
c000282a:	c3                   	ret    

c000282b <cls_screen>:
c000282b:	60                   	pusha  
c000282c:	66 b8 18 00          	mov    $0x18,%ax
c0002830:	8e e8                	mov    %eax,%gs
c0002832:	bb 00 00 00 00       	mov    $0x0,%ebx
c0002837:	b9 d0 07 00 00       	mov    $0x7d0,%ecx

c000283c <cls_screen.cls>:
c000283c:	65 66 c7 03 20 07    	movw   $0x720,%gs:(%ebx)
c0002842:	83 c3 02             	add    $0x2,%ebx
c0002845:	e2 f5                	loop   c000283c <cls_screen.cls>
c0002847:	bb 00 00 00 00       	mov    $0x0,%ebx

c000284c <cls_screen.set_cursor>:
c000284c:	66 ba d4 03          	mov    $0x3d4,%dx
c0002850:	b0 0e                	mov    $0xe,%al
c0002852:	ee                   	out    %al,(%dx)
c0002853:	66 ba d5 03          	mov    $0x3d5,%dx
c0002857:	88 f8                	mov    %bh,%al
c0002859:	ee                   	out    %al,(%dx)
c000285a:	66 ba d4 03          	mov    $0x3d4,%dx
c000285e:	b0 0f                	mov    $0xf,%al
c0002860:	ee                   	out    %al,(%dx)
c0002861:	66 ba d5 03          	mov    $0x3d5,%dx
c0002865:	88 d8                	mov    %bl,%al
c0002867:	ee                   	out    %al,(%dx)
c0002868:	61                   	popa   
c0002869:	c3                   	ret    

c000286a <put_int>:
c000286a:	60                   	pusha  
c000286b:	89 e5                	mov    %esp,%ebp
c000286d:	8b 45 24             	mov    0x24(%ebp),%eax
c0002870:	89 c2                	mov    %eax,%edx
c0002872:	bf 07 00 00 00       	mov    $0x7,%edi
c0002877:	b9 08 00 00 00       	mov    $0x8,%ecx
c000287c:	bb e0 20 01 c0       	mov    $0xc00120e0,%ebx

c0002881 <put_int.16based_4bits>:
c0002881:	83 e2 0f             	and    $0xf,%edx
c0002884:	83 fa 09             	cmp    $0x9,%edx
c0002887:	7f 05                	jg     c000288e <put_int.is_A2F>
c0002889:	83 c2 30             	add    $0x30,%edx
c000288c:	eb 06                	jmp    c0002894 <put_int.store>

c000288e <put_int.is_A2F>:
c000288e:	83 ea 0a             	sub    $0xa,%edx
c0002891:	83 c2 41             	add    $0x41,%edx

c0002894 <put_int.store>:
c0002894:	88 14 3b             	mov    %dl,(%ebx,%edi,1)
c0002897:	4f                   	dec    %edi
c0002898:	c1 e8 04             	shr    $0x4,%eax
c000289b:	89 c2                	mov    %eax,%edx
c000289d:	e2 e2                	loop   c0002881 <put_int.16based_4bits>

c000289f <put_int.ready_to_print>:
c000289f:	47                   	inc    %edi

c00028a0 <put_int.skip_prefix_0>:
c00028a0:	83 ff 08             	cmp    $0x8,%edi
c00028a3:	74 0f                	je     c00028b4 <put_int.full0>

c00028a5 <put_int.go_on_skip>:
c00028a5:	8a 8f e0 20 01 c0    	mov    -0x3ffedf20(%edi),%cl
c00028ab:	47                   	inc    %edi
c00028ac:	80 f9 30             	cmp    $0x30,%cl
c00028af:	74 ef                	je     c00028a0 <put_int.skip_prefix_0>
c00028b1:	4f                   	dec    %edi
c00028b2:	eb 02                	jmp    c00028b6 <put_int.put_each_num>

c00028b4 <put_int.full0>:
c00028b4:	b1 30                	mov    $0x30,%cl

c00028b6 <put_int.put_each_num>:
c00028b6:	51                   	push   %ecx
c00028b7:	e8 a2 fe ff ff       	call   c000275e <put_char>
c00028bc:	83 c4 04             	add    $0x4,%esp
c00028bf:	47                   	inc    %edi
c00028c0:	8a 8f e0 20 01 c0    	mov    -0x3ffedf20(%edi),%cl
c00028c6:	83 ff 08             	cmp    $0x8,%edi
c00028c9:	7c eb                	jl     c00028b6 <put_int.put_each_num>
c00028cb:	61                   	popa   
c00028cc:	c3                   	ret    

c00028cd <set_cursor>:
c00028cd:	60                   	pusha  
c00028ce:	66 8b 5c 24 24       	mov    0x24(%esp),%bx
c00028d3:	66 ba d4 03          	mov    $0x3d4,%dx
c00028d7:	b0 0e                	mov    $0xe,%al
c00028d9:	ee                   	out    %al,(%dx)
c00028da:	66 ba d5 03          	mov    $0x3d5,%dx
c00028de:	88 f8                	mov    %bh,%al
c00028e0:	ee                   	out    %al,(%dx)
c00028e1:	66 ba d4 03          	mov    $0x3d4,%dx
c00028e5:	b0 0f                	mov    $0xf,%al
c00028e7:	ee                   	out    %al,(%dx)
c00028e8:	66 ba d5 03          	mov    $0x3d5,%dx
c00028ec:	88 d8                	mov    %bl,%al
c00028ee:	ee                   	out    %al,(%dx)
c00028ef:	61                   	popa   
c00028f0:	c3                   	ret    

c00028f1 <panic_spin>:
c00028f1:	55                   	push   %ebp
c00028f2:	89 e5                	mov    %esp,%ebp
c00028f4:	53                   	push   %ebx
c00028f5:	83 ec 04             	sub    $0x4,%esp
c00028f8:	e8 f8 f0 ff ff       	call   c00019f5 <__x86.get_pc_thunk.bx>
c00028fd:	81 c3 03 f7 00 00    	add    $0xf703,%ebx
c0002903:	e8 25 f6 ff ff       	call   c0001f2d <intr_disable>
c0002908:	83 ec 0c             	sub    $0xc,%esp
c000290b:	8d 83 74 b3 ff ff    	lea    -0x4c8c(%ebx),%eax
c0002911:	50                   	push   %eax
c0002912:	e8 29 fe ff ff       	call   c0002740 <put_str>
c0002917:	83 c4 10             	add    $0x10,%esp
c000291a:	83 ec 0c             	sub    $0xc,%esp
c000291d:	8d 83 8a b3 ff ff    	lea    -0x4c76(%ebx),%eax
c0002923:	50                   	push   %eax
c0002924:	e8 17 fe ff ff       	call   c0002740 <put_str>
c0002929:	83 c4 10             	add    $0x10,%esp
c000292c:	83 ec 0c             	sub    $0xc,%esp
c000292f:	ff 75 08             	pushl  0x8(%ebp)
c0002932:	e8 09 fe ff ff       	call   c0002740 <put_str>
c0002937:	83 c4 10             	add    $0x10,%esp
c000293a:	83 ec 0c             	sub    $0xc,%esp
c000293d:	8d 83 94 b3 ff ff    	lea    -0x4c6c(%ebx),%eax
c0002943:	50                   	push   %eax
c0002944:	e8 f7 fd ff ff       	call   c0002740 <put_str>
c0002949:	83 c4 10             	add    $0x10,%esp
c000294c:	83 ec 0c             	sub    $0xc,%esp
c000294f:	8d 83 96 b3 ff ff    	lea    -0x4c6a(%ebx),%eax
c0002955:	50                   	push   %eax
c0002956:	e8 e5 fd ff ff       	call   c0002740 <put_str>
c000295b:	83 c4 10             	add    $0x10,%esp
c000295e:	8b 45 0c             	mov    0xc(%ebp),%eax
c0002961:	83 ec 0c             	sub    $0xc,%esp
c0002964:	50                   	push   %eax
c0002965:	e8 00 ff ff ff       	call   c000286a <put_int>
c000296a:	83 c4 10             	add    $0x10,%esp
c000296d:	83 ec 0c             	sub    $0xc,%esp
c0002970:	8d 83 94 b3 ff ff    	lea    -0x4c6c(%ebx),%eax
c0002976:	50                   	push   %eax
c0002977:	e8 c4 fd ff ff       	call   c0002740 <put_str>
c000297c:	83 c4 10             	add    $0x10,%esp
c000297f:	83 ec 0c             	sub    $0xc,%esp
c0002982:	8d 83 9e b3 ff ff    	lea    -0x4c62(%ebx),%eax
c0002988:	50                   	push   %eax
c0002989:	e8 b2 fd ff ff       	call   c0002740 <put_str>
c000298e:	83 c4 10             	add    $0x10,%esp
c0002991:	83 ec 0c             	sub    $0xc,%esp
c0002994:	ff 75 10             	pushl  0x10(%ebp)
c0002997:	e8 a4 fd ff ff       	call   c0002740 <put_str>
c000299c:	83 c4 10             	add    $0x10,%esp
c000299f:	83 ec 0c             	sub    $0xc,%esp
c00029a2:	8d 83 94 b3 ff ff    	lea    -0x4c6c(%ebx),%eax
c00029a8:	50                   	push   %eax
c00029a9:	e8 92 fd ff ff       	call   c0002740 <put_str>
c00029ae:	83 c4 10             	add    $0x10,%esp
c00029b1:	83 ec 0c             	sub    $0xc,%esp
c00029b4:	8d 83 a8 b3 ff ff    	lea    -0x4c58(%ebx),%eax
c00029ba:	50                   	push   %eax
c00029bb:	e8 80 fd ff ff       	call   c0002740 <put_str>
c00029c0:	83 c4 10             	add    $0x10,%esp
c00029c3:	83 ec 0c             	sub    $0xc,%esp
c00029c6:	ff 75 14             	pushl  0x14(%ebp)
c00029c9:	e8 72 fd ff ff       	call   c0002740 <put_str>
c00029ce:	83 c4 10             	add    $0x10,%esp
c00029d1:	83 ec 0c             	sub    $0xc,%esp
c00029d4:	8d 83 94 b3 ff ff    	lea    -0x4c6c(%ebx),%eax
c00029da:	50                   	push   %eax
c00029db:	e8 60 fd ff ff       	call   c0002740 <put_str>
c00029e0:	83 c4 10             	add    $0x10,%esp
c00029e3:	eb fe                	jmp    c00029e3 <panic_spin+0xf2>

c00029e5 <list_init>:
c00029e5:	55                   	push   %ebp
c00029e6:	89 e5                	mov    %esp,%ebp
c00029e8:	e8 eb f5 ff ff       	call   c0001fd8 <__x86.get_pc_thunk.ax>
c00029ed:	05 13 f6 00 00       	add    $0xf613,%eax
c00029f2:	8b 45 08             	mov    0x8(%ebp),%eax
c00029f5:	c7 00 00 00 00 00    	movl   $0x0,(%eax)
c00029fb:	8b 45 08             	mov    0x8(%ebp),%eax
c00029fe:	8d 50 08             	lea    0x8(%eax),%edx
c0002a01:	8b 45 08             	mov    0x8(%ebp),%eax
c0002a04:	89 50 04             	mov    %edx,0x4(%eax)
c0002a07:	8b 55 08             	mov    0x8(%ebp),%edx
c0002a0a:	8b 45 08             	mov    0x8(%ebp),%eax
c0002a0d:	89 50 08             	mov    %edx,0x8(%eax)
c0002a10:	8b 45 08             	mov    0x8(%ebp),%eax
c0002a13:	c7 40 0c 00 00 00 00 	movl   $0x0,0xc(%eax)
c0002a1a:	90                   	nop
c0002a1b:	5d                   	pop    %ebp
c0002a1c:	c3                   	ret    

c0002a1d <list_insert_before>:
c0002a1d:	55                   	push   %ebp
c0002a1e:	89 e5                	mov    %esp,%ebp
c0002a20:	53                   	push   %ebx
c0002a21:	83 ec 14             	sub    $0x14,%esp
c0002a24:	e8 cc ef ff ff       	call   c00019f5 <__x86.get_pc_thunk.bx>
c0002a29:	81 c3 d7 f5 00 00    	add    $0xf5d7,%ebx
c0002a2f:	e8 f9 f4 ff ff       	call   c0001f2d <intr_disable>
c0002a34:	89 45 f4             	mov    %eax,-0xc(%ebp)
c0002a37:	8b 45 08             	mov    0x8(%ebp),%eax
c0002a3a:	8b 00                	mov    (%eax),%eax
c0002a3c:	8b 55 0c             	mov    0xc(%ebp),%edx
c0002a3f:	89 50 04             	mov    %edx,0x4(%eax)
c0002a42:	8b 45 08             	mov    0x8(%ebp),%eax
c0002a45:	8b 10                	mov    (%eax),%edx
c0002a47:	8b 45 0c             	mov    0xc(%ebp),%eax
c0002a4a:	89 10                	mov    %edx,(%eax)
c0002a4c:	8b 45 0c             	mov    0xc(%ebp),%eax
c0002a4f:	8b 55 08             	mov    0x8(%ebp),%edx
c0002a52:	89 50 04             	mov    %edx,0x4(%eax)
c0002a55:	8b 45 08             	mov    0x8(%ebp),%eax
c0002a58:	8b 55 0c             	mov    0xc(%ebp),%edx
c0002a5b:	89 10                	mov    %edx,(%eax)
c0002a5d:	83 ec 0c             	sub    $0xc,%esp
c0002a60:	ff 75 f4             	pushl  -0xc(%ebp)
c0002a63:	e8 f8 f4 ff ff       	call   c0001f60 <intr_set_status>
c0002a68:	83 c4 10             	add    $0x10,%esp
c0002a6b:	90                   	nop
c0002a6c:	8b 5d fc             	mov    -0x4(%ebp),%ebx
c0002a6f:	c9                   	leave  
c0002a70:	c3                   	ret    

c0002a71 <list_push>:
c0002a71:	55                   	push   %ebp
c0002a72:	89 e5                	mov    %esp,%ebp
c0002a74:	83 ec 08             	sub    $0x8,%esp
c0002a77:	e8 5c f5 ff ff       	call   c0001fd8 <__x86.get_pc_thunk.ax>
c0002a7c:	05 84 f5 00 00       	add    $0xf584,%eax
c0002a81:	8b 45 08             	mov    0x8(%ebp),%eax
c0002a84:	8b 40 04             	mov    0x4(%eax),%eax
c0002a87:	83 ec 08             	sub    $0x8,%esp
c0002a8a:	ff 75 0c             	pushl  0xc(%ebp)
c0002a8d:	50                   	push   %eax
c0002a8e:	e8 8a ff ff ff       	call   c0002a1d <list_insert_before>
c0002a93:	83 c4 10             	add    $0x10,%esp
c0002a96:	90                   	nop
c0002a97:	c9                   	leave  
c0002a98:	c3                   	ret    

c0002a99 <list_append>:
c0002a99:	55                   	push   %ebp
c0002a9a:	89 e5                	mov    %esp,%ebp
c0002a9c:	83 ec 08             	sub    $0x8,%esp
c0002a9f:	e8 34 f5 ff ff       	call   c0001fd8 <__x86.get_pc_thunk.ax>
c0002aa4:	05 5c f5 00 00       	add    $0xf55c,%eax
c0002aa9:	8b 45 08             	mov    0x8(%ebp),%eax
c0002aac:	83 c0 08             	add    $0x8,%eax
c0002aaf:	83 ec 08             	sub    $0x8,%esp
c0002ab2:	ff 75 0c             	pushl  0xc(%ebp)
c0002ab5:	50                   	push   %eax
c0002ab6:	e8 62 ff ff ff       	call   c0002a1d <list_insert_before>
c0002abb:	83 c4 10             	add    $0x10,%esp
c0002abe:	90                   	nop
c0002abf:	c9                   	leave  
c0002ac0:	c3                   	ret    

c0002ac1 <list_remove>:
c0002ac1:	55                   	push   %ebp
c0002ac2:	89 e5                	mov    %esp,%ebp
c0002ac4:	53                   	push   %ebx
c0002ac5:	83 ec 14             	sub    $0x14,%esp
c0002ac8:	e8 28 ef ff ff       	call   c00019f5 <__x86.get_pc_thunk.bx>
c0002acd:	81 c3 33 f5 00 00    	add    $0xf533,%ebx
c0002ad3:	e8 55 f4 ff ff       	call   c0001f2d <intr_disable>
c0002ad8:	89 45 f4             	mov    %eax,-0xc(%ebp)
c0002adb:	8b 45 08             	mov    0x8(%ebp),%eax
c0002ade:	8b 00                	mov    (%eax),%eax
c0002ae0:	8b 55 08             	mov    0x8(%ebp),%edx
c0002ae3:	8b 52 04             	mov    0x4(%edx),%edx
c0002ae6:	89 50 04             	mov    %edx,0x4(%eax)
c0002ae9:	8b 45 08             	mov    0x8(%ebp),%eax
c0002aec:	8b 40 04             	mov    0x4(%eax),%eax
c0002aef:	8b 55 08             	mov    0x8(%ebp),%edx
c0002af2:	8b 12                	mov    (%edx),%edx
c0002af4:	89 10                	mov    %edx,(%eax)
c0002af6:	83 ec 0c             	sub    $0xc,%esp
c0002af9:	ff 75 f4             	pushl  -0xc(%ebp)
c0002afc:	e8 5f f4 ff ff       	call   c0001f60 <intr_set_status>
c0002b01:	83 c4 10             	add    $0x10,%esp
c0002b04:	90                   	nop
c0002b05:	8b 5d fc             	mov    -0x4(%ebp),%ebx
c0002b08:	c9                   	leave  
c0002b09:	c3                   	ret    

c0002b0a <list_pop>:
c0002b0a:	55                   	push   %ebp
c0002b0b:	89 e5                	mov    %esp,%ebp
c0002b0d:	83 ec 18             	sub    $0x18,%esp
c0002b10:	e8 c3 f4 ff ff       	call   c0001fd8 <__x86.get_pc_thunk.ax>
c0002b15:	05 eb f4 00 00       	add    $0xf4eb,%eax
c0002b1a:	8b 45 08             	mov    0x8(%ebp),%eax
c0002b1d:	8b 40 04             	mov    0x4(%eax),%eax
c0002b20:	89 45 f4             	mov    %eax,-0xc(%ebp)
c0002b23:	83 ec 0c             	sub    $0xc,%esp
c0002b26:	ff 75 f4             	pushl  -0xc(%ebp)
c0002b29:	e8 93 ff ff ff       	call   c0002ac1 <list_remove>
c0002b2e:	83 c4 10             	add    $0x10,%esp
c0002b31:	8b 45 f4             	mov    -0xc(%ebp),%eax
c0002b34:	c9                   	leave  
c0002b35:	c3                   	ret    

c0002b36 <elem_find>:
c0002b36:	55                   	push   %ebp
c0002b37:	89 e5                	mov    %esp,%ebp
c0002b39:	83 ec 10             	sub    $0x10,%esp
c0002b3c:	e8 97 f4 ff ff       	call   c0001fd8 <__x86.get_pc_thunk.ax>
c0002b41:	05 bf f4 00 00       	add    $0xf4bf,%eax
c0002b46:	8b 45 08             	mov    0x8(%ebp),%eax
c0002b49:	8b 40 04             	mov    0x4(%eax),%eax
c0002b4c:	89 45 fc             	mov    %eax,-0x4(%ebp)
c0002b4f:	eb 18                	jmp    c0002b69 <elem_find+0x33>
c0002b51:	8b 45 fc             	mov    -0x4(%ebp),%eax
c0002b54:	3b 45 0c             	cmp    0xc(%ebp),%eax
c0002b57:	75 07                	jne    c0002b60 <elem_find+0x2a>
c0002b59:	b8 01 00 00 00       	mov    $0x1,%eax
c0002b5e:	eb 19                	jmp    c0002b79 <elem_find+0x43>
c0002b60:	8b 45 fc             	mov    -0x4(%ebp),%eax
c0002b63:	8b 40 04             	mov    0x4(%eax),%eax
c0002b66:	89 45 fc             	mov    %eax,-0x4(%ebp)
c0002b69:	8b 45 08             	mov    0x8(%ebp),%eax
c0002b6c:	83 c0 08             	add    $0x8,%eax
c0002b6f:	39 45 fc             	cmp    %eax,-0x4(%ebp)
c0002b72:	75 dd                	jne    c0002b51 <elem_find+0x1b>
c0002b74:	b8 00 00 00 00       	mov    $0x0,%eax
c0002b79:	c9                   	leave  
c0002b7a:	c3                   	ret    

c0002b7b <list_traversal>:
c0002b7b:	55                   	push   %ebp
c0002b7c:	89 e5                	mov    %esp,%ebp
c0002b7e:	83 ec 18             	sub    $0x18,%esp
c0002b81:	e8 52 f4 ff ff       	call   c0001fd8 <__x86.get_pc_thunk.ax>
c0002b86:	05 7a f4 00 00       	add    $0xf47a,%eax
c0002b8b:	8b 45 08             	mov    0x8(%ebp),%eax
c0002b8e:	8b 40 04             	mov    0x4(%eax),%eax
c0002b91:	89 45 f4             	mov    %eax,-0xc(%ebp)
c0002b94:	83 ec 0c             	sub    $0xc,%esp
c0002b97:	ff 75 08             	pushl  0x8(%ebp)
c0002b9a:	e8 be 01 00 00       	call   c0002d5d <list_empty>
c0002b9f:	83 c4 10             	add    $0x10,%esp
c0002ba2:	85 c0                	test   %eax,%eax
c0002ba4:	74 2a                	je     c0002bd0 <list_traversal+0x55>
c0002ba6:	b8 00 00 00 00       	mov    $0x0,%eax
c0002bab:	eb 33                	jmp    c0002be0 <list_traversal+0x65>
c0002bad:	83 ec 08             	sub    $0x8,%esp
c0002bb0:	ff 75 10             	pushl  0x10(%ebp)
c0002bb3:	ff 75 f4             	pushl  -0xc(%ebp)
c0002bb6:	8b 45 0c             	mov    0xc(%ebp),%eax
c0002bb9:	ff d0                	call   *%eax
c0002bbb:	83 c4 10             	add    $0x10,%esp
c0002bbe:	85 c0                	test   %eax,%eax
c0002bc0:	74 05                	je     c0002bc7 <list_traversal+0x4c>
c0002bc2:	8b 45 f4             	mov    -0xc(%ebp),%eax
c0002bc5:	eb 19                	jmp    c0002be0 <list_traversal+0x65>
c0002bc7:	8b 45 f4             	mov    -0xc(%ebp),%eax
c0002bca:	8b 40 04             	mov    0x4(%eax),%eax
c0002bcd:	89 45 f4             	mov    %eax,-0xc(%ebp)
c0002bd0:	8b 45 08             	mov    0x8(%ebp),%eax
c0002bd3:	83 c0 08             	add    $0x8,%eax
c0002bd6:	39 45 f4             	cmp    %eax,-0xc(%ebp)
c0002bd9:	75 d2                	jne    c0002bad <list_traversal+0x32>
c0002bdb:	b8 00 00 00 00       	mov    $0x0,%eax
c0002be0:	c9                   	leave  
c0002be1:	c3                   	ret    

c0002be2 <list_len>:
c0002be2:	55                   	push   %ebp
c0002be3:	89 e5                	mov    %esp,%ebp
c0002be5:	53                   	push   %ebx
c0002be6:	83 ec 14             	sub    $0x14,%esp
c0002be9:	e8 07 ee ff ff       	call   c00019f5 <__x86.get_pc_thunk.bx>
c0002bee:	81 c3 12 f4 00 00    	add    $0xf412,%ebx
c0002bf4:	8b 45 08             	mov    0x8(%ebp),%eax
c0002bf7:	8b 40 04             	mov    0x4(%eax),%eax
c0002bfa:	89 45 f4             	mov    %eax,-0xc(%ebp)
c0002bfd:	83 ec 0c             	sub    $0xc,%esp
c0002c00:	8d 83 b3 b3 ff ff    	lea    -0x4c4d(%ebx),%eax
c0002c06:	50                   	push   %eax
c0002c07:	e8 34 fb ff ff       	call   c0002740 <put_str>
c0002c0c:	83 c4 10             	add    $0x10,%esp
c0002c0f:	8b 45 08             	mov    0x8(%ebp),%eax
c0002c12:	83 ec 0c             	sub    $0xc,%esp
c0002c15:	50                   	push   %eax
c0002c16:	e8 4f fc ff ff       	call   c000286a <put_int>
c0002c1b:	83 c4 10             	add    $0x10,%esp
c0002c1e:	83 ec 0c             	sub    $0xc,%esp
c0002c21:	8d 83 bb b3 ff ff    	lea    -0x4c45(%ebx),%eax
c0002c27:	50                   	push   %eax
c0002c28:	e8 13 fb ff ff       	call   c0002740 <put_str>
c0002c2d:	83 c4 10             	add    $0x10,%esp
c0002c30:	83 ec 0c             	sub    $0xc,%esp
c0002c33:	8d 83 be b3 ff ff    	lea    -0x4c42(%ebx),%eax
c0002c39:	50                   	push   %eax
c0002c3a:	e8 01 fb ff ff       	call   c0002740 <put_str>
c0002c3f:	83 c4 10             	add    $0x10,%esp
c0002c42:	8b 45 f4             	mov    -0xc(%ebp),%eax
c0002c45:	83 ec 0c             	sub    $0xc,%esp
c0002c48:	50                   	push   %eax
c0002c49:	e8 1c fc ff ff       	call   c000286a <put_int>
c0002c4e:	83 c4 10             	add    $0x10,%esp
c0002c51:	83 ec 0c             	sub    $0xc,%esp
c0002c54:	8d 83 bb b3 ff ff    	lea    -0x4c45(%ebx),%eax
c0002c5a:	50                   	push   %eax
c0002c5b:	e8 e0 fa ff ff       	call   c0002740 <put_str>
c0002c60:	83 c4 10             	add    $0x10,%esp
c0002c63:	83 ec 0c             	sub    $0xc,%esp
c0002c66:	8d 83 d2 b3 ff ff    	lea    -0x4c2e(%ebx),%eax
c0002c6c:	50                   	push   %eax
c0002c6d:	e8 ce fa ff ff       	call   c0002740 <put_str>
c0002c72:	83 c4 10             	add    $0x10,%esp
c0002c75:	8b 45 08             	mov    0x8(%ebp),%eax
c0002c78:	83 c0 08             	add    $0x8,%eax
c0002c7b:	83 ec 0c             	sub    $0xc,%esp
c0002c7e:	50                   	push   %eax
c0002c7f:	e8 e6 fb ff ff       	call   c000286a <put_int>
c0002c84:	83 c4 10             	add    $0x10,%esp
c0002c87:	83 ec 0c             	sub    $0xc,%esp
c0002c8a:	8d 83 bb b3 ff ff    	lea    -0x4c45(%ebx),%eax
c0002c90:	50                   	push   %eax
c0002c91:	e8 aa fa ff ff       	call   c0002740 <put_str>
c0002c96:	83 c4 10             	add    $0x10,%esp
c0002c99:	83 ec 0c             	sub    $0xc,%esp
c0002c9c:	8d 83 e2 b3 ff ff    	lea    -0x4c1e(%ebx),%eax
c0002ca2:	50                   	push   %eax
c0002ca3:	e8 98 fa ff ff       	call   c0002740 <put_str>
c0002ca8:	83 c4 10             	add    $0x10,%esp
c0002cab:	8b 45 08             	mov    0x8(%ebp),%eax
c0002cae:	8b 40 08             	mov    0x8(%eax),%eax
c0002cb1:	83 ec 0c             	sub    $0xc,%esp
c0002cb4:	50                   	push   %eax
c0002cb5:	e8 b0 fb ff ff       	call   c000286a <put_int>
c0002cba:	83 c4 10             	add    $0x10,%esp
c0002cbd:	83 ec 0c             	sub    $0xc,%esp
c0002cc0:	8d 83 bb b3 ff ff    	lea    -0x4c45(%ebx),%eax
c0002cc6:	50                   	push   %eax
c0002cc7:	e8 74 fa ff ff       	call   c0002740 <put_str>
c0002ccc:	83 c4 10             	add    $0x10,%esp
c0002ccf:	c7 45 f0 00 00 00 00 	movl   $0x0,-0x10(%ebp)
c0002cd6:	eb 60                	jmp    c0002d38 <list_len+0x156>
c0002cd8:	83 45 f0 01          	addl   $0x1,-0x10(%ebp)
c0002cdc:	8b 45 f4             	mov    -0xc(%ebp),%eax
c0002cdf:	8b 40 04             	mov    0x4(%eax),%eax
c0002ce2:	89 45 f4             	mov    %eax,-0xc(%ebp)
c0002ce5:	83 ec 0c             	sub    $0xc,%esp
c0002ce8:	8d 83 f6 b3 ff ff    	lea    -0x4c0a(%ebx),%eax
c0002cee:	50                   	push   %eax
c0002cef:	e8 4c fa ff ff       	call   c0002740 <put_str>
c0002cf4:	83 c4 10             	add    $0x10,%esp
c0002cf7:	83 ec 0c             	sub    $0xc,%esp
c0002cfa:	ff 75 f0             	pushl  -0x10(%ebp)
c0002cfd:	e8 68 fb ff ff       	call   c000286a <put_int>
c0002d02:	83 c4 10             	add    $0x10,%esp
c0002d05:	83 ec 0c             	sub    $0xc,%esp
c0002d08:	8d 83 fe b3 ff ff    	lea    -0x4c02(%ebx),%eax
c0002d0e:	50                   	push   %eax
c0002d0f:	e8 2c fa ff ff       	call   c0002740 <put_str>
c0002d14:	83 c4 10             	add    $0x10,%esp
c0002d17:	8b 45 f4             	mov    -0xc(%ebp),%eax
c0002d1a:	83 ec 0c             	sub    $0xc,%esp
c0002d1d:	50                   	push   %eax
c0002d1e:	e8 47 fb ff ff       	call   c000286a <put_int>
c0002d23:	83 c4 10             	add    $0x10,%esp
c0002d26:	83 ec 0c             	sub    $0xc,%esp
c0002d29:	8d 83 fe b3 ff ff    	lea    -0x4c02(%ebx),%eax
c0002d2f:	50                   	push   %eax
c0002d30:	e8 0b fa ff ff       	call   c0002740 <put_str>
c0002d35:	83 c4 10             	add    $0x10,%esp
c0002d38:	8b 45 08             	mov    0x8(%ebp),%eax
c0002d3b:	83 c0 08             	add    $0x8,%eax
c0002d3e:	39 45 f4             	cmp    %eax,-0xc(%ebp)
c0002d41:	75 95                	jne    c0002cd8 <list_len+0xf6>
c0002d43:	83 ec 0c             	sub    $0xc,%esp
c0002d46:	8d 83 00 b4 ff ff    	lea    -0x4c00(%ebx),%eax
c0002d4c:	50                   	push   %eax
c0002d4d:	e8 ee f9 ff ff       	call   c0002740 <put_str>
c0002d52:	83 c4 10             	add    $0x10,%esp
c0002d55:	8b 45 f0             	mov    -0x10(%ebp),%eax
c0002d58:	8b 5d fc             	mov    -0x4(%ebp),%ebx
c0002d5b:	c9                   	leave  
c0002d5c:	c3                   	ret    

c0002d5d <list_empty>:
c0002d5d:	55                   	push   %ebp
c0002d5e:	89 e5                	mov    %esp,%ebp
c0002d60:	e8 73 f2 ff ff       	call   c0001fd8 <__x86.get_pc_thunk.ax>
c0002d65:	05 9b f2 00 00       	add    $0xf29b,%eax
c0002d6a:	8b 45 08             	mov    0x8(%ebp),%eax
c0002d6d:	8b 40 04             	mov    0x4(%eax),%eax
c0002d70:	8b 55 08             	mov    0x8(%ebp),%edx
c0002d73:	83 c2 08             	add    $0x8,%edx
c0002d76:	39 d0                	cmp    %edx,%eax
c0002d78:	0f 94 c0             	sete   %al
c0002d7b:	0f b6 c0             	movzbl %al,%eax
c0002d7e:	5d                   	pop    %ebp
c0002d7f:	c3                   	ret    

c0002d80 <switch_to>:
c0002d80:	56                   	push   %esi
c0002d81:	57                   	push   %edi
c0002d82:	53                   	push   %ebx
c0002d83:	55                   	push   %ebp
c0002d84:	8b 44 24 14          	mov    0x14(%esp),%eax
c0002d88:	89 20                	mov    %esp,(%eax)
c0002d8a:	8b 44 24 18          	mov    0x18(%esp),%eax
c0002d8e:	8b 20                	mov    (%eax),%esp
c0002d90:	5d                   	pop    %ebp
c0002d91:	5b                   	pop    %ebx
c0002d92:	5f                   	pop    %edi
c0002d93:	5e                   	pop    %esi
c0002d94:	c3                   	ret    

c0002d95 <memset>:
c0002d95:	55                   	push   %ebp
c0002d96:	89 e5                	mov    %esp,%ebp
c0002d98:	83 ec 14             	sub    $0x14,%esp
c0002d9b:	e8 38 f2 ff ff       	call   c0001fd8 <__x86.get_pc_thunk.ax>
c0002da0:	05 60 f2 00 00       	add    $0xf260,%eax
c0002da5:	8b 45 0c             	mov    0xc(%ebp),%eax
c0002da8:	88 45 ec             	mov    %al,-0x14(%ebp)
c0002dab:	8b 45 08             	mov    0x8(%ebp),%eax
c0002dae:	89 45 fc             	mov    %eax,-0x4(%ebp)
c0002db1:	eb 0d                	jmp    c0002dc0 <memset+0x2b>
c0002db3:	8b 45 fc             	mov    -0x4(%ebp),%eax
c0002db6:	0f b6 55 ec          	movzbl -0x14(%ebp),%edx
c0002dba:	88 10                	mov    %dl,(%eax)
c0002dbc:	83 45 fc 01          	addl   $0x1,-0x4(%ebp)
c0002dc0:	8b 45 10             	mov    0x10(%ebp),%eax
c0002dc3:	8d 50 ff             	lea    -0x1(%eax),%edx
c0002dc6:	89 55 10             	mov    %edx,0x10(%ebp)
c0002dc9:	85 c0                	test   %eax,%eax
c0002dcb:	75 e6                	jne    c0002db3 <memset+0x1e>
c0002dcd:	90                   	nop
c0002dce:	c9                   	leave  
c0002dcf:	c3                   	ret    

c0002dd0 <memcpy>:
c0002dd0:	55                   	push   %ebp
c0002dd1:	89 e5                	mov    %esp,%ebp
c0002dd3:	83 ec 10             	sub    $0x10,%esp
c0002dd6:	e8 fd f1 ff ff       	call   c0001fd8 <__x86.get_pc_thunk.ax>
c0002ddb:	05 25 f2 00 00       	add    $0xf225,%eax
c0002de0:	8b 45 08             	mov    0x8(%ebp),%eax
c0002de3:	89 45 fc             	mov    %eax,-0x4(%ebp)
c0002de6:	8b 45 0c             	mov    0xc(%ebp),%eax
c0002de9:	89 45 f8             	mov    %eax,-0x8(%ebp)
c0002dec:	eb 17                	jmp    c0002e05 <memcpy+0x35>
c0002dee:	8b 55 f8             	mov    -0x8(%ebp),%edx
c0002df1:	8d 42 01             	lea    0x1(%edx),%eax
c0002df4:	89 45 f8             	mov    %eax,-0x8(%ebp)
c0002df7:	8b 45 fc             	mov    -0x4(%ebp),%eax
c0002dfa:	8d 48 01             	lea    0x1(%eax),%ecx
c0002dfd:	89 4d fc             	mov    %ecx,-0x4(%ebp)
c0002e00:	0f b6 12             	movzbl (%edx),%edx
c0002e03:	88 10                	mov    %dl,(%eax)
c0002e05:	8b 45 10             	mov    0x10(%ebp),%eax
c0002e08:	8d 50 ff             	lea    -0x1(%eax),%edx
c0002e0b:	89 55 10             	mov    %edx,0x10(%ebp)
c0002e0e:	85 c0                	test   %eax,%eax
c0002e10:	75 dc                	jne    c0002dee <memcpy+0x1e>
c0002e12:	90                   	nop
c0002e13:	c9                   	leave  
c0002e14:	c3                   	ret    

c0002e15 <memcmp>:
c0002e15:	55                   	push   %ebp
c0002e16:	89 e5                	mov    %esp,%ebp
c0002e18:	83 ec 10             	sub    $0x10,%esp
c0002e1b:	e8 b8 f1 ff ff       	call   c0001fd8 <__x86.get_pc_thunk.ax>
c0002e20:	05 e0 f1 00 00       	add    $0xf1e0,%eax
c0002e25:	8b 45 08             	mov    0x8(%ebp),%eax
c0002e28:	89 45 fc             	mov    %eax,-0x4(%ebp)
c0002e2b:	8b 45 0c             	mov    0xc(%ebp),%eax
c0002e2e:	89 45 f8             	mov    %eax,-0x8(%ebp)
c0002e31:	eb 36                	jmp    c0002e69 <memcmp+0x54>
c0002e33:	8b 45 fc             	mov    -0x4(%ebp),%eax
c0002e36:	0f b6 10             	movzbl (%eax),%edx
c0002e39:	8b 45 f8             	mov    -0x8(%ebp),%eax
c0002e3c:	0f b6 00             	movzbl (%eax),%eax
c0002e3f:	38 c2                	cmp    %al,%dl
c0002e41:	74 1e                	je     c0002e61 <memcmp+0x4c>
c0002e43:	8b 45 fc             	mov    -0x4(%ebp),%eax
c0002e46:	0f b6 10             	movzbl (%eax),%edx
c0002e49:	8b 45 f8             	mov    -0x8(%ebp),%eax
c0002e4c:	0f b6 00             	movzbl (%eax),%eax
c0002e4f:	38 c2                	cmp    %al,%dl
c0002e51:	7e 07                	jle    c0002e5a <memcmp+0x45>
c0002e53:	b8 01 00 00 00       	mov    $0x1,%eax
c0002e58:	eb 21                	jmp    c0002e7b <memcmp+0x66>
c0002e5a:	b8 ff ff ff ff       	mov    $0xffffffff,%eax
c0002e5f:	eb 1a                	jmp    c0002e7b <memcmp+0x66>
c0002e61:	83 45 fc 01          	addl   $0x1,-0x4(%ebp)
c0002e65:	83 45 f8 01          	addl   $0x1,-0x8(%ebp)
c0002e69:	8b 45 10             	mov    0x10(%ebp),%eax
c0002e6c:	8d 50 ff             	lea    -0x1(%eax),%edx
c0002e6f:	89 55 10             	mov    %edx,0x10(%ebp)
c0002e72:	85 c0                	test   %eax,%eax
c0002e74:	75 bd                	jne    c0002e33 <memcmp+0x1e>
c0002e76:	b8 00 00 00 00       	mov    $0x0,%eax
c0002e7b:	c9                   	leave  
c0002e7c:	c3                   	ret    

c0002e7d <strcpy>:
c0002e7d:	55                   	push   %ebp
c0002e7e:	89 e5                	mov    %esp,%ebp
c0002e80:	83 ec 10             	sub    $0x10,%esp
c0002e83:	e8 50 f1 ff ff       	call   c0001fd8 <__x86.get_pc_thunk.ax>
c0002e88:	05 78 f1 00 00       	add    $0xf178,%eax
c0002e8d:	8b 45 08             	mov    0x8(%ebp),%eax
c0002e90:	89 45 fc             	mov    %eax,-0x4(%ebp)
c0002e93:	90                   	nop
c0002e94:	8b 55 0c             	mov    0xc(%ebp),%edx
c0002e97:	8d 42 01             	lea    0x1(%edx),%eax
c0002e9a:	89 45 0c             	mov    %eax,0xc(%ebp)
c0002e9d:	8b 45 08             	mov    0x8(%ebp),%eax
c0002ea0:	8d 48 01             	lea    0x1(%eax),%ecx
c0002ea3:	89 4d 08             	mov    %ecx,0x8(%ebp)
c0002ea6:	0f b6 12             	movzbl (%edx),%edx
c0002ea9:	88 10                	mov    %dl,(%eax)
c0002eab:	0f b6 00             	movzbl (%eax),%eax
c0002eae:	84 c0                	test   %al,%al
c0002eb0:	75 e2                	jne    c0002e94 <strcpy+0x17>
c0002eb2:	8b 45 fc             	mov    -0x4(%ebp),%eax
c0002eb5:	c9                   	leave  
c0002eb6:	c3                   	ret    

c0002eb7 <strlen>:
c0002eb7:	55                   	push   %ebp
c0002eb8:	89 e5                	mov    %esp,%ebp
c0002eba:	83 ec 10             	sub    $0x10,%esp
c0002ebd:	e8 16 f1 ff ff       	call   c0001fd8 <__x86.get_pc_thunk.ax>
c0002ec2:	05 3e f1 00 00       	add    $0xf13e,%eax
c0002ec7:	8b 45 08             	mov    0x8(%ebp),%eax
c0002eca:	89 45 fc             	mov    %eax,-0x4(%ebp)
c0002ecd:	90                   	nop
c0002ece:	8b 45 fc             	mov    -0x4(%ebp),%eax
c0002ed1:	8d 50 01             	lea    0x1(%eax),%edx
c0002ed4:	89 55 fc             	mov    %edx,-0x4(%ebp)
c0002ed7:	0f b6 00             	movzbl (%eax),%eax
c0002eda:	84 c0                	test   %al,%al
c0002edc:	75 f0                	jne    c0002ece <strlen+0x17>
c0002ede:	8b 55 fc             	mov    -0x4(%ebp),%edx
c0002ee1:	8b 45 08             	mov    0x8(%ebp),%eax
c0002ee4:	29 c2                	sub    %eax,%edx
c0002ee6:	89 d0                	mov    %edx,%eax
c0002ee8:	83 e8 01             	sub    $0x1,%eax
c0002eeb:	c9                   	leave  
c0002eec:	c3                   	ret    

c0002eed <strcmp>:
c0002eed:	55                   	push   %ebp
c0002eee:	89 e5                	mov    %esp,%ebp
c0002ef0:	e8 e3 f0 ff ff       	call   c0001fd8 <__x86.get_pc_thunk.ax>
c0002ef5:	05 0b f1 00 00       	add    $0xf10b,%eax
c0002efa:	eb 08                	jmp    c0002f04 <strcmp+0x17>
c0002efc:	83 45 08 01          	addl   $0x1,0x8(%ebp)
c0002f00:	83 45 0c 01          	addl   $0x1,0xc(%ebp)
c0002f04:	8b 45 08             	mov    0x8(%ebp),%eax
c0002f07:	0f b6 00             	movzbl (%eax),%eax
c0002f0a:	84 c0                	test   %al,%al
c0002f0c:	74 10                	je     c0002f1e <strcmp+0x31>
c0002f0e:	8b 45 08             	mov    0x8(%ebp),%eax
c0002f11:	0f b6 10             	movzbl (%eax),%edx
c0002f14:	8b 45 0c             	mov    0xc(%ebp),%eax
c0002f17:	0f b6 00             	movzbl (%eax),%eax
c0002f1a:	38 c2                	cmp    %al,%dl
c0002f1c:	74 de                	je     c0002efc <strcmp+0xf>
c0002f1e:	8b 45 08             	mov    0x8(%ebp),%eax
c0002f21:	0f b6 10             	movzbl (%eax),%edx
c0002f24:	8b 45 0c             	mov    0xc(%ebp),%eax
c0002f27:	0f b6 00             	movzbl (%eax),%eax
c0002f2a:	38 c2                	cmp    %al,%dl
c0002f2c:	7c 13                	jl     c0002f41 <strcmp+0x54>
c0002f2e:	8b 45 08             	mov    0x8(%ebp),%eax
c0002f31:	0f b6 10             	movzbl (%eax),%edx
c0002f34:	8b 45 0c             	mov    0xc(%ebp),%eax
c0002f37:	0f b6 00             	movzbl (%eax),%eax
c0002f3a:	38 c2                	cmp    %al,%dl
c0002f3c:	0f 9f c0             	setg   %al
c0002f3f:	eb 05                	jmp    c0002f46 <strcmp+0x59>
c0002f41:	b8 ff ff ff ff       	mov    $0xffffffff,%eax
c0002f46:	5d                   	pop    %ebp
c0002f47:	c3                   	ret    

c0002f48 <strchr>:
c0002f48:	55                   	push   %ebp
c0002f49:	89 e5                	mov    %esp,%ebp
c0002f4b:	83 ec 04             	sub    $0x4,%esp
c0002f4e:	e8 85 f0 ff ff       	call   c0001fd8 <__x86.get_pc_thunk.ax>
c0002f53:	05 ad f0 00 00       	add    $0xf0ad,%eax
c0002f58:	8b 45 0c             	mov    0xc(%ebp),%eax
c0002f5b:	88 45 fc             	mov    %al,-0x4(%ebp)
c0002f5e:	eb 1a                	jmp    c0002f7a <strchr+0x32>
c0002f60:	8b 45 08             	mov    0x8(%ebp),%eax
c0002f63:	0f b6 00             	movzbl (%eax),%eax
c0002f66:	0f be d0             	movsbl %al,%edx
c0002f69:	0f b6 45 fc          	movzbl -0x4(%ebp),%eax
c0002f6d:	39 c2                	cmp    %eax,%edx
c0002f6f:	75 05                	jne    c0002f76 <strchr+0x2e>
c0002f71:	8b 45 08             	mov    0x8(%ebp),%eax
c0002f74:	eb 1a                	jmp    c0002f90 <strchr+0x48>
c0002f76:	83 45 08 01          	addl   $0x1,0x8(%ebp)
c0002f7a:	8b 45 08             	mov    0x8(%ebp),%eax
c0002f7d:	0f b6 00             	movzbl (%eax),%eax
c0002f80:	0f be d0             	movsbl %al,%edx
c0002f83:	0f b6 45 fc          	movzbl -0x4(%ebp),%eax
c0002f87:	39 c2                	cmp    %eax,%edx
c0002f89:	74 d5                	je     c0002f60 <strchr+0x18>
c0002f8b:	b8 00 00 00 00       	mov    $0x0,%eax
c0002f90:	c9                   	leave  
c0002f91:	c3                   	ret    

c0002f92 <strrchr>:
c0002f92:	55                   	push   %ebp
c0002f93:	89 e5                	mov    %esp,%ebp
c0002f95:	83 ec 14             	sub    $0x14,%esp
c0002f98:	e8 3b f0 ff ff       	call   c0001fd8 <__x86.get_pc_thunk.ax>
c0002f9d:	05 63 f0 00 00       	add    $0xf063,%eax
c0002fa2:	8b 45 0c             	mov    0xc(%ebp),%eax
c0002fa5:	88 45 ec             	mov    %al,-0x14(%ebp)
c0002fa8:	c7 45 fc 00 00 00 00 	movl   $0x0,-0x4(%ebp)
c0002faf:	eb 1b                	jmp    c0002fcc <strrchr+0x3a>
c0002fb1:	8b 45 08             	mov    0x8(%ebp),%eax
c0002fb4:	0f b6 00             	movzbl (%eax),%eax
c0002fb7:	0f be d0             	movsbl %al,%edx
c0002fba:	0f b6 45 ec          	movzbl -0x14(%ebp),%eax
c0002fbe:	39 c2                	cmp    %eax,%edx
c0002fc0:	75 06                	jne    c0002fc8 <strrchr+0x36>
c0002fc2:	8b 45 08             	mov    0x8(%ebp),%eax
c0002fc5:	89 45 fc             	mov    %eax,-0x4(%ebp)
c0002fc8:	83 45 08 01          	addl   $0x1,0x8(%ebp)
c0002fcc:	8b 45 08             	mov    0x8(%ebp),%eax
c0002fcf:	0f b6 00             	movzbl (%eax),%eax
c0002fd2:	84 c0                	test   %al,%al
c0002fd4:	75 db                	jne    c0002fb1 <strrchr+0x1f>
c0002fd6:	8b 45 fc             	mov    -0x4(%ebp),%eax
c0002fd9:	c9                   	leave  
c0002fda:	c3                   	ret    

c0002fdb <strcat>:
c0002fdb:	55                   	push   %ebp
c0002fdc:	89 e5                	mov    %esp,%ebp
c0002fde:	83 ec 10             	sub    $0x10,%esp
c0002fe1:	e8 f2 ef ff ff       	call   c0001fd8 <__x86.get_pc_thunk.ax>
c0002fe6:	05 1a f0 00 00       	add    $0xf01a,%eax
c0002feb:	8b 45 08             	mov    0x8(%ebp),%eax
c0002fee:	89 45 fc             	mov    %eax,-0x4(%ebp)
c0002ff1:	90                   	nop
c0002ff2:	8b 45 fc             	mov    -0x4(%ebp),%eax
c0002ff5:	8d 50 01             	lea    0x1(%eax),%edx
c0002ff8:	89 55 fc             	mov    %edx,-0x4(%ebp)
c0002ffb:	0f b6 00             	movzbl (%eax),%eax
c0002ffe:	84 c0                	test   %al,%al
c0003000:	75 f0                	jne    c0002ff2 <strcat+0x17>
c0003002:	83 6d fc 01          	subl   $0x1,-0x4(%ebp)
c0003006:	90                   	nop
c0003007:	8b 55 0c             	mov    0xc(%ebp),%edx
c000300a:	8d 42 01             	lea    0x1(%edx),%eax
c000300d:	89 45 0c             	mov    %eax,0xc(%ebp)
c0003010:	8b 45 fc             	mov    -0x4(%ebp),%eax
c0003013:	8d 48 01             	lea    0x1(%eax),%ecx
c0003016:	89 4d fc             	mov    %ecx,-0x4(%ebp)
c0003019:	0f b6 12             	movzbl (%edx),%edx
c000301c:	88 10                	mov    %dl,(%eax)
c000301e:	0f b6 00             	movzbl (%eax),%eax
c0003021:	84 c0                	test   %al,%al
c0003023:	75 e2                	jne    c0003007 <strcat+0x2c>
c0003025:	8b 45 08             	mov    0x8(%ebp),%eax
c0003028:	c9                   	leave  
c0003029:	c3                   	ret    

c000302a <strchrs>:
c000302a:	55                   	push   %ebp
c000302b:	89 e5                	mov    %esp,%ebp
c000302d:	83 ec 14             	sub    $0x14,%esp
c0003030:	e8 a3 ef ff ff       	call   c0001fd8 <__x86.get_pc_thunk.ax>
c0003035:	05 cb ef 00 00       	add    $0xefcb,%eax
c000303a:	8b 45 0c             	mov    0xc(%ebp),%eax
c000303d:	88 45 ec             	mov    %al,-0x14(%ebp)
c0003040:	c7 45 fc 00 00 00 00 	movl   $0x0,-0x4(%ebp)
c0003047:	8b 45 08             	mov    0x8(%ebp),%eax
c000304a:	89 45 f8             	mov    %eax,-0x8(%ebp)
c000304d:	eb 19                	jmp    c0003068 <strchrs+0x3e>
c000304f:	8b 45 f8             	mov    -0x8(%ebp),%eax
c0003052:	0f b6 00             	movzbl (%eax),%eax
c0003055:	0f be d0             	movsbl %al,%edx
c0003058:	0f b6 45 ec          	movzbl -0x14(%ebp),%eax
c000305c:	39 c2                	cmp    %eax,%edx
c000305e:	75 04                	jne    c0003064 <strchrs+0x3a>
c0003060:	83 45 fc 01          	addl   $0x1,-0x4(%ebp)
c0003064:	83 45 f8 01          	addl   $0x1,-0x8(%ebp)
c0003068:	8b 45 f8             	mov    -0x8(%ebp),%eax
c000306b:	0f b6 00             	movzbl (%eax),%eax
c000306e:	84 c0                	test   %al,%al
c0003070:	75 dd                	jne    c000304f <strchrs+0x25>
c0003072:	8b 45 fc             	mov    -0x4(%ebp),%eax
c0003075:	c9                   	leave  
c0003076:	c3                   	ret    

c0003077 <bitmap_init>:
c0003077:	55                   	push   %ebp
c0003078:	89 e5                	mov    %esp,%ebp
c000307a:	53                   	push   %ebx
c000307b:	83 ec 04             	sub    $0x4,%esp
c000307e:	e8 55 ef ff ff       	call   c0001fd8 <__x86.get_pc_thunk.ax>
c0003083:	05 7d ef 00 00       	add    $0xef7d,%eax
c0003088:	8b 55 08             	mov    0x8(%ebp),%edx
c000308b:	8b 0a                	mov    (%edx),%ecx
c000308d:	8b 55 08             	mov    0x8(%ebp),%edx
c0003090:	8b 52 04             	mov    0x4(%edx),%edx
c0003093:	83 ec 04             	sub    $0x4,%esp
c0003096:	51                   	push   %ecx
c0003097:	6a 00                	push   $0x0
c0003099:	52                   	push   %edx
c000309a:	89 c3                	mov    %eax,%ebx
c000309c:	e8 f4 fc ff ff       	call   c0002d95 <memset>
c00030a1:	83 c4 10             	add    $0x10,%esp
c00030a4:	90                   	nop
c00030a5:	8b 5d fc             	mov    -0x4(%ebp),%ebx
c00030a8:	c9                   	leave  
c00030a9:	c3                   	ret    

c00030aa <bitmap_scan_test>:
c00030aa:	55                   	push   %ebp
c00030ab:	89 e5                	mov    %esp,%ebp
c00030ad:	53                   	push   %ebx
c00030ae:	83 ec 10             	sub    $0x10,%esp
c00030b1:	e8 22 ef ff ff       	call   c0001fd8 <__x86.get_pc_thunk.ax>
c00030b6:	05 4a ef 00 00       	add    $0xef4a,%eax
c00030bb:	8b 45 0c             	mov    0xc(%ebp),%eax
c00030be:	c1 e8 03             	shr    $0x3,%eax
c00030c1:	89 45 f8             	mov    %eax,-0x8(%ebp)
c00030c4:	8b 45 0c             	mov    0xc(%ebp),%eax
c00030c7:	83 e0 07             	and    $0x7,%eax
c00030ca:	89 45 f4             	mov    %eax,-0xc(%ebp)
c00030cd:	8b 45 08             	mov    0x8(%ebp),%eax
c00030d0:	8b 50 04             	mov    0x4(%eax),%edx
c00030d3:	8b 45 f8             	mov    -0x8(%ebp),%eax
c00030d6:	01 d0                	add    %edx,%eax
c00030d8:	0f b6 00             	movzbl (%eax),%eax
c00030db:	0f b6 d0             	movzbl %al,%edx
c00030de:	8b 45 f4             	mov    -0xc(%ebp),%eax
c00030e1:	bb 01 00 00 00       	mov    $0x1,%ebx
c00030e6:	89 c1                	mov    %eax,%ecx
c00030e8:	d3 e3                	shl    %cl,%ebx
c00030ea:	89 d8                	mov    %ebx,%eax
c00030ec:	21 d0                	and    %edx,%eax
c00030ee:	83 c4 10             	add    $0x10,%esp
c00030f1:	5b                   	pop    %ebx
c00030f2:	5d                   	pop    %ebp
c00030f3:	c3                   	ret    

c00030f4 <bitmap_scan>:
c00030f4:	55                   	push   %ebp
c00030f5:	89 e5                	mov    %esp,%ebp
c00030f7:	83 ec 20             	sub    $0x20,%esp
c00030fa:	e8 d9 ee ff ff       	call   c0001fd8 <__x86.get_pc_thunk.ax>
c00030ff:	05 01 ef 00 00       	add    $0xef01,%eax
c0003104:	c7 45 fc 00 00 00 00 	movl   $0x0,-0x4(%ebp)
c000310b:	eb 04                	jmp    c0003111 <bitmap_scan+0x1d>
c000310d:	83 45 fc 01          	addl   $0x1,-0x4(%ebp)
c0003111:	8b 45 08             	mov    0x8(%ebp),%eax
c0003114:	8b 50 04             	mov    0x4(%eax),%edx
c0003117:	8b 45 fc             	mov    -0x4(%ebp),%eax
c000311a:	01 d0                	add    %edx,%eax
c000311c:	0f b6 00             	movzbl (%eax),%eax
c000311f:	3c ff                	cmp    $0xff,%al
c0003121:	75 0a                	jne    c000312d <bitmap_scan+0x39>
c0003123:	8b 45 08             	mov    0x8(%ebp),%eax
c0003126:	8b 00                	mov    (%eax),%eax
c0003128:	39 45 fc             	cmp    %eax,-0x4(%ebp)
c000312b:	72 e0                	jb     c000310d <bitmap_scan+0x19>
c000312d:	8b 45 08             	mov    0x8(%ebp),%eax
c0003130:	8b 00                	mov    (%eax),%eax
c0003132:	39 45 fc             	cmp    %eax,-0x4(%ebp)
c0003135:	75 0a                	jne    c0003141 <bitmap_scan+0x4d>
c0003137:	b8 ff ff ff ff       	mov    $0xffffffff,%eax
c000313c:	e9 c6 00 00 00       	jmp    c0003207 <bitmap_scan+0x113>
c0003141:	c7 45 f8 00 00 00 00 	movl   $0x0,-0x8(%ebp)
c0003148:	eb 04                	jmp    c000314e <bitmap_scan+0x5a>
c000314a:	83 45 f8 01          	addl   $0x1,-0x8(%ebp)
c000314e:	8b 45 f8             	mov    -0x8(%ebp),%eax
c0003151:	ba 01 00 00 00       	mov    $0x1,%edx
c0003156:	89 c1                	mov    %eax,%ecx
c0003158:	d3 e2                	shl    %cl,%edx
c000315a:	89 d0                	mov    %edx,%eax
c000315c:	89 c1                	mov    %eax,%ecx
c000315e:	8b 45 08             	mov    0x8(%ebp),%eax
c0003161:	8b 50 04             	mov    0x4(%eax),%edx
c0003164:	8b 45 fc             	mov    -0x4(%ebp),%eax
c0003167:	01 d0                	add    %edx,%eax
c0003169:	0f b6 00             	movzbl (%eax),%eax
c000316c:	21 c8                	and    %ecx,%eax
c000316e:	84 c0                	test   %al,%al
c0003170:	75 d8                	jne    c000314a <bitmap_scan+0x56>
c0003172:	8b 45 fc             	mov    -0x4(%ebp),%eax
c0003175:	8d 14 c5 00 00 00 00 	lea    0x0(,%eax,8),%edx
c000317c:	8b 45 f8             	mov    -0x8(%ebp),%eax
c000317f:	01 d0                	add    %edx,%eax
c0003181:	89 45 f4             	mov    %eax,-0xc(%ebp)
c0003184:	83 7d 0c 01          	cmpl   $0x1,0xc(%ebp)
c0003188:	75 05                	jne    c000318f <bitmap_scan+0x9b>
c000318a:	8b 45 f4             	mov    -0xc(%ebp),%eax
c000318d:	eb 78                	jmp    c0003207 <bitmap_scan+0x113>
c000318f:	8b 45 08             	mov    0x8(%ebp),%eax
c0003192:	8b 00                	mov    (%eax),%eax
c0003194:	8d 14 c5 00 00 00 00 	lea    0x0(,%eax,8),%edx
c000319b:	8b 45 f4             	mov    -0xc(%ebp),%eax
c000319e:	29 c2                	sub    %eax,%edx
c00031a0:	89 d0                	mov    %edx,%eax
c00031a2:	89 45 f0             	mov    %eax,-0x10(%ebp)
c00031a5:	8b 45 f4             	mov    -0xc(%ebp),%eax
c00031a8:	83 c0 01             	add    $0x1,%eax
c00031ab:	89 45 ec             	mov    %eax,-0x14(%ebp)
c00031ae:	c7 45 e8 01 00 00 00 	movl   $0x1,-0x18(%ebp)
c00031b5:	c7 45 f4 ff ff ff ff 	movl   $0xffffffff,-0xc(%ebp)
c00031bc:	eb 39                	jmp    c00031f7 <bitmap_scan+0x103>
c00031be:	ff 75 ec             	pushl  -0x14(%ebp)
c00031c1:	ff 75 08             	pushl  0x8(%ebp)
c00031c4:	e8 e1 fe ff ff       	call   c00030aa <bitmap_scan_test>
c00031c9:	83 c4 08             	add    $0x8,%esp
c00031cc:	85 c0                	test   %eax,%eax
c00031ce:	75 06                	jne    c00031d6 <bitmap_scan+0xe2>
c00031d0:	83 45 e8 01          	addl   $0x1,-0x18(%ebp)
c00031d4:	eb 07                	jmp    c00031dd <bitmap_scan+0xe9>
c00031d6:	c7 45 e8 00 00 00 00 	movl   $0x0,-0x18(%ebp)
c00031dd:	8b 45 e8             	mov    -0x18(%ebp),%eax
c00031e0:	3b 45 0c             	cmp    0xc(%ebp),%eax
c00031e3:	75 0e                	jne    c00031f3 <bitmap_scan+0xff>
c00031e5:	8b 45 ec             	mov    -0x14(%ebp),%eax
c00031e8:	2b 45 0c             	sub    0xc(%ebp),%eax
c00031eb:	83 c0 01             	add    $0x1,%eax
c00031ee:	89 45 f4             	mov    %eax,-0xc(%ebp)
c00031f1:	eb 11                	jmp    c0003204 <bitmap_scan+0x110>
c00031f3:	83 45 ec 01          	addl   $0x1,-0x14(%ebp)
c00031f7:	8b 45 f0             	mov    -0x10(%ebp),%eax
c00031fa:	8d 50 ff             	lea    -0x1(%eax),%edx
c00031fd:	89 55 f0             	mov    %edx,-0x10(%ebp)
c0003200:	85 c0                	test   %eax,%eax
c0003202:	75 ba                	jne    c00031be <bitmap_scan+0xca>
c0003204:	8b 45 f4             	mov    -0xc(%ebp),%eax
c0003207:	c9                   	leave  
c0003208:	c3                   	ret    

c0003209 <bitmap_set>:
c0003209:	55                   	push   %ebp
c000320a:	89 e5                	mov    %esp,%ebp
c000320c:	53                   	push   %ebx
c000320d:	83 ec 14             	sub    $0x14,%esp
c0003210:	e8 c3 ed ff ff       	call   c0001fd8 <__x86.get_pc_thunk.ax>
c0003215:	05 eb ed 00 00       	add    $0xedeb,%eax
c000321a:	8b 45 10             	mov    0x10(%ebp),%eax
c000321d:	88 45 e8             	mov    %al,-0x18(%ebp)
c0003220:	8b 45 0c             	mov    0xc(%ebp),%eax
c0003223:	c1 e8 03             	shr    $0x3,%eax
c0003226:	89 45 f8             	mov    %eax,-0x8(%ebp)
c0003229:	8b 45 0c             	mov    0xc(%ebp),%eax
c000322c:	83 e0 07             	and    $0x7,%eax
c000322f:	89 45 f4             	mov    %eax,-0xc(%ebp)
c0003232:	80 7d e8 00          	cmpb   $0x0,-0x18(%ebp)
c0003236:	74 33                	je     c000326b <bitmap_set+0x62>
c0003238:	8b 45 08             	mov    0x8(%ebp),%eax
c000323b:	8b 50 04             	mov    0x4(%eax),%edx
c000323e:	8b 45 f8             	mov    -0x8(%ebp),%eax
c0003241:	01 d0                	add    %edx,%eax
c0003243:	0f b6 00             	movzbl (%eax),%eax
c0003246:	89 c3                	mov    %eax,%ebx
c0003248:	8b 45 f4             	mov    -0xc(%ebp),%eax
c000324b:	ba 01 00 00 00       	mov    $0x1,%edx
c0003250:	89 c1                	mov    %eax,%ecx
c0003252:	d3 e2                	shl    %cl,%edx
c0003254:	89 d0                	mov    %edx,%eax
c0003256:	09 c3                	or     %eax,%ebx
c0003258:	89 d9                	mov    %ebx,%ecx
c000325a:	8b 45 08             	mov    0x8(%ebp),%eax
c000325d:	8b 50 04             	mov    0x4(%eax),%edx
c0003260:	8b 45 f8             	mov    -0x8(%ebp),%eax
c0003263:	01 d0                	add    %edx,%eax
c0003265:	89 ca                	mov    %ecx,%edx
c0003267:	88 10                	mov    %dl,(%eax)
c0003269:	eb 33                	jmp    c000329e <bitmap_set+0x95>
c000326b:	8b 45 08             	mov    0x8(%ebp),%eax
c000326e:	8b 50 04             	mov    0x4(%eax),%edx
c0003271:	8b 45 f8             	mov    -0x8(%ebp),%eax
c0003274:	01 d0                	add    %edx,%eax
c0003276:	0f b6 00             	movzbl (%eax),%eax
c0003279:	89 c2                	mov    %eax,%edx
c000327b:	8b 45 f4             	mov    -0xc(%ebp),%eax
c000327e:	bb 01 00 00 00       	mov    $0x1,%ebx
c0003283:	89 c1                	mov    %eax,%ecx
c0003285:	d3 e3                	shl    %cl,%ebx
c0003287:	89 d8                	mov    %ebx,%eax
c0003289:	f7 d0                	not    %eax
c000328b:	89 d1                	mov    %edx,%ecx
c000328d:	21 c1                	and    %eax,%ecx
c000328f:	8b 45 08             	mov    0x8(%ebp),%eax
c0003292:	8b 50 04             	mov    0x4(%eax),%edx
c0003295:	8b 45 f8             	mov    -0x8(%ebp),%eax
c0003298:	01 d0                	add    %edx,%eax
c000329a:	89 ca                	mov    %ecx,%edx
c000329c:	88 10                	mov    %dl,(%eax)
c000329e:	90                   	nop
c000329f:	83 c4 14             	add    $0x14,%esp
c00032a2:	5b                   	pop    %ebx
c00032a3:	5d                   	pop    %ebp
c00032a4:	c3                   	ret    

c00032a5 <vaddr_get>:
c00032a5:	55                   	push   %ebp
c00032a6:	89 e5                	mov    %esp,%ebp
c00032a8:	53                   	push   %ebx
c00032a9:	83 ec 14             	sub    $0x14,%esp
c00032ac:	e8 44 e7 ff ff       	call   c00019f5 <__x86.get_pc_thunk.bx>
c00032b1:	81 c3 4f ed 00 00    	add    $0xed4f,%ebx
c00032b7:	c7 45 f4 00 00 00 00 	movl   $0x0,-0xc(%ebp)
c00032be:	c7 45 ec ff ff ff ff 	movl   $0xffffffff,-0x14(%ebp)
c00032c5:	c7 45 f0 00 00 00 00 	movl   $0x0,-0x10(%ebp)
c00032cc:	83 7d 08 01          	cmpl   $0x1,0x8(%ebp)
c00032d0:	75 69                	jne    c000333b <vaddr_get+0x96>
c00032d2:	83 ec 08             	sub    $0x8,%esp
c00032d5:	ff 75 0c             	pushl  0xc(%ebp)
c00032d8:	c7 c0 88 31 01 c0    	mov    $0xc0013188,%eax
c00032de:	50                   	push   %eax
c00032df:	e8 10 fe ff ff       	call   c00030f4 <bitmap_scan>
c00032e4:	83 c4 10             	add    $0x10,%esp
c00032e7:	89 45 ec             	mov    %eax,-0x14(%ebp)
c00032ea:	83 7d ec ff          	cmpl   $0xffffffff,-0x14(%ebp)
c00032ee:	75 2d                	jne    c000331d <vaddr_get+0x78>
c00032f0:	b8 00 00 00 00       	mov    $0x0,%eax
c00032f5:	e9 ad 00 00 00       	jmp    c00033a7 <vaddr_get+0x102>
c00032fa:	8b 45 f0             	mov    -0x10(%ebp),%eax
c00032fd:	8d 50 01             	lea    0x1(%eax),%edx
c0003300:	89 55 f0             	mov    %edx,-0x10(%ebp)
c0003303:	8b 55 ec             	mov    -0x14(%ebp),%edx
c0003306:	01 d0                	add    %edx,%eax
c0003308:	83 ec 04             	sub    $0x4,%esp
c000330b:	6a 01                	push   $0x1
c000330d:	50                   	push   %eax
c000330e:	c7 c0 88 31 01 c0    	mov    $0xc0013188,%eax
c0003314:	50                   	push   %eax
c0003315:	e8 ef fe ff ff       	call   c0003209 <bitmap_set>
c000331a:	83 c4 10             	add    $0x10,%esp
c000331d:	8b 45 f0             	mov    -0x10(%ebp),%eax
c0003320:	3b 45 0c             	cmp    0xc(%ebp),%eax
c0003323:	72 d5                	jb     c00032fa <vaddr_get+0x55>
c0003325:	c7 c0 88 31 01 c0    	mov    $0xc0013188,%eax
c000332b:	8b 40 08             	mov    0x8(%eax),%eax
c000332e:	8b 55 ec             	mov    -0x14(%ebp),%edx
c0003331:	c1 e2 0c             	shl    $0xc,%edx
c0003334:	01 d0                	add    %edx,%eax
c0003336:	89 45 f4             	mov    %eax,-0xc(%ebp)
c0003339:	eb 69                	jmp    c00033a4 <vaddr_get+0xff>
c000333b:	e8 33 10 00 00       	call   c0004373 <running_thread>
c0003340:	89 45 e8             	mov    %eax,-0x18(%ebp)
c0003343:	8b 45 e8             	mov    -0x18(%ebp),%eax
c0003346:	83 c0 58             	add    $0x58,%eax
c0003349:	83 ec 08             	sub    $0x8,%esp
c000334c:	ff 75 0c             	pushl  0xc(%ebp)
c000334f:	50                   	push   %eax
c0003350:	e8 9f fd ff ff       	call   c00030f4 <bitmap_scan>
c0003355:	83 c4 10             	add    $0x10,%esp
c0003358:	89 45 ec             	mov    %eax,-0x14(%ebp)
c000335b:	83 7d ec ff          	cmpl   $0xffffffff,-0x14(%ebp)
c000335f:	75 2a                	jne    c000338b <vaddr_get+0xe6>
c0003361:	b8 00 00 00 00       	mov    $0x0,%eax
c0003366:	eb 3f                	jmp    c00033a7 <vaddr_get+0x102>
c0003368:	8b 45 f0             	mov    -0x10(%ebp),%eax
c000336b:	8d 50 01             	lea    0x1(%eax),%edx
c000336e:	89 55 f0             	mov    %edx,-0x10(%ebp)
c0003371:	8b 55 ec             	mov    -0x14(%ebp),%edx
c0003374:	01 c2                	add    %eax,%edx
c0003376:	8b 45 e8             	mov    -0x18(%ebp),%eax
c0003379:	83 c0 58             	add    $0x58,%eax
c000337c:	83 ec 04             	sub    $0x4,%esp
c000337f:	6a 01                	push   $0x1
c0003381:	52                   	push   %edx
c0003382:	50                   	push   %eax
c0003383:	e8 81 fe ff ff       	call   c0003209 <bitmap_set>
c0003388:	83 c4 10             	add    $0x10,%esp
c000338b:	8b 45 f0             	mov    -0x10(%ebp),%eax
c000338e:	3b 45 0c             	cmp    0xc(%ebp),%eax
c0003391:	72 d5                	jb     c0003368 <vaddr_get+0xc3>
c0003393:	8b 45 e8             	mov    -0x18(%ebp),%eax
c0003396:	8b 40 60             	mov    0x60(%eax),%eax
c0003399:	8b 55 ec             	mov    -0x14(%ebp),%edx
c000339c:	c1 e2 0c             	shl    $0xc,%edx
c000339f:	01 d0                	add    %edx,%eax
c00033a1:	89 45 f4             	mov    %eax,-0xc(%ebp)
c00033a4:	8b 45 f4             	mov    -0xc(%ebp),%eax
c00033a7:	8b 5d fc             	mov    -0x4(%ebp),%ebx
c00033aa:	c9                   	leave  
c00033ab:	c3                   	ret    

c00033ac <pte_ptr>:
c00033ac:	55                   	push   %ebp
c00033ad:	89 e5                	mov    %esp,%ebp
c00033af:	83 ec 10             	sub    $0x10,%esp
c00033b2:	e8 21 ec ff ff       	call   c0001fd8 <__x86.get_pc_thunk.ax>
c00033b7:	05 49 ec 00 00       	add    $0xec49,%eax
c00033bc:	8b 45 08             	mov    0x8(%ebp),%eax
c00033bf:	c1 e8 0a             	shr    $0xa,%eax
c00033c2:	25 00 f0 3f 00       	and    $0x3ff000,%eax
c00033c7:	89 c2                	mov    %eax,%edx
c00033c9:	8b 45 08             	mov    0x8(%ebp),%eax
c00033cc:	c1 e8 0c             	shr    $0xc,%eax
c00033cf:	25 ff 03 00 00       	and    $0x3ff,%eax
c00033d4:	c1 e0 02             	shl    $0x2,%eax
c00033d7:	01 d0                	add    %edx,%eax
c00033d9:	2d 00 00 40 00       	sub    $0x400000,%eax
c00033de:	89 45 fc             	mov    %eax,-0x4(%ebp)
c00033e1:	8b 45 fc             	mov    -0x4(%ebp),%eax
c00033e4:	c9                   	leave  
c00033e5:	c3                   	ret    

c00033e6 <pde_ptr>:
c00033e6:	55                   	push   %ebp
c00033e7:	89 e5                	mov    %esp,%ebp
c00033e9:	83 ec 10             	sub    $0x10,%esp
c00033ec:	e8 e7 eb ff ff       	call   c0001fd8 <__x86.get_pc_thunk.ax>
c00033f1:	05 0f ec 00 00       	add    $0xec0f,%eax
c00033f6:	8b 45 08             	mov    0x8(%ebp),%eax
c00033f9:	c1 e8 16             	shr    $0x16,%eax
c00033fc:	05 00 fc ff 3f       	add    $0x3ffffc00,%eax
c0003401:	c1 e0 02             	shl    $0x2,%eax
c0003404:	89 45 fc             	mov    %eax,-0x4(%ebp)
c0003407:	8b 45 fc             	mov    -0x4(%ebp),%eax
c000340a:	c9                   	leave  
c000340b:	c3                   	ret    

c000340c <palloc>:
c000340c:	55                   	push   %ebp
c000340d:	89 e5                	mov    %esp,%ebp
c000340f:	53                   	push   %ebx
c0003410:	83 ec 14             	sub    $0x14,%esp
c0003413:	e8 dd e5 ff ff       	call   c00019f5 <__x86.get_pc_thunk.bx>
c0003418:	81 c3 e8 eb 00 00    	add    $0xebe8,%ebx
c000341e:	8b 45 08             	mov    0x8(%ebp),%eax
c0003421:	83 ec 08             	sub    $0x8,%esp
c0003424:	6a 01                	push   $0x1
c0003426:	50                   	push   %eax
c0003427:	e8 c8 fc ff ff       	call   c00030f4 <bitmap_scan>
c000342c:	83 c4 10             	add    $0x10,%esp
c000342f:	89 45 f4             	mov    %eax,-0xc(%ebp)
c0003432:	83 7d f4 ff          	cmpl   $0xffffffff,-0xc(%ebp)
c0003436:	75 07                	jne    c000343f <palloc+0x33>
c0003438:	b8 00 00 00 00       	mov    $0x0,%eax
c000343d:	eb 2b                	jmp    c000346a <palloc+0x5e>
c000343f:	8b 55 f4             	mov    -0xc(%ebp),%edx
c0003442:	8b 45 08             	mov    0x8(%ebp),%eax
c0003445:	83 ec 04             	sub    $0x4,%esp
c0003448:	6a 01                	push   $0x1
c000344a:	52                   	push   %edx
c000344b:	50                   	push   %eax
c000344c:	e8 b8 fd ff ff       	call   c0003209 <bitmap_set>
c0003451:	83 c4 10             	add    $0x10,%esp
c0003454:	8b 45 f4             	mov    -0xc(%ebp),%eax
c0003457:	c1 e0 0c             	shl    $0xc,%eax
c000345a:	89 c2                	mov    %eax,%edx
c000345c:	8b 45 08             	mov    0x8(%ebp),%eax
c000345f:	8b 40 08             	mov    0x8(%eax),%eax
c0003462:	01 d0                	add    %edx,%eax
c0003464:	89 45 f0             	mov    %eax,-0x10(%ebp)
c0003467:	8b 45 f0             	mov    -0x10(%ebp),%eax
c000346a:	8b 5d fc             	mov    -0x4(%ebp),%ebx
c000346d:	c9                   	leave  
c000346e:	c3                   	ret    

c000346f <page_table_add>:
c000346f:	55                   	push   %ebp
c0003470:	89 e5                	mov    %esp,%ebp
c0003472:	53                   	push   %ebx
c0003473:	83 ec 24             	sub    $0x24,%esp
c0003476:	e8 7a e5 ff ff       	call   c00019f5 <__x86.get_pc_thunk.bx>
c000347b:	81 c3 85 eb 00 00    	add    $0xeb85,%ebx
c0003481:	8b 45 08             	mov    0x8(%ebp),%eax
c0003484:	89 45 f4             	mov    %eax,-0xc(%ebp)
c0003487:	8b 45 0c             	mov    0xc(%ebp),%eax
c000348a:	89 45 f0             	mov    %eax,-0x10(%ebp)
c000348d:	ff 75 f4             	pushl  -0xc(%ebp)
c0003490:	e8 51 ff ff ff       	call   c00033e6 <pde_ptr>
c0003495:	83 c4 04             	add    $0x4,%esp
c0003498:	89 45 ec             	mov    %eax,-0x14(%ebp)
c000349b:	ff 75 f4             	pushl  -0xc(%ebp)
c000349e:	e8 09 ff ff ff       	call   c00033ac <pte_ptr>
c00034a3:	83 c4 04             	add    $0x4,%esp
c00034a6:	89 45 e8             	mov    %eax,-0x18(%ebp)
c00034a9:	8b 45 ec             	mov    -0x14(%ebp),%eax
c00034ac:	8b 00                	mov    (%eax),%eax
c00034ae:	83 e0 01             	and    $0x1,%eax
c00034b1:	85 c0                	test   %eax,%eax
c00034b3:	74 2a                	je     c00034df <page_table_add+0x70>
c00034b5:	8b 45 e8             	mov    -0x18(%ebp),%eax
c00034b8:	8b 00                	mov    (%eax),%eax
c00034ba:	83 e0 01             	and    $0x1,%eax
c00034bd:	85 c0                	test   %eax,%eax
c00034bf:	75 0f                	jne    c00034d0 <page_table_add+0x61>
c00034c1:	8b 45 f0             	mov    -0x10(%ebp),%eax
c00034c4:	83 c8 07             	or     $0x7,%eax
c00034c7:	89 c2                	mov    %eax,%edx
c00034c9:	8b 45 e8             	mov    -0x18(%ebp),%eax
c00034cc:	89 10                	mov    %edx,(%eax)
c00034ce:	eb 59                	jmp    c0003529 <page_table_add+0xba>
c00034d0:	8b 45 f0             	mov    -0x10(%ebp),%eax
c00034d3:	83 c8 07             	or     $0x7,%eax
c00034d6:	89 c2                	mov    %eax,%edx
c00034d8:	8b 45 e8             	mov    -0x18(%ebp),%eax
c00034db:	89 10                	mov    %edx,(%eax)
c00034dd:	eb 4a                	jmp    c0003529 <page_table_add+0xba>
c00034df:	83 ec 0c             	sub    $0xc,%esp
c00034e2:	c7 c0 a0 31 01 c0    	mov    $0xc00131a0,%eax
c00034e8:	50                   	push   %eax
c00034e9:	e8 1e ff ff ff       	call   c000340c <palloc>
c00034ee:	83 c4 10             	add    $0x10,%esp
c00034f1:	89 45 e4             	mov    %eax,-0x1c(%ebp)
c00034f4:	8b 45 e4             	mov    -0x1c(%ebp),%eax
c00034f7:	83 c8 07             	or     $0x7,%eax
c00034fa:	89 c2                	mov    %eax,%edx
c00034fc:	8b 45 ec             	mov    -0x14(%ebp),%eax
c00034ff:	89 10                	mov    %edx,(%eax)
c0003501:	8b 45 e8             	mov    -0x18(%ebp),%eax
c0003504:	25 00 f0 ff ff       	and    $0xfffff000,%eax
c0003509:	83 ec 04             	sub    $0x4,%esp
c000350c:	68 00 10 00 00       	push   $0x1000
c0003511:	6a 00                	push   $0x0
c0003513:	50                   	push   %eax
c0003514:	e8 7c f8 ff ff       	call   c0002d95 <memset>
c0003519:	83 c4 10             	add    $0x10,%esp
c000351c:	8b 45 f0             	mov    -0x10(%ebp),%eax
c000351f:	83 c8 07             	or     $0x7,%eax
c0003522:	89 c2                	mov    %eax,%edx
c0003524:	8b 45 e8             	mov    -0x18(%ebp),%eax
c0003527:	89 10                	mov    %edx,(%eax)
c0003529:	90                   	nop
c000352a:	8b 5d fc             	mov    -0x4(%ebp),%ebx
c000352d:	c9                   	leave  
c000352e:	c3                   	ret    

c000352f <malloc_page>:
c000352f:	55                   	push   %ebp
c0003530:	89 e5                	mov    %esp,%ebp
c0003532:	53                   	push   %ebx
c0003533:	83 ec 24             	sub    $0x24,%esp
c0003536:	e8 ba e4 ff ff       	call   c00019f5 <__x86.get_pc_thunk.bx>
c000353b:	81 c3 c5 ea 00 00    	add    $0xeac5,%ebx
c0003541:	83 ec 08             	sub    $0x8,%esp
c0003544:	ff 75 0c             	pushl  0xc(%ebp)
c0003547:	ff 75 08             	pushl  0x8(%ebp)
c000354a:	e8 56 fd ff ff       	call   c00032a5 <vaddr_get>
c000354f:	83 c4 10             	add    $0x10,%esp
c0003552:	89 45 ec             	mov    %eax,-0x14(%ebp)
c0003555:	83 7d ec 00          	cmpl   $0x0,-0x14(%ebp)
c0003559:	75 07                	jne    c0003562 <malloc_page+0x33>
c000355b:	b8 00 00 00 00       	mov    $0x0,%eax
c0003560:	eb 70                	jmp    c00035d2 <malloc_page+0xa3>
c0003562:	8b 45 ec             	mov    -0x14(%ebp),%eax
c0003565:	89 45 f4             	mov    %eax,-0xc(%ebp)
c0003568:	8b 45 0c             	mov    0xc(%ebp),%eax
c000356b:	89 45 f0             	mov    %eax,-0x10(%ebp)
c000356e:	8b 45 08             	mov    0x8(%ebp),%eax
c0003571:	83 e0 01             	and    $0x1,%eax
c0003574:	85 c0                	test   %eax,%eax
c0003576:	74 08                	je     c0003580 <malloc_page+0x51>
c0003578:	c7 c0 a0 31 01 c0    	mov    $0xc00131a0,%eax
c000357e:	eb 06                	jmp    c0003586 <malloc_page+0x57>
c0003580:	c7 c0 a0 30 01 c0    	mov    $0xc00130a0,%eax
c0003586:	89 45 e8             	mov    %eax,-0x18(%ebp)
c0003589:	eb 37                	jmp    c00035c2 <malloc_page+0x93>
c000358b:	83 ec 0c             	sub    $0xc,%esp
c000358e:	ff 75 e8             	pushl  -0x18(%ebp)
c0003591:	e8 76 fe ff ff       	call   c000340c <palloc>
c0003596:	83 c4 10             	add    $0x10,%esp
c0003599:	89 45 e4             	mov    %eax,-0x1c(%ebp)
c000359c:	83 7d e4 00          	cmpl   $0x0,-0x1c(%ebp)
c00035a0:	75 07                	jne    c00035a9 <malloc_page+0x7a>
c00035a2:	b8 00 00 00 00       	mov    $0x0,%eax
c00035a7:	eb 29                	jmp    c00035d2 <malloc_page+0xa3>
c00035a9:	8b 45 f4             	mov    -0xc(%ebp),%eax
c00035ac:	83 ec 08             	sub    $0x8,%esp
c00035af:	ff 75 e4             	pushl  -0x1c(%ebp)
c00035b2:	50                   	push   %eax
c00035b3:	e8 b7 fe ff ff       	call   c000346f <page_table_add>
c00035b8:	83 c4 10             	add    $0x10,%esp
c00035bb:	81 45 f4 00 10 00 00 	addl   $0x1000,-0xc(%ebp)
c00035c2:	8b 45 f0             	mov    -0x10(%ebp),%eax
c00035c5:	8d 50 ff             	lea    -0x1(%eax),%edx
c00035c8:	89 55 f0             	mov    %edx,-0x10(%ebp)
c00035cb:	85 c0                	test   %eax,%eax
c00035cd:	75 bc                	jne    c000358b <malloc_page+0x5c>
c00035cf:	8b 45 ec             	mov    -0x14(%ebp),%eax
c00035d2:	8b 5d fc             	mov    -0x4(%ebp),%ebx
c00035d5:	c9                   	leave  
c00035d6:	c3                   	ret    

c00035d7 <get_kernel_pages>:
c00035d7:	55                   	push   %ebp
c00035d8:	89 e5                	mov    %esp,%ebp
c00035da:	53                   	push   %ebx
c00035db:	83 ec 14             	sub    $0x14,%esp
c00035de:	e8 12 e4 ff ff       	call   c00019f5 <__x86.get_pc_thunk.bx>
c00035e3:	81 c3 1d ea 00 00    	add    $0xea1d,%ebx
c00035e9:	83 ec 08             	sub    $0x8,%esp
c00035ec:	ff 75 08             	pushl  0x8(%ebp)
c00035ef:	6a 01                	push   $0x1
c00035f1:	e8 39 ff ff ff       	call   c000352f <malloc_page>
c00035f6:	83 c4 10             	add    $0x10,%esp
c00035f9:	89 45 f4             	mov    %eax,-0xc(%ebp)
c00035fc:	83 ec 0c             	sub    $0xc,%esp
c00035ff:	8d 83 04 b4 ff ff    	lea    -0x4bfc(%ebx),%eax
c0003605:	50                   	push   %eax
c0003606:	e8 35 f1 ff ff       	call   c0002740 <put_str>
c000360b:	83 c4 10             	add    $0x10,%esp
c000360e:	83 7d f4 00          	cmpl   $0x0,-0xc(%ebp)
c0003612:	74 17                	je     c000362b <get_kernel_pages+0x54>
c0003614:	8b 45 08             	mov    0x8(%ebp),%eax
c0003617:	c1 e0 0c             	shl    $0xc,%eax
c000361a:	83 ec 04             	sub    $0x4,%esp
c000361d:	50                   	push   %eax
c000361e:	6a 00                	push   $0x0
c0003620:	ff 75 f4             	pushl  -0xc(%ebp)
c0003623:	e8 6d f7 ff ff       	call   c0002d95 <memset>
c0003628:	83 c4 10             	add    $0x10,%esp
c000362b:	8b 45 f4             	mov    -0xc(%ebp),%eax
c000362e:	8b 5d fc             	mov    -0x4(%ebp),%ebx
c0003631:	c9                   	leave  
c0003632:	c3                   	ret    

c0003633 <get_user_pages>:
c0003633:	55                   	push   %ebp
c0003634:	89 e5                	mov    %esp,%ebp
c0003636:	53                   	push   %ebx
c0003637:	83 ec 14             	sub    $0x14,%esp
c000363a:	e8 b6 e3 ff ff       	call   c00019f5 <__x86.get_pc_thunk.bx>
c000363f:	81 c3 c1 e9 00 00    	add    $0xe9c1,%ebx
c0003645:	83 ec 0c             	sub    $0xc,%esp
c0003648:	c7 c0 a0 30 01 c0    	mov    $0xc00130a0,%eax
c000364e:	8d 40 10             	lea    0x10(%eax),%eax
c0003651:	50                   	push   %eax
c0003652:	e8 86 18 00 00       	call   c0004edd <lock_acquire>
c0003657:	83 c4 10             	add    $0x10,%esp
c000365a:	83 ec 08             	sub    $0x8,%esp
c000365d:	ff 75 08             	pushl  0x8(%ebp)
c0003660:	6a 02                	push   $0x2
c0003662:	e8 c8 fe ff ff       	call   c000352f <malloc_page>
c0003667:	83 c4 10             	add    $0x10,%esp
c000366a:	89 45 f4             	mov    %eax,-0xc(%ebp)
c000366d:	8b 45 08             	mov    0x8(%ebp),%eax
c0003670:	c1 e0 0c             	shl    $0xc,%eax
c0003673:	83 ec 04             	sub    $0x4,%esp
c0003676:	50                   	push   %eax
c0003677:	6a 00                	push   $0x0
c0003679:	ff 75 f4             	pushl  -0xc(%ebp)
c000367c:	e8 14 f7 ff ff       	call   c0002d95 <memset>
c0003681:	83 c4 10             	add    $0x10,%esp
c0003684:	83 ec 0c             	sub    $0xc,%esp
c0003687:	c7 c0 a0 30 01 c0    	mov    $0xc00130a0,%eax
c000368d:	8d 40 10             	lea    0x10(%eax),%eax
c0003690:	50                   	push   %eax
c0003691:	e8 a6 18 00 00       	call   c0004f3c <lock_release>
c0003696:	83 c4 10             	add    $0x10,%esp
c0003699:	8b 45 f4             	mov    -0xc(%ebp),%eax
c000369c:	8b 5d fc             	mov    -0x4(%ebp),%ebx
c000369f:	c9                   	leave  
c00036a0:	c3                   	ret    

c00036a1 <get_a_page>:
c00036a1:	55                   	push   %ebp
c00036a2:	89 e5                	mov    %esp,%ebp
c00036a4:	53                   	push   %ebx
c00036a5:	83 ec 14             	sub    $0x14,%esp
c00036a8:	e8 48 e3 ff ff       	call   c00019f5 <__x86.get_pc_thunk.bx>
c00036ad:	81 c3 53 e9 00 00    	add    $0xe953,%ebx
c00036b3:	8b 45 08             	mov    0x8(%ebp),%eax
c00036b6:	83 e0 01             	and    $0x1,%eax
c00036b9:	85 c0                	test   %eax,%eax
c00036bb:	74 08                	je     c00036c5 <get_a_page+0x24>
c00036bd:	c7 c0 a0 31 01 c0    	mov    $0xc00131a0,%eax
c00036c3:	eb 06                	jmp    c00036cb <get_a_page+0x2a>
c00036c5:	c7 c0 a0 30 01 c0    	mov    $0xc00130a0,%eax
c00036cb:	89 45 f4             	mov    %eax,-0xc(%ebp)
c00036ce:	8b 45 f4             	mov    -0xc(%ebp),%eax
c00036d1:	83 c0 10             	add    $0x10,%eax
c00036d4:	83 ec 0c             	sub    $0xc,%esp
c00036d7:	50                   	push   %eax
c00036d8:	e8 00 18 00 00       	call   c0004edd <lock_acquire>
c00036dd:	83 c4 10             	add    $0x10,%esp
c00036e0:	e8 8e 0c 00 00       	call   c0004373 <running_thread>
c00036e5:	89 45 f0             	mov    %eax,-0x10(%ebp)
c00036e8:	c7 45 ec ff ff ff ff 	movl   $0xffffffff,-0x14(%ebp)
c00036ef:	8b 45 f0             	mov    -0x10(%ebp),%eax
c00036f2:	8b 40 54             	mov    0x54(%eax),%eax
c00036f5:	85 c0                	test   %eax,%eax
c00036f7:	74 33                	je     c000372c <get_a_page+0x8b>
c00036f9:	83 7d 08 02          	cmpl   $0x2,0x8(%ebp)
c00036fd:	75 2d                	jne    c000372c <get_a_page+0x8b>
c00036ff:	8b 45 f0             	mov    -0x10(%ebp),%eax
c0003702:	8b 40 60             	mov    0x60(%eax),%eax
c0003705:	8b 55 0c             	mov    0xc(%ebp),%edx
c0003708:	29 c2                	sub    %eax,%edx
c000370a:	89 d0                	mov    %edx,%eax
c000370c:	c1 e8 0c             	shr    $0xc,%eax
c000370f:	89 45 ec             	mov    %eax,-0x14(%ebp)
c0003712:	8b 45 ec             	mov    -0x14(%ebp),%eax
c0003715:	8b 55 f0             	mov    -0x10(%ebp),%edx
c0003718:	83 c2 58             	add    $0x58,%edx
c000371b:	83 ec 04             	sub    $0x4,%esp
c000371e:	6a 01                	push   $0x1
c0003720:	50                   	push   %eax
c0003721:	52                   	push   %edx
c0003722:	e8 e2 fa ff ff       	call   c0003209 <bitmap_set>
c0003727:	83 c4 10             	add    $0x10,%esp
c000372a:	eb 62                	jmp    c000378e <get_a_page+0xed>
c000372c:	8b 45 f0             	mov    -0x10(%ebp),%eax
c000372f:	8b 40 54             	mov    0x54(%eax),%eax
c0003732:	85 c0                	test   %eax,%eax
c0003734:	75 36                	jne    c000376c <get_a_page+0xcb>
c0003736:	83 7d 08 01          	cmpl   $0x1,0x8(%ebp)
c000373a:	75 30                	jne    c000376c <get_a_page+0xcb>
c000373c:	c7 c0 88 31 01 c0    	mov    $0xc0013188,%eax
c0003742:	8b 40 08             	mov    0x8(%eax),%eax
c0003745:	8b 55 0c             	mov    0xc(%ebp),%edx
c0003748:	29 c2                	sub    %eax,%edx
c000374a:	89 d0                	mov    %edx,%eax
c000374c:	c1 e8 0c             	shr    $0xc,%eax
c000374f:	89 45 ec             	mov    %eax,-0x14(%ebp)
c0003752:	8b 45 ec             	mov    -0x14(%ebp),%eax
c0003755:	83 ec 04             	sub    $0x4,%esp
c0003758:	6a 01                	push   $0x1
c000375a:	50                   	push   %eax
c000375b:	c7 c0 88 31 01 c0    	mov    $0xc0013188,%eax
c0003761:	50                   	push   %eax
c0003762:	e8 a2 fa ff ff       	call   c0003209 <bitmap_set>
c0003767:	83 c4 10             	add    $0x10,%esp
c000376a:	eb 22                	jmp    c000378e <get_a_page+0xed>
c000376c:	8d 83 08 b4 ff ff    	lea    -0x4bf8(%ebx),%eax
c0003772:	50                   	push   %eax
c0003773:	8d 83 48 b5 ff ff    	lea    -0x4ab8(%ebx),%eax
c0003779:	50                   	push   %eax
c000377a:	68 ae 00 00 00       	push   $0xae
c000377f:	8d 83 5c b4 ff ff    	lea    -0x4ba4(%ebx),%eax
c0003785:	50                   	push   %eax
c0003786:	e8 66 f1 ff ff       	call   c00028f1 <panic_spin>
c000378b:	83 c4 10             	add    $0x10,%esp
c000378e:	83 ec 0c             	sub    $0xc,%esp
c0003791:	ff 75 f4             	pushl  -0xc(%ebp)
c0003794:	e8 73 fc ff ff       	call   c000340c <palloc>
c0003799:	83 c4 10             	add    $0x10,%esp
c000379c:	89 45 e8             	mov    %eax,-0x18(%ebp)
c000379f:	83 7d e8 00          	cmpl   $0x0,-0x18(%ebp)
c00037a3:	75 07                	jne    c00037ac <get_a_page+0x10b>
c00037a5:	b8 00 00 00 00       	mov    $0x0,%eax
c00037aa:	eb 27                	jmp    c00037d3 <get_a_page+0x132>
c00037ac:	8b 45 0c             	mov    0xc(%ebp),%eax
c00037af:	83 ec 08             	sub    $0x8,%esp
c00037b2:	ff 75 e8             	pushl  -0x18(%ebp)
c00037b5:	50                   	push   %eax
c00037b6:	e8 b4 fc ff ff       	call   c000346f <page_table_add>
c00037bb:	83 c4 10             	add    $0x10,%esp
c00037be:	8b 45 f4             	mov    -0xc(%ebp),%eax
c00037c1:	83 c0 10             	add    $0x10,%eax
c00037c4:	83 ec 0c             	sub    $0xc,%esp
c00037c7:	50                   	push   %eax
c00037c8:	e8 6f 17 00 00       	call   c0004f3c <lock_release>
c00037cd:	83 c4 10             	add    $0x10,%esp
c00037d0:	8b 45 0c             	mov    0xc(%ebp),%eax
c00037d3:	8b 5d fc             	mov    -0x4(%ebp),%ebx
c00037d6:	c9                   	leave  
c00037d7:	c3                   	ret    

c00037d8 <get_a_page_without_opvaddrbitmap>:
c00037d8:	55                   	push   %ebp
c00037d9:	89 e5                	mov    %esp,%ebp
c00037db:	53                   	push   %ebx
c00037dc:	83 ec 14             	sub    $0x14,%esp
c00037df:	e8 11 e2 ff ff       	call   c00019f5 <__x86.get_pc_thunk.bx>
c00037e4:	81 c3 1c e8 00 00    	add    $0xe81c,%ebx
c00037ea:	8b 45 08             	mov    0x8(%ebp),%eax
c00037ed:	83 e0 01             	and    $0x1,%eax
c00037f0:	85 c0                	test   %eax,%eax
c00037f2:	74 08                	je     c00037fc <get_a_page_without_opvaddrbitmap+0x24>
c00037f4:	c7 c0 a0 31 01 c0    	mov    $0xc00131a0,%eax
c00037fa:	eb 06                	jmp    c0003802 <get_a_page_without_opvaddrbitmap+0x2a>
c00037fc:	c7 c0 a0 30 01 c0    	mov    $0xc00130a0,%eax
c0003802:	89 45 f4             	mov    %eax,-0xc(%ebp)
c0003805:	8b 45 f4             	mov    -0xc(%ebp),%eax
c0003808:	83 c0 10             	add    $0x10,%eax
c000380b:	83 ec 0c             	sub    $0xc,%esp
c000380e:	50                   	push   %eax
c000380f:	e8 c9 16 00 00       	call   c0004edd <lock_acquire>
c0003814:	83 c4 10             	add    $0x10,%esp
c0003817:	83 ec 0c             	sub    $0xc,%esp
c000381a:	ff 75 f4             	pushl  -0xc(%ebp)
c000381d:	e8 ea fb ff ff       	call   c000340c <palloc>
c0003822:	83 c4 10             	add    $0x10,%esp
c0003825:	89 45 f0             	mov    %eax,-0x10(%ebp)
c0003828:	83 7d f0 00          	cmpl   $0x0,-0x10(%ebp)
c000382c:	75 19                	jne    c0003847 <get_a_page_without_opvaddrbitmap+0x6f>
c000382e:	8b 45 f4             	mov    -0xc(%ebp),%eax
c0003831:	83 c0 10             	add    $0x10,%eax
c0003834:	83 ec 0c             	sub    $0xc,%esp
c0003837:	50                   	push   %eax
c0003838:	e8 ff 16 00 00       	call   c0004f3c <lock_release>
c000383d:	83 c4 10             	add    $0x10,%esp
c0003840:	b8 00 00 00 00       	mov    $0x0,%eax
c0003845:	eb 27                	jmp    c000386e <get_a_page_without_opvaddrbitmap+0x96>
c0003847:	8b 45 0c             	mov    0xc(%ebp),%eax
c000384a:	83 ec 08             	sub    $0x8,%esp
c000384d:	ff 75 f0             	pushl  -0x10(%ebp)
c0003850:	50                   	push   %eax
c0003851:	e8 19 fc ff ff       	call   c000346f <page_table_add>
c0003856:	83 c4 10             	add    $0x10,%esp
c0003859:	8b 45 f4             	mov    -0xc(%ebp),%eax
c000385c:	83 c0 10             	add    $0x10,%eax
c000385f:	83 ec 0c             	sub    $0xc,%esp
c0003862:	50                   	push   %eax
c0003863:	e8 d4 16 00 00       	call   c0004f3c <lock_release>
c0003868:	83 c4 10             	add    $0x10,%esp
c000386b:	8b 45 0c             	mov    0xc(%ebp),%eax
c000386e:	8b 5d fc             	mov    -0x4(%ebp),%ebx
c0003871:	c9                   	leave  
c0003872:	c3                   	ret    

c0003873 <addr_v2p>:
c0003873:	55                   	push   %ebp
c0003874:	89 e5                	mov    %esp,%ebp
c0003876:	83 ec 10             	sub    $0x10,%esp
c0003879:	e8 5a e7 ff ff       	call   c0001fd8 <__x86.get_pc_thunk.ax>
c000387e:	05 82 e7 00 00       	add    $0xe782,%eax
c0003883:	ff 75 08             	pushl  0x8(%ebp)
c0003886:	e8 21 fb ff ff       	call   c00033ac <pte_ptr>
c000388b:	83 c4 04             	add    $0x4,%esp
c000388e:	89 45 fc             	mov    %eax,-0x4(%ebp)
c0003891:	8b 45 fc             	mov    -0x4(%ebp),%eax
c0003894:	8b 00                	mov    (%eax),%eax
c0003896:	25 00 f0 ff ff       	and    $0xfffff000,%eax
c000389b:	89 c2                	mov    %eax,%edx
c000389d:	8b 45 08             	mov    0x8(%ebp),%eax
c00038a0:	25 ff 0f 00 00       	and    $0xfff,%eax
c00038a5:	09 d0                	or     %edx,%eax
c00038a7:	c9                   	leave  
c00038a8:	c3                   	ret    

c00038a9 <block_desc_init>:
c00038a9:	55                   	push   %ebp
c00038aa:	89 e5                	mov    %esp,%ebp
c00038ac:	53                   	push   %ebx
c00038ad:	83 ec 14             	sub    $0x14,%esp
c00038b0:	e8 40 e1 ff ff       	call   c00019f5 <__x86.get_pc_thunk.bx>
c00038b5:	81 c3 4b e7 00 00    	add    $0xe74b,%ebx
c00038bb:	66 c7 45 f4 10 00    	movw   $0x10,-0xc(%ebp)
c00038c1:	66 c7 45 f6 00 00    	movw   $0x0,-0xa(%ebp)
c00038c7:	eb 76                	jmp    c000393f <block_desc_init+0x96>
c00038c9:	0f b7 55 f6          	movzwl -0xa(%ebp),%edx
c00038cd:	89 d0                	mov    %edx,%eax
c00038cf:	01 c0                	add    %eax,%eax
c00038d1:	01 d0                	add    %edx,%eax
c00038d3:	c1 e0 03             	shl    $0x3,%eax
c00038d6:	89 c2                	mov    %eax,%edx
c00038d8:	8b 45 08             	mov    0x8(%ebp),%eax
c00038db:	01 c2                	add    %eax,%edx
c00038dd:	0f b7 45 f4          	movzwl -0xc(%ebp),%eax
c00038e1:	89 02                	mov    %eax,(%edx)
c00038e3:	b8 f4 0f 00 00       	mov    $0xff4,%eax
c00038e8:	ba 00 00 00 00       	mov    $0x0,%edx
c00038ed:	66 f7 75 f4          	divw   -0xc(%ebp)
c00038f1:	89 c1                	mov    %eax,%ecx
c00038f3:	0f b7 55 f6          	movzwl -0xa(%ebp),%edx
c00038f7:	89 d0                	mov    %edx,%eax
c00038f9:	01 c0                	add    %eax,%eax
c00038fb:	01 d0                	add    %edx,%eax
c00038fd:	c1 e0 03             	shl    $0x3,%eax
c0003900:	89 c2                	mov    %eax,%edx
c0003902:	8b 45 08             	mov    0x8(%ebp),%eax
c0003905:	01 c2                	add    %eax,%edx
c0003907:	0f b7 c1             	movzwl %cx,%eax
c000390a:	89 42 04             	mov    %eax,0x4(%edx)
c000390d:	0f b7 55 f6          	movzwl -0xa(%ebp),%edx
c0003911:	89 d0                	mov    %edx,%eax
c0003913:	01 c0                	add    %eax,%eax
c0003915:	01 d0                	add    %edx,%eax
c0003917:	c1 e0 03             	shl    $0x3,%eax
c000391a:	89 c2                	mov    %eax,%edx
c000391c:	8b 45 08             	mov    0x8(%ebp),%eax
c000391f:	01 d0                	add    %edx,%eax
c0003921:	83 c0 08             	add    $0x8,%eax
c0003924:	83 ec 0c             	sub    $0xc,%esp
c0003927:	50                   	push   %eax
c0003928:	e8 b8 f0 ff ff       	call   c00029e5 <list_init>
c000392d:	83 c4 10             	add    $0x10,%esp
c0003930:	66 d1 65 f4          	shlw   -0xc(%ebp)
c0003934:	0f b7 45 f6          	movzwl -0xa(%ebp),%eax
c0003938:	83 c0 01             	add    $0x1,%eax
c000393b:	66 89 45 f6          	mov    %ax,-0xa(%ebp)
c000393f:	66 83 7d f6 06       	cmpw   $0x6,-0xa(%ebp)
c0003944:	76 83                	jbe    c00038c9 <block_desc_init+0x20>
c0003946:	90                   	nop
c0003947:	8b 5d fc             	mov    -0x4(%ebp),%ebx
c000394a:	c9                   	leave  
c000394b:	c3                   	ret    

c000394c <arena2block>:
c000394c:	55                   	push   %ebp
c000394d:	89 e5                	mov    %esp,%ebp
c000394f:	e8 84 e6 ff ff       	call   c0001fd8 <__x86.get_pc_thunk.ax>
c0003954:	05 ac e6 00 00       	add    $0xe6ac,%eax
c0003959:	8b 45 08             	mov    0x8(%ebp),%eax
c000395c:	8b 00                	mov    (%eax),%eax
c000395e:	8b 00                	mov    (%eax),%eax
c0003960:	0f af 45 0c          	imul   0xc(%ebp),%eax
c0003964:	89 c2                	mov    %eax,%edx
c0003966:	8b 45 08             	mov    0x8(%ebp),%eax
c0003969:	01 d0                	add    %edx,%eax
c000396b:	83 c0 0c             	add    $0xc,%eax
c000396e:	5d                   	pop    %ebp
c000396f:	c3                   	ret    

c0003970 <block2arena>:
c0003970:	55                   	push   %ebp
c0003971:	89 e5                	mov    %esp,%ebp
c0003973:	e8 60 e6 ff ff       	call   c0001fd8 <__x86.get_pc_thunk.ax>
c0003978:	05 88 e6 00 00       	add    $0xe688,%eax
c000397d:	8b 45 08             	mov    0x8(%ebp),%eax
c0003980:	25 00 f0 ff ff       	and    $0xfffff000,%eax
c0003985:	5d                   	pop    %ebp
c0003986:	c3                   	ret    

c0003987 <sys_malloc>:
c0003987:	55                   	push   %ebp
c0003988:	89 e5                	mov    %esp,%ebp
c000398a:	53                   	push   %ebx
c000398b:	83 ec 34             	sub    $0x34,%esp
c000398e:	e8 62 e0 ff ff       	call   c00019f5 <__x86.get_pc_thunk.bx>
c0003993:	81 c3 6d e6 00 00    	add    $0xe66d,%ebx
c0003999:	e8 d5 09 00 00       	call   c0004373 <running_thread>
c000399e:	89 45 dc             	mov    %eax,-0x24(%ebp)
c00039a1:	8b 45 dc             	mov    -0x24(%ebp),%eax
c00039a4:	8b 40 54             	mov    0x54(%eax),%eax
c00039a7:	85 c0                	test   %eax,%eax
c00039a9:	75 27                	jne    c00039d2 <sys_malloc+0x4b>
c00039ab:	c7 45 f4 01 00 00 00 	movl   $0x1,-0xc(%ebp)
c00039b2:	c7 c0 a0 31 01 c0    	mov    $0xc00131a0,%eax
c00039b8:	8b 40 0c             	mov    0xc(%eax),%eax
c00039bb:	89 45 ec             	mov    %eax,-0x14(%ebp)
c00039be:	c7 c0 a0 31 01 c0    	mov    $0xc00131a0,%eax
c00039c4:	89 45 f0             	mov    %eax,-0x10(%ebp)
c00039c7:	c7 c0 e0 30 01 c0    	mov    $0xc00130e0,%eax
c00039cd:	89 45 e8             	mov    %eax,-0x18(%ebp)
c00039d0:	eb 25                	jmp    c00039f7 <sys_malloc+0x70>
c00039d2:	c7 45 f4 02 00 00 00 	movl   $0x2,-0xc(%ebp)
c00039d9:	c7 c0 a0 30 01 c0    	mov    $0xc00130a0,%eax
c00039df:	8b 40 0c             	mov    0xc(%eax),%eax
c00039e2:	89 45 ec             	mov    %eax,-0x14(%ebp)
c00039e5:	c7 c0 a0 30 01 c0    	mov    $0xc00130a0,%eax
c00039eb:	89 45 f0             	mov    %eax,-0x10(%ebp)
c00039ee:	8b 45 dc             	mov    -0x24(%ebp),%eax
c00039f1:	83 c0 64             	add    $0x64,%eax
c00039f4:	89 45 e8             	mov    %eax,-0x18(%ebp)
c00039f7:	83 7d 08 00          	cmpl   $0x0,0x8(%ebp)
c00039fb:	74 08                	je     c0003a05 <sys_malloc+0x7e>
c00039fd:	8b 45 08             	mov    0x8(%ebp),%eax
c0003a00:	3b 45 ec             	cmp    -0x14(%ebp),%eax
c0003a03:	72 0a                	jb     c0003a0f <sys_malloc+0x88>
c0003a05:	b8 00 00 00 00       	mov    $0x0,%eax
c0003a0a:	e9 89 02 00 00       	jmp    c0003c98 <sys_malloc+0x311>
c0003a0f:	8b 45 f0             	mov    -0x10(%ebp),%eax
c0003a12:	83 c0 10             	add    $0x10,%eax
c0003a15:	83 ec 0c             	sub    $0xc,%esp
c0003a18:	50                   	push   %eax
c0003a19:	e8 bf 14 00 00       	call   c0004edd <lock_acquire>
c0003a1e:	83 c4 10             	add    $0x10,%esp
c0003a21:	81 7d 08 00 04 00 00 	cmpl   $0x400,0x8(%ebp)
c0003a28:	0f 86 94 00 00 00    	jbe    c0003ac2 <sys_malloc+0x13b>
c0003a2e:	8b 45 08             	mov    0x8(%ebp),%eax
c0003a31:	05 0b 10 00 00       	add    $0x100b,%eax
c0003a36:	c1 e8 0c             	shr    $0xc,%eax
c0003a39:	89 45 cc             	mov    %eax,-0x34(%ebp)
c0003a3c:	83 ec 08             	sub    $0x8,%esp
c0003a3f:	ff 75 cc             	pushl  -0x34(%ebp)
c0003a42:	ff 75 f4             	pushl  -0xc(%ebp)
c0003a45:	e8 e5 fa ff ff       	call   c000352f <malloc_page>
c0003a4a:	83 c4 10             	add    $0x10,%esp
c0003a4d:	89 45 d8             	mov    %eax,-0x28(%ebp)
c0003a50:	83 7d d8 00          	cmpl   $0x0,-0x28(%ebp)
c0003a54:	74 50                	je     c0003aa6 <sys_malloc+0x11f>
c0003a56:	8b 45 cc             	mov    -0x34(%ebp),%eax
c0003a59:	c1 e0 0c             	shl    $0xc,%eax
c0003a5c:	83 ec 04             	sub    $0x4,%esp
c0003a5f:	50                   	push   %eax
c0003a60:	6a 00                	push   $0x0
c0003a62:	ff 75 d8             	pushl  -0x28(%ebp)
c0003a65:	e8 2b f3 ff ff       	call   c0002d95 <memset>
c0003a6a:	83 c4 10             	add    $0x10,%esp
c0003a6d:	8b 45 d8             	mov    -0x28(%ebp),%eax
c0003a70:	c7 00 00 00 00 00    	movl   $0x0,(%eax)
c0003a76:	8b 45 d8             	mov    -0x28(%ebp),%eax
c0003a79:	8b 55 cc             	mov    -0x34(%ebp),%edx
c0003a7c:	89 50 04             	mov    %edx,0x4(%eax)
c0003a7f:	8b 45 d8             	mov    -0x28(%ebp),%eax
c0003a82:	c7 40 08 01 00 00 00 	movl   $0x1,0x8(%eax)
c0003a89:	8b 45 f0             	mov    -0x10(%ebp),%eax
c0003a8c:	83 c0 10             	add    $0x10,%eax
c0003a8f:	83 ec 0c             	sub    $0xc,%esp
c0003a92:	50                   	push   %eax
c0003a93:	e8 a4 14 00 00       	call   c0004f3c <lock_release>
c0003a98:	83 c4 10             	add    $0x10,%esp
c0003a9b:	8b 45 d8             	mov    -0x28(%ebp),%eax
c0003a9e:	83 c0 0c             	add    $0xc,%eax
c0003aa1:	e9 f2 01 00 00       	jmp    c0003c98 <sys_malloc+0x311>
c0003aa6:	8b 45 f0             	mov    -0x10(%ebp),%eax
c0003aa9:	83 c0 10             	add    $0x10,%eax
c0003aac:	83 ec 0c             	sub    $0xc,%esp
c0003aaf:	50                   	push   %eax
c0003ab0:	e8 87 14 00 00       	call   c0004f3c <lock_release>
c0003ab5:	83 c4 10             	add    $0x10,%esp
c0003ab8:	b8 00 00 00 00       	mov    $0x0,%eax
c0003abd:	e9 d6 01 00 00       	jmp    c0003c98 <sys_malloc+0x311>
c0003ac2:	c6 45 e7 00          	movb   $0x0,-0x19(%ebp)
c0003ac6:	eb 25                	jmp    c0003aed <sys_malloc+0x166>
c0003ac8:	0f b6 55 e7          	movzbl -0x19(%ebp),%edx
c0003acc:	89 d0                	mov    %edx,%eax
c0003ace:	01 c0                	add    %eax,%eax
c0003ad0:	01 d0                	add    %edx,%eax
c0003ad2:	c1 e0 03             	shl    $0x3,%eax
c0003ad5:	89 c2                	mov    %eax,%edx
c0003ad7:	8b 45 e8             	mov    -0x18(%ebp),%eax
c0003ada:	01 d0                	add    %edx,%eax
c0003adc:	8b 00                	mov    (%eax),%eax
c0003ade:	39 45 08             	cmp    %eax,0x8(%ebp)
c0003ae1:	76 12                	jbe    c0003af5 <sys_malloc+0x16e>
c0003ae3:	0f b6 45 e7          	movzbl -0x19(%ebp),%eax
c0003ae7:	83 c0 01             	add    $0x1,%eax
c0003aea:	88 45 e7             	mov    %al,-0x19(%ebp)
c0003aed:	80 7d e7 06          	cmpb   $0x6,-0x19(%ebp)
c0003af1:	76 d5                	jbe    c0003ac8 <sys_malloc+0x141>
c0003af3:	eb 01                	jmp    c0003af6 <sys_malloc+0x16f>
c0003af5:	90                   	nop
c0003af6:	0f b6 55 e7          	movzbl -0x19(%ebp),%edx
c0003afa:	89 d0                	mov    %edx,%eax
c0003afc:	01 c0                	add    %eax,%eax
c0003afe:	01 d0                	add    %edx,%eax
c0003b00:	c1 e0 03             	shl    $0x3,%eax
c0003b03:	89 c2                	mov    %eax,%edx
c0003b05:	8b 45 e8             	mov    -0x18(%ebp),%eax
c0003b08:	01 d0                	add    %edx,%eax
c0003b0a:	83 c0 08             	add    $0x8,%eax
c0003b0d:	83 ec 0c             	sub    $0xc,%esp
c0003b10:	50                   	push   %eax
c0003b11:	e8 47 f2 ff ff       	call   c0002d5d <list_empty>
c0003b16:	83 c4 10             	add    $0x10,%esp
c0003b19:	85 c0                	test   %eax,%eax
c0003b1b:	0f 84 f5 00 00 00    	je     c0003c16 <sys_malloc+0x28f>
c0003b21:	83 ec 08             	sub    $0x8,%esp
c0003b24:	6a 01                	push   $0x1
c0003b26:	ff 75 f4             	pushl  -0xc(%ebp)
c0003b29:	e8 01 fa ff ff       	call   c000352f <malloc_page>
c0003b2e:	83 c4 10             	add    $0x10,%esp
c0003b31:	89 45 d8             	mov    %eax,-0x28(%ebp)
c0003b34:	83 7d d8 00          	cmpl   $0x0,-0x28(%ebp)
c0003b38:	75 1c                	jne    c0003b56 <sys_malloc+0x1cf>
c0003b3a:	8b 45 f0             	mov    -0x10(%ebp),%eax
c0003b3d:	83 c0 10             	add    $0x10,%eax
c0003b40:	83 ec 0c             	sub    $0xc,%esp
c0003b43:	50                   	push   %eax
c0003b44:	e8 f3 13 00 00       	call   c0004f3c <lock_release>
c0003b49:	83 c4 10             	add    $0x10,%esp
c0003b4c:	b8 00 00 00 00       	mov    $0x0,%eax
c0003b51:	e9 42 01 00 00       	jmp    c0003c98 <sys_malloc+0x311>
c0003b56:	83 ec 04             	sub    $0x4,%esp
c0003b59:	68 00 10 00 00       	push   $0x1000
c0003b5e:	6a 00                	push   $0x0
c0003b60:	ff 75 d8             	pushl  -0x28(%ebp)
c0003b63:	e8 2d f2 ff ff       	call   c0002d95 <memset>
c0003b68:	83 c4 10             	add    $0x10,%esp
c0003b6b:	0f b6 55 e7          	movzbl -0x19(%ebp),%edx
c0003b6f:	89 d0                	mov    %edx,%eax
c0003b71:	01 c0                	add    %eax,%eax
c0003b73:	01 d0                	add    %edx,%eax
c0003b75:	c1 e0 03             	shl    $0x3,%eax
c0003b78:	89 c2                	mov    %eax,%edx
c0003b7a:	8b 45 e8             	mov    -0x18(%ebp),%eax
c0003b7d:	01 c2                	add    %eax,%edx
c0003b7f:	8b 45 d8             	mov    -0x28(%ebp),%eax
c0003b82:	89 10                	mov    %edx,(%eax)
c0003b84:	8b 45 d8             	mov    -0x28(%ebp),%eax
c0003b87:	c7 40 08 00 00 00 00 	movl   $0x0,0x8(%eax)
c0003b8e:	0f b6 55 e7          	movzbl -0x19(%ebp),%edx
c0003b92:	89 d0                	mov    %edx,%eax
c0003b94:	01 c0                	add    %eax,%eax
c0003b96:	01 d0                	add    %edx,%eax
c0003b98:	c1 e0 03             	shl    $0x3,%eax
c0003b9b:	89 c2                	mov    %eax,%edx
c0003b9d:	8b 45 e8             	mov    -0x18(%ebp),%eax
c0003ba0:	01 d0                	add    %edx,%eax
c0003ba2:	8b 50 04             	mov    0x4(%eax),%edx
c0003ba5:	8b 45 d8             	mov    -0x28(%ebp),%eax
c0003ba8:	89 50 04             	mov    %edx,0x4(%eax)
c0003bab:	e8 7d e3 ff ff       	call   c0001f2d <intr_disable>
c0003bb0:	89 45 d4             	mov    %eax,-0x2c(%ebp)
c0003bb3:	c7 45 e0 00 00 00 00 	movl   $0x0,-0x20(%ebp)
c0003bba:	eb 30                	jmp    c0003bec <sys_malloc+0x265>
c0003bbc:	83 ec 08             	sub    $0x8,%esp
c0003bbf:	ff 75 e0             	pushl  -0x20(%ebp)
c0003bc2:	ff 75 d8             	pushl  -0x28(%ebp)
c0003bc5:	e8 82 fd ff ff       	call   c000394c <arena2block>
c0003bca:	83 c4 10             	add    $0x10,%esp
c0003bcd:	89 45 d0             	mov    %eax,-0x30(%ebp)
c0003bd0:	8b 45 d0             	mov    -0x30(%ebp),%eax
c0003bd3:	8b 55 d8             	mov    -0x28(%ebp),%edx
c0003bd6:	8b 12                	mov    (%edx),%edx
c0003bd8:	83 c2 08             	add    $0x8,%edx
c0003bdb:	83 ec 08             	sub    $0x8,%esp
c0003bde:	50                   	push   %eax
c0003bdf:	52                   	push   %edx
c0003be0:	e8 b4 ee ff ff       	call   c0002a99 <list_append>
c0003be5:	83 c4 10             	add    $0x10,%esp
c0003be8:	83 45 e0 01          	addl   $0x1,-0x20(%ebp)
c0003bec:	0f b6 55 e7          	movzbl -0x19(%ebp),%edx
c0003bf0:	89 d0                	mov    %edx,%eax
c0003bf2:	01 c0                	add    %eax,%eax
c0003bf4:	01 d0                	add    %edx,%eax
c0003bf6:	c1 e0 03             	shl    $0x3,%eax
c0003bf9:	89 c2                	mov    %eax,%edx
c0003bfb:	8b 45 e8             	mov    -0x18(%ebp),%eax
c0003bfe:	01 d0                	add    %edx,%eax
c0003c00:	8b 40 04             	mov    0x4(%eax),%eax
c0003c03:	39 45 e0             	cmp    %eax,-0x20(%ebp)
c0003c06:	72 b4                	jb     c0003bbc <sys_malloc+0x235>
c0003c08:	83 ec 0c             	sub    $0xc,%esp
c0003c0b:	ff 75 d4             	pushl  -0x2c(%ebp)
c0003c0e:	e8 4d e3 ff ff       	call   c0001f60 <intr_set_status>
c0003c13:	83 c4 10             	add    $0x10,%esp
c0003c16:	0f b6 55 e7          	movzbl -0x19(%ebp),%edx
c0003c1a:	89 d0                	mov    %edx,%eax
c0003c1c:	01 c0                	add    %eax,%eax
c0003c1e:	01 d0                	add    %edx,%eax
c0003c20:	c1 e0 03             	shl    $0x3,%eax
c0003c23:	89 c2                	mov    %eax,%edx
c0003c25:	8b 45 e8             	mov    -0x18(%ebp),%eax
c0003c28:	01 d0                	add    %edx,%eax
c0003c2a:	83 c0 08             	add    $0x8,%eax
c0003c2d:	83 ec 0c             	sub    $0xc,%esp
c0003c30:	50                   	push   %eax
c0003c31:	e8 d4 ee ff ff       	call   c0002b0a <list_pop>
c0003c36:	83 c4 10             	add    $0x10,%esp
c0003c39:	89 45 d0             	mov    %eax,-0x30(%ebp)
c0003c3c:	0f b6 55 e7          	movzbl -0x19(%ebp),%edx
c0003c40:	89 d0                	mov    %edx,%eax
c0003c42:	01 c0                	add    %eax,%eax
c0003c44:	01 d0                	add    %edx,%eax
c0003c46:	c1 e0 03             	shl    $0x3,%eax
c0003c49:	89 c2                	mov    %eax,%edx
c0003c4b:	8b 45 e8             	mov    -0x18(%ebp),%eax
c0003c4e:	01 d0                	add    %edx,%eax
c0003c50:	8b 00                	mov    (%eax),%eax
c0003c52:	83 ec 04             	sub    $0x4,%esp
c0003c55:	50                   	push   %eax
c0003c56:	6a 00                	push   $0x0
c0003c58:	ff 75 d0             	pushl  -0x30(%ebp)
c0003c5b:	e8 35 f1 ff ff       	call   c0002d95 <memset>
c0003c60:	83 c4 10             	add    $0x10,%esp
c0003c63:	83 ec 0c             	sub    $0xc,%esp
c0003c66:	ff 75 d0             	pushl  -0x30(%ebp)
c0003c69:	e8 02 fd ff ff       	call   c0003970 <block2arena>
c0003c6e:	83 c4 10             	add    $0x10,%esp
c0003c71:	89 45 d8             	mov    %eax,-0x28(%ebp)
c0003c74:	8b 45 d8             	mov    -0x28(%ebp),%eax
c0003c77:	8b 40 04             	mov    0x4(%eax),%eax
c0003c7a:	8d 50 ff             	lea    -0x1(%eax),%edx
c0003c7d:	8b 45 d8             	mov    -0x28(%ebp),%eax
c0003c80:	89 50 04             	mov    %edx,0x4(%eax)
c0003c83:	8b 45 f0             	mov    -0x10(%ebp),%eax
c0003c86:	83 c0 10             	add    $0x10,%eax
c0003c89:	83 ec 0c             	sub    $0xc,%esp
c0003c8c:	50                   	push   %eax
c0003c8d:	e8 aa 12 00 00       	call   c0004f3c <lock_release>
c0003c92:	83 c4 10             	add    $0x10,%esp
c0003c95:	8b 45 d0             	mov    -0x30(%ebp),%eax
c0003c98:	8b 5d fc             	mov    -0x4(%ebp),%ebx
c0003c9b:	c9                   	leave  
c0003c9c:	c3                   	ret    

c0003c9d <pfree>:
c0003c9d:	55                   	push   %ebp
c0003c9e:	89 e5                	mov    %esp,%ebp
c0003ca0:	53                   	push   %ebx
c0003ca1:	83 ec 14             	sub    $0x14,%esp
c0003ca4:	e8 2f e3 ff ff       	call   c0001fd8 <__x86.get_pc_thunk.ax>
c0003ca9:	05 57 e3 00 00       	add    $0xe357,%eax
c0003cae:	c7 45 f0 00 00 00 00 	movl   $0x0,-0x10(%ebp)
c0003cb5:	c7 c2 a0 30 01 c0    	mov    $0xc00130a0,%edx
c0003cbb:	8b 52 08             	mov    0x8(%edx),%edx
c0003cbe:	39 55 08             	cmp    %edx,0x8(%ebp)
c0003cc1:	72 21                	jb     c0003ce4 <pfree+0x47>
c0003cc3:	c7 c2 a0 30 01 c0    	mov    $0xc00130a0,%edx
c0003cc9:	89 55 f4             	mov    %edx,-0xc(%ebp)
c0003ccc:	c7 c2 a0 30 01 c0    	mov    $0xc00130a0,%edx
c0003cd2:	8b 52 08             	mov    0x8(%edx),%edx
c0003cd5:	8b 4d 08             	mov    0x8(%ebp),%ecx
c0003cd8:	29 d1                	sub    %edx,%ecx
c0003cda:	89 ca                	mov    %ecx,%edx
c0003cdc:	c1 ea 0c             	shr    $0xc,%edx
c0003cdf:	89 55 f0             	mov    %edx,-0x10(%ebp)
c0003ce2:	eb 1f                	jmp    c0003d03 <pfree+0x66>
c0003ce4:	c7 c2 a0 31 01 c0    	mov    $0xc00131a0,%edx
c0003cea:	89 55 f4             	mov    %edx,-0xc(%ebp)
c0003ced:	c7 c2 a0 31 01 c0    	mov    $0xc00131a0,%edx
c0003cf3:	8b 52 08             	mov    0x8(%edx),%edx
c0003cf6:	8b 4d 08             	mov    0x8(%ebp),%ecx
c0003cf9:	29 d1                	sub    %edx,%ecx
c0003cfb:	89 ca                	mov    %ecx,%edx
c0003cfd:	c1 ea 0c             	shr    $0xc,%edx
c0003d00:	89 55 f0             	mov    %edx,-0x10(%ebp)
c0003d03:	8b 55 f4             	mov    -0xc(%ebp),%edx
c0003d06:	83 ec 04             	sub    $0x4,%esp
c0003d09:	6a 00                	push   $0x0
c0003d0b:	ff 75 f0             	pushl  -0x10(%ebp)
c0003d0e:	52                   	push   %edx
c0003d0f:	89 c3                	mov    %eax,%ebx
c0003d11:	e8 f3 f4 ff ff       	call   c0003209 <bitmap_set>
c0003d16:	83 c4 10             	add    $0x10,%esp
c0003d19:	90                   	nop
c0003d1a:	8b 5d fc             	mov    -0x4(%ebp),%ebx
c0003d1d:	c9                   	leave  
c0003d1e:	c3                   	ret    

c0003d1f <page_table_pte_remove>:
c0003d1f:	55                   	push   %ebp
c0003d20:	89 e5                	mov    %esp,%ebp
c0003d22:	83 ec 10             	sub    $0x10,%esp
c0003d25:	e8 ae e2 ff ff       	call   c0001fd8 <__x86.get_pc_thunk.ax>
c0003d2a:	05 d6 e2 00 00       	add    $0xe2d6,%eax
c0003d2f:	8b 45 08             	mov    0x8(%ebp),%eax
c0003d32:	50                   	push   %eax
c0003d33:	e8 74 f6 ff ff       	call   c00033ac <pte_ptr>
c0003d38:	83 c4 04             	add    $0x4,%esp
c0003d3b:	89 45 fc             	mov    %eax,-0x4(%ebp)
c0003d3e:	8b 45 fc             	mov    -0x4(%ebp),%eax
c0003d41:	8b 00                	mov    (%eax),%eax
c0003d43:	83 e0 fe             	and    $0xfffffffe,%eax
c0003d46:	89 c2                	mov    %eax,%edx
c0003d48:	8b 45 fc             	mov    -0x4(%ebp),%eax
c0003d4b:	89 10                	mov    %edx,(%eax)
c0003d4d:	0f 01 7d 08          	invlpg 0x8(%ebp)
c0003d51:	90                   	nop
c0003d52:	c9                   	leave  
c0003d53:	c3                   	ret    

c0003d54 <vaddr_remove>:
c0003d54:	55                   	push   %ebp
c0003d55:	89 e5                	mov    %esp,%ebp
c0003d57:	53                   	push   %ebx
c0003d58:	83 ec 14             	sub    $0x14,%esp
c0003d5b:	e8 95 dc ff ff       	call   c00019f5 <__x86.get_pc_thunk.bx>
c0003d60:	81 c3 a0 e2 00 00    	add    $0xe2a0,%ebx
c0003d66:	c7 45 f0 00 00 00 00 	movl   $0x0,-0x10(%ebp)
c0003d6d:	8b 45 0c             	mov    0xc(%ebp),%eax
c0003d70:	89 45 ec             	mov    %eax,-0x14(%ebp)
c0003d73:	c7 45 f4 00 00 00 00 	movl   $0x0,-0xc(%ebp)
c0003d7a:	83 7d 08 01          	cmpl   $0x1,0x8(%ebp)
c0003d7e:	75 45                	jne    c0003dc5 <vaddr_remove+0x71>
c0003d80:	c7 c0 88 31 01 c0    	mov    $0xc0013188,%eax
c0003d86:	8b 40 08             	mov    0x8(%eax),%eax
c0003d89:	8b 55 ec             	mov    -0x14(%ebp),%edx
c0003d8c:	29 c2                	sub    %eax,%edx
c0003d8e:	89 d0                	mov    %edx,%eax
c0003d90:	c1 e8 0c             	shr    $0xc,%eax
c0003d93:	89 45 f0             	mov    %eax,-0x10(%ebp)
c0003d96:	eb 23                	jmp    c0003dbb <vaddr_remove+0x67>
c0003d98:	8b 45 f4             	mov    -0xc(%ebp),%eax
c0003d9b:	8d 50 01             	lea    0x1(%eax),%edx
c0003d9e:	89 55 f4             	mov    %edx,-0xc(%ebp)
c0003da1:	8b 55 f0             	mov    -0x10(%ebp),%edx
c0003da4:	01 d0                	add    %edx,%eax
c0003da6:	83 ec 04             	sub    $0x4,%esp
c0003da9:	6a 00                	push   $0x0
c0003dab:	50                   	push   %eax
c0003dac:	c7 c0 88 31 01 c0    	mov    $0xc0013188,%eax
c0003db2:	50                   	push   %eax
c0003db3:	e8 51 f4 ff ff       	call   c0003209 <bitmap_set>
c0003db8:	83 c4 10             	add    $0x10,%esp
c0003dbb:	8b 45 f4             	mov    -0xc(%ebp),%eax
c0003dbe:	3b 45 10             	cmp    0x10(%ebp),%eax
c0003dc1:	72 d5                	jb     c0003d98 <vaddr_remove+0x44>
c0003dc3:	eb 48                	jmp    c0003e0d <vaddr_remove+0xb9>
c0003dc5:	e8 a9 05 00 00       	call   c0004373 <running_thread>
c0003dca:	89 45 e8             	mov    %eax,-0x18(%ebp)
c0003dcd:	8b 45 e8             	mov    -0x18(%ebp),%eax
c0003dd0:	8b 40 60             	mov    0x60(%eax),%eax
c0003dd3:	8b 55 ec             	mov    -0x14(%ebp),%edx
c0003dd6:	29 c2                	sub    %eax,%edx
c0003dd8:	89 d0                	mov    %edx,%eax
c0003dda:	c1 e8 0c             	shr    $0xc,%eax
c0003ddd:	89 45 f0             	mov    %eax,-0x10(%ebp)
c0003de0:	eb 23                	jmp    c0003e05 <vaddr_remove+0xb1>
c0003de2:	8b 45 f4             	mov    -0xc(%ebp),%eax
c0003de5:	8d 50 01             	lea    0x1(%eax),%edx
c0003de8:	89 55 f4             	mov    %edx,-0xc(%ebp)
c0003deb:	8b 55 f0             	mov    -0x10(%ebp),%edx
c0003dee:	01 c2                	add    %eax,%edx
c0003df0:	8b 45 e8             	mov    -0x18(%ebp),%eax
c0003df3:	83 c0 58             	add    $0x58,%eax
c0003df6:	83 ec 04             	sub    $0x4,%esp
c0003df9:	6a 00                	push   $0x0
c0003dfb:	52                   	push   %edx
c0003dfc:	50                   	push   %eax
c0003dfd:	e8 07 f4 ff ff       	call   c0003209 <bitmap_set>
c0003e02:	83 c4 10             	add    $0x10,%esp
c0003e05:	8b 45 f4             	mov    -0xc(%ebp),%eax
c0003e08:	3b 45 10             	cmp    0x10(%ebp),%eax
c0003e0b:	72 d5                	jb     c0003de2 <vaddr_remove+0x8e>
c0003e0d:	90                   	nop
c0003e0e:	8b 5d fc             	mov    -0x4(%ebp),%ebx
c0003e11:	c9                   	leave  
c0003e12:	c3                   	ret    

c0003e13 <mfree_page>:
c0003e13:	55                   	push   %ebp
c0003e14:	89 e5                	mov    %esp,%ebp
c0003e16:	53                   	push   %ebx
c0003e17:	83 ec 14             	sub    $0x14,%esp
c0003e1a:	e8 d6 db ff ff       	call   c00019f5 <__x86.get_pc_thunk.bx>
c0003e1f:	81 c3 e1 e1 00 00    	add    $0xe1e1,%ebx
c0003e25:	8b 45 0c             	mov    0xc(%ebp),%eax
c0003e28:	89 45 f4             	mov    %eax,-0xc(%ebp)
c0003e2b:	c7 45 f0 00 00 00 00 	movl   $0x0,-0x10(%ebp)
c0003e32:	ff 75 f4             	pushl  -0xc(%ebp)
c0003e35:	e8 39 fa ff ff       	call   c0003873 <addr_v2p>
c0003e3a:	83 c4 04             	add    $0x4,%esp
c0003e3d:	89 45 ec             	mov    %eax,-0x14(%ebp)
c0003e40:	c7 c0 a0 30 01 c0    	mov    $0xc00130a0,%eax
c0003e46:	8b 40 08             	mov    0x8(%eax),%eax
c0003e49:	39 45 ec             	cmp    %eax,-0x14(%ebp)
c0003e4c:	72 5c                	jb     c0003eaa <mfree_page+0x97>
c0003e4e:	81 6d f4 00 10 00 00 	subl   $0x1000,-0xc(%ebp)
c0003e55:	eb 35                	jmp    c0003e8c <mfree_page+0x79>
c0003e57:	81 45 f4 00 10 00 00 	addl   $0x1000,-0xc(%ebp)
c0003e5e:	ff 75 f4             	pushl  -0xc(%ebp)
c0003e61:	e8 0d fa ff ff       	call   c0003873 <addr_v2p>
c0003e66:	83 c4 04             	add    $0x4,%esp
c0003e69:	89 45 ec             	mov    %eax,-0x14(%ebp)
c0003e6c:	83 ec 0c             	sub    $0xc,%esp
c0003e6f:	ff 75 ec             	pushl  -0x14(%ebp)
c0003e72:	e8 26 fe ff ff       	call   c0003c9d <pfree>
c0003e77:	83 c4 10             	add    $0x10,%esp
c0003e7a:	83 ec 0c             	sub    $0xc,%esp
c0003e7d:	ff 75 f4             	pushl  -0xc(%ebp)
c0003e80:	e8 9a fe ff ff       	call   c0003d1f <page_table_pte_remove>
c0003e85:	83 c4 10             	add    $0x10,%esp
c0003e88:	83 45 f0 01          	addl   $0x1,-0x10(%ebp)
c0003e8c:	8b 45 f0             	mov    -0x10(%ebp),%eax
c0003e8f:	3b 45 10             	cmp    0x10(%ebp),%eax
c0003e92:	72 c3                	jb     c0003e57 <mfree_page+0x44>
c0003e94:	83 ec 04             	sub    $0x4,%esp
c0003e97:	ff 75 10             	pushl  0x10(%ebp)
c0003e9a:	ff 75 0c             	pushl  0xc(%ebp)
c0003e9d:	ff 75 08             	pushl  0x8(%ebp)
c0003ea0:	e8 af fe ff ff       	call   c0003d54 <vaddr_remove>
c0003ea5:	83 c4 10             	add    $0x10,%esp
c0003ea8:	eb 5d                	jmp    c0003f07 <mfree_page+0xf4>
c0003eaa:	81 6d f4 00 10 00 00 	subl   $0x1000,-0xc(%ebp)
c0003eb1:	eb 38                	jmp    c0003eeb <mfree_page+0xd8>
c0003eb3:	81 45 f4 00 10 00 00 	addl   $0x1000,-0xc(%ebp)
c0003eba:	83 ec 0c             	sub    $0xc,%esp
c0003ebd:	ff 75 f4             	pushl  -0xc(%ebp)
c0003ec0:	e8 ae f9 ff ff       	call   c0003873 <addr_v2p>
c0003ec5:	83 c4 10             	add    $0x10,%esp
c0003ec8:	89 45 ec             	mov    %eax,-0x14(%ebp)
c0003ecb:	83 ec 0c             	sub    $0xc,%esp
c0003ece:	ff 75 ec             	pushl  -0x14(%ebp)
c0003ed1:	e8 c7 fd ff ff       	call   c0003c9d <pfree>
c0003ed6:	83 c4 10             	add    $0x10,%esp
c0003ed9:	83 ec 0c             	sub    $0xc,%esp
c0003edc:	ff 75 f4             	pushl  -0xc(%ebp)
c0003edf:	e8 3b fe ff ff       	call   c0003d1f <page_table_pte_remove>
c0003ee4:	83 c4 10             	add    $0x10,%esp
c0003ee7:	83 45 f0 01          	addl   $0x1,-0x10(%ebp)
c0003eeb:	8b 45 f0             	mov    -0x10(%ebp),%eax
c0003eee:	3b 45 10             	cmp    0x10(%ebp),%eax
c0003ef1:	72 c0                	jb     c0003eb3 <mfree_page+0xa0>
c0003ef3:	83 ec 04             	sub    $0x4,%esp
c0003ef6:	ff 75 10             	pushl  0x10(%ebp)
c0003ef9:	ff 75 0c             	pushl  0xc(%ebp)
c0003efc:	ff 75 08             	pushl  0x8(%ebp)
c0003eff:	e8 50 fe ff ff       	call   c0003d54 <vaddr_remove>
c0003f04:	83 c4 10             	add    $0x10,%esp
c0003f07:	90                   	nop
c0003f08:	8b 5d fc             	mov    -0x4(%ebp),%ebx
c0003f0b:	c9                   	leave  
c0003f0c:	c3                   	ret    

c0003f0d <sys_free>:
c0003f0d:	55                   	push   %ebp
c0003f0e:	89 e5                	mov    %esp,%ebp
c0003f10:	53                   	push   %ebx
c0003f11:	83 ec 24             	sub    $0x24,%esp
c0003f14:	e8 dc da ff ff       	call   c00019f5 <__x86.get_pc_thunk.bx>
c0003f19:	81 c3 e7 e0 00 00    	add    $0xe0e7,%ebx
c0003f1f:	83 7d 08 00          	cmpl   $0x0,0x8(%ebp)
c0003f23:	0f 84 23 01 00 00    	je     c000404c <sys_free+0x13f>
c0003f29:	e8 45 04 00 00       	call   c0004373 <running_thread>
c0003f2e:	8b 40 54             	mov    0x54(%eax),%eax
c0003f31:	85 c0                	test   %eax,%eax
c0003f33:	75 12                	jne    c0003f47 <sys_free+0x3a>
c0003f35:	c7 45 f4 01 00 00 00 	movl   $0x1,-0xc(%ebp)
c0003f3c:	c7 c0 a0 31 01 c0    	mov    $0xc00131a0,%eax
c0003f42:	89 45 f0             	mov    %eax,-0x10(%ebp)
c0003f45:	eb 10                	jmp    c0003f57 <sys_free+0x4a>
c0003f47:	c7 45 f4 02 00 00 00 	movl   $0x2,-0xc(%ebp)
c0003f4e:	c7 c0 a0 30 01 c0    	mov    $0xc00130a0,%eax
c0003f54:	89 45 f0             	mov    %eax,-0x10(%ebp)
c0003f57:	8b 45 f0             	mov    -0x10(%ebp),%eax
c0003f5a:	83 c0 10             	add    $0x10,%eax
c0003f5d:	83 ec 0c             	sub    $0xc,%esp
c0003f60:	50                   	push   %eax
c0003f61:	e8 77 0f 00 00       	call   c0004edd <lock_acquire>
c0003f66:	83 c4 10             	add    $0x10,%esp
c0003f69:	8b 45 08             	mov    0x8(%ebp),%eax
c0003f6c:	89 45 e8             	mov    %eax,-0x18(%ebp)
c0003f6f:	83 ec 0c             	sub    $0xc,%esp
c0003f72:	ff 75 e8             	pushl  -0x18(%ebp)
c0003f75:	e8 f6 f9 ff ff       	call   c0003970 <block2arena>
c0003f7a:	83 c4 10             	add    $0x10,%esp
c0003f7d:	89 45 e4             	mov    %eax,-0x1c(%ebp)
c0003f80:	8b 45 e4             	mov    -0x1c(%ebp),%eax
c0003f83:	8b 00                	mov    (%eax),%eax
c0003f85:	85 c0                	test   %eax,%eax
c0003f87:	75 28                	jne    c0003fb1 <sys_free+0xa4>
c0003f89:	8b 45 e4             	mov    -0x1c(%ebp),%eax
c0003f8c:	8b 40 08             	mov    0x8(%eax),%eax
c0003f8f:	83 f8 01             	cmp    $0x1,%eax
c0003f92:	75 1d                	jne    c0003fb1 <sys_free+0xa4>
c0003f94:	8b 45 e4             	mov    -0x1c(%ebp),%eax
c0003f97:	8b 40 04             	mov    0x4(%eax),%eax
c0003f9a:	83 ec 04             	sub    $0x4,%esp
c0003f9d:	50                   	push   %eax
c0003f9e:	ff 75 e4             	pushl  -0x1c(%ebp)
c0003fa1:	ff 75 f4             	pushl  -0xc(%ebp)
c0003fa4:	e8 6a fe ff ff       	call   c0003e13 <mfree_page>
c0003fa9:	83 c4 10             	add    $0x10,%esp
c0003fac:	e9 89 00 00 00       	jmp    c000403a <sys_free+0x12d>
c0003fb1:	8b 45 e8             	mov    -0x18(%ebp),%eax
c0003fb4:	8b 55 e4             	mov    -0x1c(%ebp),%edx
c0003fb7:	8b 12                	mov    (%edx),%edx
c0003fb9:	83 c2 08             	add    $0x8,%edx
c0003fbc:	83 ec 08             	sub    $0x8,%esp
c0003fbf:	50                   	push   %eax
c0003fc0:	52                   	push   %edx
c0003fc1:	e8 d3 ea ff ff       	call   c0002a99 <list_append>
c0003fc6:	83 c4 10             	add    $0x10,%esp
c0003fc9:	8b 45 e4             	mov    -0x1c(%ebp),%eax
c0003fcc:	8b 40 04             	mov    0x4(%eax),%eax
c0003fcf:	8d 50 01             	lea    0x1(%eax),%edx
c0003fd2:	8b 45 e4             	mov    -0x1c(%ebp),%eax
c0003fd5:	89 50 04             	mov    %edx,0x4(%eax)
c0003fd8:	8b 45 e4             	mov    -0x1c(%ebp),%eax
c0003fdb:	8b 50 04             	mov    0x4(%eax),%edx
c0003fde:	8b 45 e4             	mov    -0x1c(%ebp),%eax
c0003fe1:	8b 00                	mov    (%eax),%eax
c0003fe3:	8b 40 04             	mov    0x4(%eax),%eax
c0003fe6:	39 c2                	cmp    %eax,%edx
c0003fe8:	75 50                	jne    c000403a <sys_free+0x12d>
c0003fea:	c7 45 ec 00 00 00 00 	movl   $0x0,-0x14(%ebp)
c0003ff1:	eb 27                	jmp    c000401a <sys_free+0x10d>
c0003ff3:	83 ec 08             	sub    $0x8,%esp
c0003ff6:	ff 75 ec             	pushl  -0x14(%ebp)
c0003ff9:	ff 75 e4             	pushl  -0x1c(%ebp)
c0003ffc:	e8 4b f9 ff ff       	call   c000394c <arena2block>
c0004001:	83 c4 10             	add    $0x10,%esp
c0004004:	89 45 e0             	mov    %eax,-0x20(%ebp)
c0004007:	8b 45 e0             	mov    -0x20(%ebp),%eax
c000400a:	83 ec 0c             	sub    $0xc,%esp
c000400d:	50                   	push   %eax
c000400e:	e8 ae ea ff ff       	call   c0002ac1 <list_remove>
c0004013:	83 c4 10             	add    $0x10,%esp
c0004016:	83 45 ec 01          	addl   $0x1,-0x14(%ebp)
c000401a:	8b 45 e4             	mov    -0x1c(%ebp),%eax
c000401d:	8b 00                	mov    (%eax),%eax
c000401f:	8b 40 04             	mov    0x4(%eax),%eax
c0004022:	39 45 ec             	cmp    %eax,-0x14(%ebp)
c0004025:	72 cc                	jb     c0003ff3 <sys_free+0xe6>
c0004027:	83 ec 04             	sub    $0x4,%esp
c000402a:	6a 01                	push   $0x1
c000402c:	ff 75 e4             	pushl  -0x1c(%ebp)
c000402f:	ff 75 f4             	pushl  -0xc(%ebp)
c0004032:	e8 dc fd ff ff       	call   c0003e13 <mfree_page>
c0004037:	83 c4 10             	add    $0x10,%esp
c000403a:	8b 45 f0             	mov    -0x10(%ebp),%eax
c000403d:	83 c0 10             	add    $0x10,%eax
c0004040:	83 ec 0c             	sub    $0xc,%esp
c0004043:	50                   	push   %eax
c0004044:	e8 f3 0e 00 00       	call   c0004f3c <lock_release>
c0004049:	83 c4 10             	add    $0x10,%esp
c000404c:	90                   	nop
c000404d:	8b 5d fc             	mov    -0x4(%ebp),%ebx
c0004050:	c9                   	leave  
c0004051:	c3                   	ret    

c0004052 <mem_pool_init>:
c0004052:	55                   	push   %ebp
c0004053:	89 e5                	mov    %esp,%ebp
c0004055:	53                   	push   %ebx
c0004056:	83 ec 34             	sub    $0x34,%esp
c0004059:	e8 97 d9 ff ff       	call   c00019f5 <__x86.get_pc_thunk.bx>
c000405e:	81 c3 a2 df 00 00    	add    $0xdfa2,%ebx
c0004064:	83 ec 0c             	sub    $0xc,%esp
c0004067:	8d 83 6c b4 ff ff    	lea    -0x4b94(%ebx),%eax
c000406d:	50                   	push   %eax
c000406e:	e8 cd e6 ff ff       	call   c0002740 <put_str>
c0004073:	83 c4 10             	add    $0x10,%esp
c0004076:	c7 45 f4 00 00 10 00 	movl   $0x100000,-0xc(%ebp)
c000407d:	8b 45 f4             	mov    -0xc(%ebp),%eax
c0004080:	05 00 00 10 00       	add    $0x100000,%eax
c0004085:	89 45 f0             	mov    %eax,-0x10(%ebp)
c0004088:	8b 45 08             	mov    0x8(%ebp),%eax
c000408b:	2b 45 f0             	sub    -0x10(%ebp),%eax
c000408e:	89 45 ec             	mov    %eax,-0x14(%ebp)
c0004091:	8b 45 ec             	mov    -0x14(%ebp),%eax
c0004094:	c1 e8 0c             	shr    $0xc,%eax
c0004097:	66 89 45 ea          	mov    %ax,-0x16(%ebp)
c000409b:	0f b7 45 ea          	movzwl -0x16(%ebp),%eax
c000409f:	66 d1 e8             	shr    %ax
c00040a2:	66 89 45 e8          	mov    %ax,-0x18(%ebp)
c00040a6:	0f b7 45 ea          	movzwl -0x16(%ebp),%eax
c00040aa:	66 2b 45 e8          	sub    -0x18(%ebp),%ax
c00040ae:	66 89 45 e6          	mov    %ax,-0x1a(%ebp)
c00040b2:	0f b7 45 e8          	movzwl -0x18(%ebp),%eax
c00040b6:	66 c1 e8 03          	shr    $0x3,%ax
c00040ba:	0f b7 c0             	movzwl %ax,%eax
c00040bd:	89 45 e0             	mov    %eax,-0x20(%ebp)
c00040c0:	0f b7 45 e6          	movzwl -0x1a(%ebp),%eax
c00040c4:	66 c1 e8 03          	shr    $0x3,%ax
c00040c8:	0f b7 c0             	movzwl %ax,%eax
c00040cb:	89 45 dc             	mov    %eax,-0x24(%ebp)
c00040ce:	8b 45 f0             	mov    -0x10(%ebp),%eax
c00040d1:	89 45 d8             	mov    %eax,-0x28(%ebp)
c00040d4:	0f b7 45 e8          	movzwl -0x18(%ebp),%eax
c00040d8:	c1 e0 0c             	shl    $0xc,%eax
c00040db:	89 c2                	mov    %eax,%edx
c00040dd:	8b 45 d8             	mov    -0x28(%ebp),%eax
c00040e0:	01 d0                	add    %edx,%eax
c00040e2:	89 45 d4             	mov    %eax,-0x2c(%ebp)
c00040e5:	c7 c0 a0 31 01 c0    	mov    $0xc00131a0,%eax
c00040eb:	8b 55 d8             	mov    -0x28(%ebp),%edx
c00040ee:	89 50 08             	mov    %edx,0x8(%eax)
c00040f1:	c7 c0 a0 30 01 c0    	mov    $0xc00130a0,%eax
c00040f7:	8b 55 d4             	mov    -0x2c(%ebp),%edx
c00040fa:	89 50 08             	mov    %edx,0x8(%eax)
c00040fd:	0f b7 45 e8          	movzwl -0x18(%ebp),%eax
c0004101:	c1 e0 0c             	shl    $0xc,%eax
c0004104:	89 c2                	mov    %eax,%edx
c0004106:	c7 c0 a0 31 01 c0    	mov    $0xc00131a0,%eax
c000410c:	89 50 0c             	mov    %edx,0xc(%eax)
c000410f:	0f b7 45 e6          	movzwl -0x1a(%ebp),%eax
c0004113:	c1 e0 0c             	shl    $0xc,%eax
c0004116:	89 c2                	mov    %eax,%edx
c0004118:	c7 c0 a0 30 01 c0    	mov    $0xc00130a0,%eax
c000411e:	89 50 0c             	mov    %edx,0xc(%eax)
c0004121:	c7 c0 a0 31 01 c0    	mov    $0xc00131a0,%eax
c0004127:	8b 55 e0             	mov    -0x20(%ebp),%edx
c000412a:	89 10                	mov    %edx,(%eax)
c000412c:	c7 c0 a0 30 01 c0    	mov    $0xc00130a0,%eax
c0004132:	8b 55 dc             	mov    -0x24(%ebp),%edx
c0004135:	89 10                	mov    %edx,(%eax)
c0004137:	c7 c0 a0 31 01 c0    	mov    $0xc00131a0,%eax
c000413d:	c7 40 04 00 a0 09 c0 	movl   $0xc009a000,0x4(%eax)
c0004144:	8b 45 e0             	mov    -0x20(%ebp),%eax
c0004147:	2d 00 60 f6 3f       	sub    $0x3ff66000,%eax
c000414c:	89 c2                	mov    %eax,%edx
c000414e:	c7 c0 a0 30 01 c0    	mov    $0xc00130a0,%eax
c0004154:	89 50 04             	mov    %edx,0x4(%eax)
c0004157:	83 ec 0c             	sub    $0xc,%esp
c000415a:	8d 83 82 b4 ff ff    	lea    -0x4b7e(%ebx),%eax
c0004160:	50                   	push   %eax
c0004161:	e8 da e5 ff ff       	call   c0002740 <put_str>
c0004166:	83 c4 10             	add    $0x10,%esp
c0004169:	c7 c0 a0 31 01 c0    	mov    $0xc00131a0,%eax
c000416f:	8b 40 04             	mov    0x4(%eax),%eax
c0004172:	83 ec 0c             	sub    $0xc,%esp
c0004175:	50                   	push   %eax
c0004176:	e8 ef e6 ff ff       	call   c000286a <put_int>
c000417b:	83 c4 10             	add    $0x10,%esp
c000417e:	83 ec 0c             	sub    $0xc,%esp
c0004181:	8d 83 9d b4 ff ff    	lea    -0x4b63(%ebx),%eax
c0004187:	50                   	push   %eax
c0004188:	e8 b3 e5 ff ff       	call   c0002740 <put_str>
c000418d:	83 c4 10             	add    $0x10,%esp
c0004190:	c7 c0 a0 31 01 c0    	mov    $0xc00131a0,%eax
c0004196:	8b 40 08             	mov    0x8(%eax),%eax
c0004199:	83 ec 0c             	sub    $0xc,%esp
c000419c:	50                   	push   %eax
c000419d:	e8 c8 e6 ff ff       	call   c000286a <put_int>
c00041a2:	83 c4 10             	add    $0x10,%esp
c00041a5:	83 ec 0c             	sub    $0xc,%esp
c00041a8:	8d 83 ba b4 ff ff    	lea    -0x4b46(%ebx),%eax
c00041ae:	50                   	push   %eax
c00041af:	e8 8c e5 ff ff       	call   c0002740 <put_str>
c00041b4:	83 c4 10             	add    $0x10,%esp
c00041b7:	c7 c0 a0 31 01 c0    	mov    $0xc00131a0,%eax
c00041bd:	8b 40 0c             	mov    0xc(%eax),%eax
c00041c0:	83 ec 0c             	sub    $0xc,%esp
c00041c3:	50                   	push   %eax
c00041c4:	e8 a1 e6 ff ff       	call   c000286a <put_int>
c00041c9:	83 c4 10             	add    $0x10,%esp
c00041cc:	83 ec 0c             	sub    $0xc,%esp
c00041cf:	8d 83 04 b4 ff ff    	lea    -0x4bfc(%ebx),%eax
c00041d5:	50                   	push   %eax
c00041d6:	e8 65 e5 ff ff       	call   c0002740 <put_str>
c00041db:	83 c4 10             	add    $0x10,%esp
c00041de:	83 ec 0c             	sub    $0xc,%esp
c00041e1:	8d 83 cd b4 ff ff    	lea    -0x4b33(%ebx),%eax
c00041e7:	50                   	push   %eax
c00041e8:	e8 53 e5 ff ff       	call   c0002740 <put_str>
c00041ed:	83 c4 10             	add    $0x10,%esp
c00041f0:	c7 c0 a0 30 01 c0    	mov    $0xc00130a0,%eax
c00041f6:	8b 40 04             	mov    0x4(%eax),%eax
c00041f9:	83 ec 0c             	sub    $0xc,%esp
c00041fc:	50                   	push   %eax
c00041fd:	e8 68 e6 ff ff       	call   c000286a <put_int>
c0004202:	83 c4 10             	add    $0x10,%esp
c0004205:	83 ec 0c             	sub    $0xc,%esp
c0004208:	8d 83 e6 b4 ff ff    	lea    -0x4b1a(%ebx),%eax
c000420e:	50                   	push   %eax
c000420f:	e8 2c e5 ff ff       	call   c0002740 <put_str>
c0004214:	83 c4 10             	add    $0x10,%esp
c0004217:	c7 c0 a0 30 01 c0    	mov    $0xc00130a0,%eax
c000421d:	8b 40 08             	mov    0x8(%eax),%eax
c0004220:	83 ec 0c             	sub    $0xc,%esp
c0004223:	50                   	push   %eax
c0004224:	e8 41 e6 ff ff       	call   c000286a <put_int>
c0004229:	83 c4 10             	add    $0x10,%esp
c000422c:	83 ec 0c             	sub    $0xc,%esp
c000422f:	8d 83 01 b5 ff ff    	lea    -0x4aff(%ebx),%eax
c0004235:	50                   	push   %eax
c0004236:	e8 05 e5 ff ff       	call   c0002740 <put_str>
c000423b:	83 c4 10             	add    $0x10,%esp
c000423e:	c7 c0 a0 30 01 c0    	mov    $0xc00130a0,%eax
c0004244:	8b 40 0c             	mov    0xc(%eax),%eax
c0004247:	83 ec 0c             	sub    $0xc,%esp
c000424a:	50                   	push   %eax
c000424b:	e8 1a e6 ff ff       	call   c000286a <put_int>
c0004250:	83 c4 10             	add    $0x10,%esp
c0004253:	83 ec 0c             	sub    $0xc,%esp
c0004256:	8d 83 04 b4 ff ff    	lea    -0x4bfc(%ebx),%eax
c000425c:	50                   	push   %eax
c000425d:	e8 de e4 ff ff       	call   c0002740 <put_str>
c0004262:	83 c4 10             	add    $0x10,%esp
c0004265:	83 ec 0c             	sub    $0xc,%esp
c0004268:	c7 c0 a0 31 01 c0    	mov    $0xc00131a0,%eax
c000426e:	50                   	push   %eax
c000426f:	e8 03 ee ff ff       	call   c0003077 <bitmap_init>
c0004274:	83 c4 10             	add    $0x10,%esp
c0004277:	83 ec 0c             	sub    $0xc,%esp
c000427a:	c7 c0 a0 30 01 c0    	mov    $0xc00130a0,%eax
c0004280:	50                   	push   %eax
c0004281:	e8 f1 ed ff ff       	call   c0003077 <bitmap_init>
c0004286:	83 c4 10             	add    $0x10,%esp
c0004289:	83 ec 0c             	sub    $0xc,%esp
c000428c:	c7 c0 a0 31 01 c0    	mov    $0xc00131a0,%eax
c0004292:	8d 40 10             	lea    0x10(%eax),%eax
c0004295:	50                   	push   %eax
c0004296:	e8 e2 0a 00 00       	call   c0004d7d <lock_init>
c000429b:	83 c4 10             	add    $0x10,%esp
c000429e:	83 ec 0c             	sub    $0xc,%esp
c00042a1:	c7 c0 a0 30 01 c0    	mov    $0xc00130a0,%eax
c00042a7:	8d 40 10             	lea    0x10(%eax),%eax
c00042aa:	50                   	push   %eax
c00042ab:	e8 cd 0a 00 00       	call   c0004d7d <lock_init>
c00042b0:	83 c4 10             	add    $0x10,%esp
c00042b3:	c7 c0 88 31 01 c0    	mov    $0xc0013188,%eax
c00042b9:	8b 55 e0             	mov    -0x20(%ebp),%edx
c00042bc:	89 10                	mov    %edx,(%eax)
c00042be:	8b 55 e0             	mov    -0x20(%ebp),%edx
c00042c1:	8b 45 dc             	mov    -0x24(%ebp),%eax
c00042c4:	01 d0                	add    %edx,%eax
c00042c6:	2d 00 60 f6 3f       	sub    $0x3ff66000,%eax
c00042cb:	89 c2                	mov    %eax,%edx
c00042cd:	c7 c0 88 31 01 c0    	mov    $0xc0013188,%eax
c00042d3:	89 50 04             	mov    %edx,0x4(%eax)
c00042d6:	c7 c0 88 31 01 c0    	mov    $0xc0013188,%eax
c00042dc:	c7 40 08 00 00 10 c0 	movl   $0xc0100000,0x8(%eax)
c00042e3:	83 ec 0c             	sub    $0xc,%esp
c00042e6:	c7 c0 88 31 01 c0    	mov    $0xc0013188,%eax
c00042ec:	50                   	push   %eax
c00042ed:	e8 85 ed ff ff       	call   c0003077 <bitmap_init>
c00042f2:	83 c4 10             	add    $0x10,%esp
c00042f5:	83 ec 0c             	sub    $0xc,%esp
c00042f8:	8d 83 12 b5 ff ff    	lea    -0x4aee(%ebx),%eax
c00042fe:	50                   	push   %eax
c00042ff:	e8 3c e4 ff ff       	call   c0002740 <put_str>
c0004304:	83 c4 10             	add    $0x10,%esp
c0004307:	90                   	nop
c0004308:	8b 5d fc             	mov    -0x4(%ebp),%ebx
c000430b:	c9                   	leave  
c000430c:	c3                   	ret    

c000430d <mem_init>:
c000430d:	55                   	push   %ebp
c000430e:	89 e5                	mov    %esp,%ebp
c0004310:	53                   	push   %ebx
c0004311:	83 ec 14             	sub    $0x14,%esp
c0004314:	e8 dc d6 ff ff       	call   c00019f5 <__x86.get_pc_thunk.bx>
c0004319:	81 c3 e7 dc 00 00    	add    $0xdce7,%ebx
c000431f:	83 ec 0c             	sub    $0xc,%esp
c0004322:	8d 83 27 b5 ff ff    	lea    -0x4ad9(%ebx),%eax
c0004328:	50                   	push   %eax
c0004329:	e8 12 e4 ff ff       	call   c0002740 <put_str>
c000432e:	83 c4 10             	add    $0x10,%esp
c0004331:	b8 00 0b 00 00       	mov    $0xb00,%eax
c0004336:	8b 00                	mov    (%eax),%eax
c0004338:	89 45 f4             	mov    %eax,-0xc(%ebp)
c000433b:	83 ec 0c             	sub    $0xc,%esp
c000433e:	ff 75 f4             	pushl  -0xc(%ebp)
c0004341:	e8 0c fd ff ff       	call   c0004052 <mem_pool_init>
c0004346:	83 c4 10             	add    $0x10,%esp
c0004349:	83 ec 0c             	sub    $0xc,%esp
c000434c:	c7 c0 e0 30 01 c0    	mov    $0xc00130e0,%eax
c0004352:	50                   	push   %eax
c0004353:	e8 51 f5 ff ff       	call   c00038a9 <block_desc_init>
c0004358:	83 c4 10             	add    $0x10,%esp
c000435b:	83 ec 0c             	sub    $0xc,%esp
c000435e:	8d 83 37 b5 ff ff    	lea    -0x4ac9(%ebx),%eax
c0004364:	50                   	push   %eax
c0004365:	e8 d6 e3 ff ff       	call   c0002740 <put_str>
c000436a:	83 c4 10             	add    $0x10,%esp
c000436d:	90                   	nop
c000436e:	8b 5d fc             	mov    -0x4(%ebp),%ebx
c0004371:	c9                   	leave  
c0004372:	c3                   	ret    

c0004373 <running_thread>:
c0004373:	55                   	push   %ebp
c0004374:	89 e5                	mov    %esp,%ebp
c0004376:	83 ec 10             	sub    $0x10,%esp
c0004379:	e8 5a dc ff ff       	call   c0001fd8 <__x86.get_pc_thunk.ax>
c000437e:	05 82 dc 00 00       	add    $0xdc82,%eax
c0004383:	89 e0                	mov    %esp,%eax
c0004385:	89 45 fc             	mov    %eax,-0x4(%ebp)
c0004388:	8b 45 fc             	mov    -0x4(%ebp),%eax
c000438b:	25 00 f0 ff ff       	and    $0xfffff000,%eax
c0004390:	c9                   	leave  
c0004391:	c3                   	ret    

c0004392 <kernel_thread>:
c0004392:	55                   	push   %ebp
c0004393:	89 e5                	mov    %esp,%ebp
c0004395:	53                   	push   %ebx
c0004396:	83 ec 04             	sub    $0x4,%esp
c0004399:	e8 3a dc ff ff       	call   c0001fd8 <__x86.get_pc_thunk.ax>
c000439e:	05 62 dc 00 00       	add    $0xdc62,%eax
c00043a3:	89 c3                	mov    %eax,%ebx
c00043a5:	e8 50 db ff ff       	call   c0001efa <intr_enable>
c00043aa:	83 ec 0c             	sub    $0xc,%esp
c00043ad:	ff 75 0c             	pushl  0xc(%ebp)
c00043b0:	8b 45 08             	mov    0x8(%ebp),%eax
c00043b3:	ff d0                	call   *%eax
c00043b5:	83 c4 10             	add    $0x10,%esp
c00043b8:	90                   	nop
c00043b9:	8b 5d fc             	mov    -0x4(%ebp),%ebx
c00043bc:	c9                   	leave  
c00043bd:	c3                   	ret    

c00043be <allocate_pid>:
c00043be:	55                   	push   %ebp
c00043bf:	89 e5                	mov    %esp,%ebp
c00043c1:	53                   	push   %ebx
c00043c2:	83 ec 04             	sub    $0x4,%esp
c00043c5:	e8 2b d6 ff ff       	call   c00019f5 <__x86.get_pc_thunk.bx>
c00043ca:	81 c3 36 dc 00 00    	add    $0xdc36,%ebx
c00043d0:	83 ec 0c             	sub    $0xc,%esp
c00043d3:	c7 c0 f4 31 01 c0    	mov    $0xc00131f4,%eax
c00043d9:	50                   	push   %eax
c00043da:	e8 fe 0a 00 00       	call   c0004edd <lock_acquire>
c00043df:	83 c4 10             	add    $0x10,%esp
c00043e2:	0f b7 83 8c 05 00 00 	movzwl 0x58c(%ebx),%eax
c00043e9:	83 c0 01             	add    $0x1,%eax
c00043ec:	66 89 83 8c 05 00 00 	mov    %ax,0x58c(%ebx)
c00043f3:	83 ec 0c             	sub    $0xc,%esp
c00043f6:	c7 c0 f4 31 01 c0    	mov    $0xc00131f4,%eax
c00043fc:	50                   	push   %eax
c00043fd:	e8 3a 0b 00 00       	call   c0004f3c <lock_release>
c0004402:	83 c4 10             	add    $0x10,%esp
c0004405:	0f b7 83 8c 05 00 00 	movzwl 0x58c(%ebx),%eax
c000440c:	8b 5d fc             	mov    -0x4(%ebp),%ebx
c000440f:	c9                   	leave  
c0004410:	c3                   	ret    

c0004411 <idle>:
c0004411:	55                   	push   %ebp
c0004412:	89 e5                	mov    %esp,%ebp
c0004414:	83 ec 08             	sub    $0x8,%esp
c0004417:	e8 bc db ff ff       	call   c0001fd8 <__x86.get_pc_thunk.ax>
c000441c:	05 e4 db 00 00       	add    $0xdbe4,%eax
c0004421:	83 ec 0c             	sub    $0xc,%esp
c0004424:	6a 02                	push   $0x2
c0004426:	e8 7b 03 00 00       	call   c00047a6 <thread_block>
c000442b:	83 c4 10             	add    $0x10,%esp
c000442e:	fb                   	sti    
c000442f:	f4                   	hlt    
c0004430:	eb ef                	jmp    c0004421 <idle+0x10>

c0004432 <fork_pid>:
c0004432:	55                   	push   %ebp
c0004433:	89 e5                	mov    %esp,%ebp
c0004435:	83 ec 08             	sub    $0x8,%esp
c0004438:	e8 9b db ff ff       	call   c0001fd8 <__x86.get_pc_thunk.ax>
c000443d:	05 c3 db 00 00       	add    $0xdbc3,%eax
c0004442:	e8 77 ff ff ff       	call   c00043be <allocate_pid>
c0004447:	c9                   	leave  
c0004448:	c3                   	ret    

c0004449 <thread_create>:
c0004449:	55                   	push   %ebp
c000444a:	89 e5                	mov    %esp,%ebp
c000444c:	83 ec 10             	sub    $0x10,%esp
c000444f:	e8 eb 08 00 00       	call   c0004d3f <__x86.get_pc_thunk.dx>
c0004454:	81 c2 ac db 00 00    	add    $0xdbac,%edx
c000445a:	8b 45 08             	mov    0x8(%ebp),%eax
c000445d:	8b 00                	mov    (%eax),%eax
c000445f:	8d 88 d0 fe ff ff    	lea    -0x130(%eax),%ecx
c0004465:	8b 45 08             	mov    0x8(%ebp),%eax
c0004468:	89 08                	mov    %ecx,(%eax)
c000446a:	8b 45 08             	mov    0x8(%ebp),%eax
c000446d:	8b 00                	mov    (%eax),%eax
c000446f:	8d 48 80             	lea    -0x80(%eax),%ecx
c0004472:	8b 45 08             	mov    0x8(%ebp),%eax
c0004475:	89 08                	mov    %ecx,(%eax)
c0004477:	8b 45 08             	mov    0x8(%ebp),%eax
c000447a:	8b 00                	mov    (%eax),%eax
c000447c:	89 45 fc             	mov    %eax,-0x4(%ebp)
c000447f:	8b 45 fc             	mov    -0x4(%ebp),%eax
c0004482:	8d 92 92 23 ff ff    	lea    -0xdc6e(%edx),%edx
c0004488:	89 50 10             	mov    %edx,0x10(%eax)
c000448b:	8b 45 fc             	mov    -0x4(%ebp),%eax
c000448e:	8b 55 0c             	mov    0xc(%ebp),%edx
c0004491:	89 50 18             	mov    %edx,0x18(%eax)
c0004494:	8b 45 fc             	mov    -0x4(%ebp),%eax
c0004497:	8b 55 10             	mov    0x10(%ebp),%edx
c000449a:	89 50 1c             	mov    %edx,0x1c(%eax)
c000449d:	8b 45 fc             	mov    -0x4(%ebp),%eax
c00044a0:	c7 40 08 00 00 00 00 	movl   $0x0,0x8(%eax)
c00044a7:	8b 45 fc             	mov    -0x4(%ebp),%eax
c00044aa:	8b 50 08             	mov    0x8(%eax),%edx
c00044ad:	8b 45 fc             	mov    -0x4(%ebp),%eax
c00044b0:	89 50 0c             	mov    %edx,0xc(%eax)
c00044b3:	8b 45 fc             	mov    -0x4(%ebp),%eax
c00044b6:	8b 50 0c             	mov    0xc(%eax),%edx
c00044b9:	8b 45 fc             	mov    -0x4(%ebp),%eax
c00044bc:	89 50 04             	mov    %edx,0x4(%eax)
c00044bf:	8b 45 fc             	mov    -0x4(%ebp),%eax
c00044c2:	8b 50 04             	mov    0x4(%eax),%edx
c00044c5:	8b 45 fc             	mov    -0x4(%ebp),%eax
c00044c8:	89 10                	mov    %edx,(%eax)
c00044ca:	90                   	nop
c00044cb:	c9                   	leave  
c00044cc:	c3                   	ret    

c00044cd <init_thread>:
c00044cd:	55                   	push   %ebp
c00044ce:	89 e5                	mov    %esp,%ebp
c00044d0:	53                   	push   %ebx
c00044d1:	83 ec 14             	sub    $0x14,%esp
c00044d4:	e8 1c d5 ff ff       	call   c00019f5 <__x86.get_pc_thunk.bx>
c00044d9:	81 c3 27 db 00 00    	add    $0xdb27,%ebx
c00044df:	83 ec 04             	sub    $0x4,%esp
c00044e2:	68 18 01 00 00       	push   $0x118
c00044e7:	6a 00                	push   $0x0
c00044e9:	ff 75 08             	pushl  0x8(%ebp)
c00044ec:	e8 a4 e8 ff ff       	call   c0002d95 <memset>
c00044f1:	83 c4 10             	add    $0x10,%esp
c00044f4:	e8 c5 fe ff ff       	call   c00043be <allocate_pid>
c00044f9:	89 c2                	mov    %eax,%edx
c00044fb:	8b 45 08             	mov    0x8(%ebp),%eax
c00044fe:	66 89 50 04          	mov    %dx,0x4(%eax)
c0004502:	8b 45 08             	mov    0x8(%ebp),%eax
c0004505:	83 c0 0d             	add    $0xd,%eax
c0004508:	83 ec 08             	sub    $0x8,%esp
c000450b:	ff 75 0c             	pushl  0xc(%ebp)
c000450e:	50                   	push   %eax
c000450f:	e8 69 e9 ff ff       	call   c0002e7d <strcpy>
c0004514:	83 c4 10             	add    $0x10,%esp
c0004517:	c7 c0 f0 31 01 c0    	mov    $0xc00131f0,%eax
c000451d:	8b 00                	mov    (%eax),%eax
c000451f:	39 45 08             	cmp    %eax,0x8(%ebp)
c0004522:	75 0c                	jne    c0004530 <init_thread+0x63>
c0004524:	8b 45 08             	mov    0x8(%ebp),%eax
c0004527:	c7 40 08 00 00 00 00 	movl   $0x0,0x8(%eax)
c000452e:	eb 0a                	jmp    c000453a <init_thread+0x6d>
c0004530:	8b 45 08             	mov    0x8(%ebp),%eax
c0004533:	c7 40 08 01 00 00 00 	movl   $0x1,0x8(%eax)
c000453a:	8b 45 10             	mov    0x10(%ebp),%eax
c000453d:	89 c2                	mov    %eax,%edx
c000453f:	8b 45 08             	mov    0x8(%ebp),%eax
c0004542:	88 50 0c             	mov    %dl,0xc(%eax)
c0004545:	8b 45 10             	mov    0x10(%ebp),%eax
c0004548:	89 c2                	mov    %eax,%edx
c000454a:	8b 45 08             	mov    0x8(%ebp),%eax
c000454d:	88 50 1d             	mov    %dl,0x1d(%eax)
c0004550:	8b 45 08             	mov    0x8(%ebp),%eax
c0004553:	c7 40 20 00 00 00 00 	movl   $0x0,0x20(%eax)
c000455a:	8b 45 08             	mov    0x8(%ebp),%eax
c000455d:	c7 40 54 00 00 00 00 	movl   $0x0,0x54(%eax)
c0004564:	8b 45 08             	mov    0x8(%ebp),%eax
c0004567:	05 00 10 00 00       	add    $0x1000,%eax
c000456c:	89 c2                	mov    %eax,%edx
c000456e:	8b 45 08             	mov    0x8(%ebp),%eax
c0004571:	89 10                	mov    %edx,(%eax)
c0004573:	8b 45 08             	mov    0x8(%ebp),%eax
c0004576:	c7 40 24 00 00 00 00 	movl   $0x0,0x24(%eax)
c000457d:	8b 45 08             	mov    0x8(%ebp),%eax
c0004580:	c7 40 28 01 00 00 00 	movl   $0x1,0x28(%eax)
c0004587:	8b 45 08             	mov    0x8(%ebp),%eax
c000458a:	c7 40 2c 02 00 00 00 	movl   $0x2,0x2c(%eax)
c0004591:	c6 45 f7 03          	movb   $0x3,-0x9(%ebp)
c0004595:	eb 1c                	jmp    c00045b3 <init_thread+0xe6>
c0004597:	0f b6 55 f7          	movzbl -0x9(%ebp),%edx
c000459b:	8b 45 08             	mov    0x8(%ebp),%eax
c000459e:	83 c2 08             	add    $0x8,%edx
c00045a1:	c7 44 90 04 ff ff ff 	movl   $0xffffffff,0x4(%eax,%edx,4)
c00045a8:	ff 
c00045a9:	0f b6 45 f7          	movzbl -0x9(%ebp),%eax
c00045ad:	83 c0 01             	add    $0x1,%eax
c00045b0:	88 45 f7             	mov    %al,-0x9(%ebp)
c00045b3:	80 7d f7 07          	cmpb   $0x7,-0x9(%ebp)
c00045b7:	76 de                	jbe    c0004597 <init_thread+0xca>
c00045b9:	8b 45 08             	mov    0x8(%ebp),%eax
c00045bc:	c7 80 0c 01 00 00 00 	movl   $0x0,0x10c(%eax)
c00045c3:	00 00 00 
c00045c6:	8b 45 08             	mov    0x8(%ebp),%eax
c00045c9:	66 c7 80 10 01 00 00 	movw   $0xffff,0x110(%eax)
c00045d0:	ff ff 
c00045d2:	8b 45 08             	mov    0x8(%ebp),%eax
c00045d5:	c7 80 14 01 00 00 16 	movl   $0x19870916,0x114(%eax)
c00045dc:	09 87 19 
c00045df:	90                   	nop
c00045e0:	8b 5d fc             	mov    -0x4(%ebp),%ebx
c00045e3:	c9                   	leave  
c00045e4:	c3                   	ret    

c00045e5 <thread_start>:
c00045e5:	55                   	push   %ebp
c00045e6:	89 e5                	mov    %esp,%ebp
c00045e8:	53                   	push   %ebx
c00045e9:	83 ec 14             	sub    $0x14,%esp
c00045ec:	e8 04 d4 ff ff       	call   c00019f5 <__x86.get_pc_thunk.bx>
c00045f1:	81 c3 0f da 00 00    	add    $0xda0f,%ebx
c00045f7:	83 ec 0c             	sub    $0xc,%esp
c00045fa:	6a 01                	push   $0x1
c00045fc:	e8 d6 ef ff ff       	call   c00035d7 <get_kernel_pages>
c0004601:	83 c4 10             	add    $0x10,%esp
c0004604:	89 45 f4             	mov    %eax,-0xc(%ebp)
c0004607:	83 ec 04             	sub    $0x4,%esp
c000460a:	ff 75 0c             	pushl  0xc(%ebp)
c000460d:	ff 75 08             	pushl  0x8(%ebp)
c0004610:	ff 75 f4             	pushl  -0xc(%ebp)
c0004613:	e8 b5 fe ff ff       	call   c00044cd <init_thread>
c0004618:	83 c4 10             	add    $0x10,%esp
c000461b:	83 ec 04             	sub    $0x4,%esp
c000461e:	ff 75 14             	pushl  0x14(%ebp)
c0004621:	ff 75 10             	pushl  0x10(%ebp)
c0004624:	ff 75 f4             	pushl  -0xc(%ebp)
c0004627:	e8 1d fe ff ff       	call   c0004449 <thread_create>
c000462c:	83 c4 10             	add    $0x10,%esp
c000462f:	8b 45 f4             	mov    -0xc(%ebp),%eax
c0004632:	83 c0 44             	add    $0x44,%eax
c0004635:	83 ec 08             	sub    $0x8,%esp
c0004638:	50                   	push   %eax
c0004639:	c7 c0 cc 31 01 c0    	mov    $0xc00131cc,%eax
c000463f:	50                   	push   %eax
c0004640:	e8 54 e4 ff ff       	call   c0002a99 <list_append>
c0004645:	83 c4 10             	add    $0x10,%esp
c0004648:	8b 45 f4             	mov    -0xc(%ebp),%eax
c000464b:	83 c0 4c             	add    $0x4c,%eax
c000464e:	83 ec 08             	sub    $0x8,%esp
c0004651:	50                   	push   %eax
c0004652:	c7 c0 dc 31 01 c0    	mov    $0xc00131dc,%eax
c0004658:	50                   	push   %eax
c0004659:	e8 3b e4 ff ff       	call   c0002a99 <list_append>
c000465e:	83 c4 10             	add    $0x10,%esp
c0004661:	8b 45 f4             	mov    -0xc(%ebp),%eax
c0004664:	8b 5d fc             	mov    -0x4(%ebp),%ebx
c0004667:	c9                   	leave  
c0004668:	c3                   	ret    

c0004669 <make_main_thread>:
c0004669:	55                   	push   %ebp
c000466a:	89 e5                	mov    %esp,%ebp
c000466c:	53                   	push   %ebx
c000466d:	83 ec 04             	sub    $0x4,%esp
c0004670:	e8 80 d3 ff ff       	call   c00019f5 <__x86.get_pc_thunk.bx>
c0004675:	81 c3 8b d9 00 00    	add    $0xd98b,%ebx
c000467b:	e8 f3 fc ff ff       	call   c0004373 <running_thread>
c0004680:	89 c2                	mov    %eax,%edx
c0004682:	c7 c0 f0 31 01 c0    	mov    $0xc00131f0,%eax
c0004688:	89 10                	mov    %edx,(%eax)
c000468a:	c7 c0 f0 31 01 c0    	mov    $0xc00131f0,%eax
c0004690:	8b 00                	mov    (%eax),%eax
c0004692:	83 ec 04             	sub    $0x4,%esp
c0004695:	6a 1f                	push   $0x1f
c0004697:	8d 93 54 b5 ff ff    	lea    -0x4aac(%ebx),%edx
c000469d:	52                   	push   %edx
c000469e:	50                   	push   %eax
c000469f:	e8 29 fe ff ff       	call   c00044cd <init_thread>
c00046a4:	83 c4 10             	add    $0x10,%esp
c00046a7:	c7 c0 f0 31 01 c0    	mov    $0xc00131f0,%eax
c00046ad:	8b 00                	mov    (%eax),%eax
c00046af:	83 c0 4c             	add    $0x4c,%eax
c00046b2:	83 ec 08             	sub    $0x8,%esp
c00046b5:	50                   	push   %eax
c00046b6:	c7 c0 dc 31 01 c0    	mov    $0xc00131dc,%eax
c00046bc:	50                   	push   %eax
c00046bd:	e8 d7 e3 ff ff       	call   c0002a99 <list_append>
c00046c2:	83 c4 10             	add    $0x10,%esp
c00046c5:	90                   	nop
c00046c6:	8b 5d fc             	mov    -0x4(%ebp),%ebx
c00046c9:	c9                   	leave  
c00046ca:	c3                   	ret    

c00046cb <schedule>:
c00046cb:	55                   	push   %ebp
c00046cc:	89 e5                	mov    %esp,%ebp
c00046ce:	53                   	push   %ebx
c00046cf:	83 ec 14             	sub    $0x14,%esp
c00046d2:	e8 1e d3 ff ff       	call   c00019f5 <__x86.get_pc_thunk.bx>
c00046d7:	81 c3 29 d9 00 00    	add    $0xd929,%ebx
c00046dd:	e8 91 fc ff ff       	call   c0004373 <running_thread>
c00046e2:	89 45 f4             	mov    %eax,-0xc(%ebp)
c00046e5:	8b 45 f4             	mov    -0xc(%ebp),%eax
c00046e8:	8b 40 08             	mov    0x8(%eax),%eax
c00046eb:	85 c0                	test   %eax,%eax
c00046ed:	75 30                	jne    c000471f <schedule+0x54>
c00046ef:	8b 45 f4             	mov    -0xc(%ebp),%eax
c00046f2:	83 c0 44             	add    $0x44,%eax
c00046f5:	83 ec 08             	sub    $0x8,%esp
c00046f8:	50                   	push   %eax
c00046f9:	c7 c0 cc 31 01 c0    	mov    $0xc00131cc,%eax
c00046ff:	50                   	push   %eax
c0004700:	e8 94 e3 ff ff       	call   c0002a99 <list_append>
c0004705:	83 c4 10             	add    $0x10,%esp
c0004708:	8b 45 f4             	mov    -0xc(%ebp),%eax
c000470b:	0f b6 50 0c          	movzbl 0xc(%eax),%edx
c000470f:	8b 45 f4             	mov    -0xc(%ebp),%eax
c0004712:	88 50 1d             	mov    %dl,0x1d(%eax)
c0004715:	8b 45 f4             	mov    -0xc(%ebp),%eax
c0004718:	c7 40 08 01 00 00 00 	movl   $0x1,0x8(%eax)
c000471f:	83 ec 0c             	sub    $0xc,%esp
c0004722:	c7 c0 cc 31 01 c0    	mov    $0xc00131cc,%eax
c0004728:	50                   	push   %eax
c0004729:	e8 2f e6 ff ff       	call   c0002d5d <list_empty>
c000472e:	83 c4 10             	add    $0x10,%esp
c0004731:	85 c0                	test   %eax,%eax
c0004733:	74 14                	je     c0004749 <schedule+0x7e>
c0004735:	c7 c0 ec 31 01 c0    	mov    $0xc00131ec,%eax
c000473b:	8b 00                	mov    (%eax),%eax
c000473d:	83 ec 0c             	sub    $0xc,%esp
c0004740:	50                   	push   %eax
c0004741:	e8 a4 00 00 00       	call   c00047ea <thread_unblock>
c0004746:	83 c4 10             	add    $0x10,%esp
c0004749:	c7 83 88 05 00 00 00 	movl   $0x0,0x588(%ebx)
c0004750:	00 00 00 
c0004753:	83 ec 0c             	sub    $0xc,%esp
c0004756:	c7 c0 cc 31 01 c0    	mov    $0xc00131cc,%eax
c000475c:	50                   	push   %eax
c000475d:	e8 a8 e3 ff ff       	call   c0002b0a <list_pop>
c0004762:	83 c4 10             	add    $0x10,%esp
c0004765:	89 83 88 05 00 00    	mov    %eax,0x588(%ebx)
c000476b:	8b 83 88 05 00 00    	mov    0x588(%ebx),%eax
c0004771:	83 e8 44             	sub    $0x44,%eax
c0004774:	89 45 f0             	mov    %eax,-0x10(%ebp)
c0004777:	8b 45 f0             	mov    -0x10(%ebp),%eax
c000477a:	c7 40 08 00 00 00 00 	movl   $0x0,0x8(%eax)
c0004781:	83 ec 0c             	sub    $0xc,%esp
c0004784:	ff 75 f0             	pushl  -0x10(%ebp)
c0004787:	e8 c5 11 00 00       	call   c0005951 <process_activate>
c000478c:	83 c4 10             	add    $0x10,%esp
c000478f:	83 ec 08             	sub    $0x8,%esp
c0004792:	ff 75 f0             	pushl  -0x10(%ebp)
c0004795:	ff 75 f4             	pushl  -0xc(%ebp)
c0004798:	e8 e3 e5 ff ff       	call   c0002d80 <switch_to>
c000479d:	83 c4 10             	add    $0x10,%esp
c00047a0:	90                   	nop
c00047a1:	8b 5d fc             	mov    -0x4(%ebp),%ebx
c00047a4:	c9                   	leave  
c00047a5:	c3                   	ret    

c00047a6 <thread_block>:
c00047a6:	55                   	push   %ebp
c00047a7:	89 e5                	mov    %esp,%ebp
c00047a9:	53                   	push   %ebx
c00047aa:	83 ec 14             	sub    $0x14,%esp
c00047ad:	e8 43 d2 ff ff       	call   c00019f5 <__x86.get_pc_thunk.bx>
c00047b2:	81 c3 4e d8 00 00    	add    $0xd84e,%ebx
c00047b8:	e8 70 d7 ff ff       	call   c0001f2d <intr_disable>
c00047bd:	89 45 f4             	mov    %eax,-0xc(%ebp)
c00047c0:	e8 ae fb ff ff       	call   c0004373 <running_thread>
c00047c5:	89 45 f0             	mov    %eax,-0x10(%ebp)
c00047c8:	8b 45 f0             	mov    -0x10(%ebp),%eax
c00047cb:	8b 55 08             	mov    0x8(%ebp),%edx
c00047ce:	89 50 08             	mov    %edx,0x8(%eax)
c00047d1:	e8 f5 fe ff ff       	call   c00046cb <schedule>
c00047d6:	83 ec 0c             	sub    $0xc,%esp
c00047d9:	ff 75 f4             	pushl  -0xc(%ebp)
c00047dc:	e8 7f d7 ff ff       	call   c0001f60 <intr_set_status>
c00047e1:	83 c4 10             	add    $0x10,%esp
c00047e4:	90                   	nop
c00047e5:	8b 5d fc             	mov    -0x4(%ebp),%ebx
c00047e8:	c9                   	leave  
c00047e9:	c3                   	ret    

c00047ea <thread_unblock>:
c00047ea:	55                   	push   %ebp
c00047eb:	89 e5                	mov    %esp,%ebp
c00047ed:	53                   	push   %ebx
c00047ee:	83 ec 14             	sub    $0x14,%esp
c00047f1:	e8 ff d1 ff ff       	call   c00019f5 <__x86.get_pc_thunk.bx>
c00047f6:	81 c3 0a d8 00 00    	add    $0xd80a,%ebx
c00047fc:	e8 2c d7 ff ff       	call   c0001f2d <intr_disable>
c0004801:	89 45 f4             	mov    %eax,-0xc(%ebp)
c0004804:	8b 45 08             	mov    0x8(%ebp),%eax
c0004807:	8b 40 08             	mov    0x8(%eax),%eax
c000480a:	83 f8 01             	cmp    $0x1,%eax
c000480d:	74 62                	je     c0004871 <thread_unblock+0x87>
c000480f:	8b 45 08             	mov    0x8(%ebp),%eax
c0004812:	83 c0 44             	add    $0x44,%eax
c0004815:	83 ec 08             	sub    $0x8,%esp
c0004818:	50                   	push   %eax
c0004819:	c7 c0 cc 31 01 c0    	mov    $0xc00131cc,%eax
c000481f:	50                   	push   %eax
c0004820:	e8 11 e3 ff ff       	call   c0002b36 <elem_find>
c0004825:	83 c4 10             	add    $0x10,%esp
c0004828:	85 c0                	test   %eax,%eax
c000482a:	74 22                	je     c000484e <thread_unblock+0x64>
c000482c:	8d 83 5c b5 ff ff    	lea    -0x4aa4(%ebx),%eax
c0004832:	50                   	push   %eax
c0004833:	8d 83 84 b6 ff ff    	lea    -0x497c(%ebx),%eax
c0004839:	50                   	push   %eax
c000483a:	68 9e 00 00 00       	push   $0x9e
c000483f:	8d 83 88 b5 ff ff    	lea    -0x4a78(%ebx),%eax
c0004845:	50                   	push   %eax
c0004846:	e8 a6 e0 ff ff       	call   c00028f1 <panic_spin>
c000484b:	83 c4 10             	add    $0x10,%esp
c000484e:	8b 45 08             	mov    0x8(%ebp),%eax
c0004851:	83 c0 44             	add    $0x44,%eax
c0004854:	83 ec 08             	sub    $0x8,%esp
c0004857:	50                   	push   %eax
c0004858:	c7 c0 cc 31 01 c0    	mov    $0xc00131cc,%eax
c000485e:	50                   	push   %eax
c000485f:	e8 0d e2 ff ff       	call   c0002a71 <list_push>
c0004864:	83 c4 10             	add    $0x10,%esp
c0004867:	8b 45 08             	mov    0x8(%ebp),%eax
c000486a:	c7 40 08 01 00 00 00 	movl   $0x1,0x8(%eax)
c0004871:	83 ec 0c             	sub    $0xc,%esp
c0004874:	ff 75 f4             	pushl  -0xc(%ebp)
c0004877:	e8 e4 d6 ff ff       	call   c0001f60 <intr_set_status>
c000487c:	83 c4 10             	add    $0x10,%esp
c000487f:	90                   	nop
c0004880:	8b 5d fc             	mov    -0x4(%ebp),%ebx
c0004883:	c9                   	leave  
c0004884:	c3                   	ret    

c0004885 <thread_yield>:
c0004885:	55                   	push   %ebp
c0004886:	89 e5                	mov    %esp,%ebp
c0004888:	53                   	push   %ebx
c0004889:	83 ec 14             	sub    $0x14,%esp
c000488c:	e8 64 d1 ff ff       	call   c00019f5 <__x86.get_pc_thunk.bx>
c0004891:	81 c3 6f d7 00 00    	add    $0xd76f,%ebx
c0004897:	e8 d7 fa ff ff       	call   c0004373 <running_thread>
c000489c:	89 45 f4             	mov    %eax,-0xc(%ebp)
c000489f:	e8 89 d6 ff ff       	call   c0001f2d <intr_disable>
c00048a4:	89 45 f0             	mov    %eax,-0x10(%ebp)
c00048a7:	8b 45 f4             	mov    -0xc(%ebp),%eax
c00048aa:	83 c0 44             	add    $0x44,%eax
c00048ad:	83 ec 08             	sub    $0x8,%esp
c00048b0:	50                   	push   %eax
c00048b1:	c7 c0 cc 31 01 c0    	mov    $0xc00131cc,%eax
c00048b7:	50                   	push   %eax
c00048b8:	e8 dc e1 ff ff       	call   c0002a99 <list_append>
c00048bd:	83 c4 10             	add    $0x10,%esp
c00048c0:	8b 45 f4             	mov    -0xc(%ebp),%eax
c00048c3:	c7 40 08 01 00 00 00 	movl   $0x1,0x8(%eax)
c00048ca:	e8 fc fd ff ff       	call   c00046cb <schedule>
c00048cf:	83 ec 0c             	sub    $0xc,%esp
c00048d2:	ff 75 f0             	pushl  -0x10(%ebp)
c00048d5:	e8 86 d6 ff ff       	call   c0001f60 <intr_set_status>
c00048da:	83 c4 10             	add    $0x10,%esp
c00048dd:	90                   	nop
c00048de:	8b 5d fc             	mov    -0x4(%ebp),%ebx
c00048e1:	c9                   	leave  
c00048e2:	c3                   	ret    

c00048e3 <pad_print>:
c00048e3:	55                   	push   %ebp
c00048e4:	89 e5                	mov    %esp,%ebp
c00048e6:	53                   	push   %ebx
c00048e7:	83 ec 24             	sub    $0x24,%esp
c00048ea:	e8 06 d1 ff ff       	call   c00019f5 <__x86.get_pc_thunk.bx>
c00048ef:	81 c3 11 d7 00 00    	add    $0xd711,%ebx
c00048f5:	8b 45 14             	mov    0x14(%ebp),%eax
c00048f8:	88 45 e4             	mov    %al,-0x1c(%ebp)
c00048fb:	8b 45 0c             	mov    0xc(%ebp),%eax
c00048fe:	83 ec 04             	sub    $0x4,%esp
c0004901:	50                   	push   %eax
c0004902:	6a 00                	push   $0x0
c0004904:	ff 75 08             	pushl  0x8(%ebp)
c0004907:	e8 89 e4 ff ff       	call   c0002d95 <memset>
c000490c:	83 c4 10             	add    $0x10,%esp
c000490f:	c6 45 f7 00          	movb   $0x0,-0x9(%ebp)
c0004913:	0f be 45 e4          	movsbl -0x1c(%ebp),%eax
c0004917:	83 f8 73             	cmp    $0x73,%eax
c000491a:	74 0c                	je     c0004928 <pad_print+0x45>
c000491c:	83 f8 78             	cmp    $0x78,%eax
c000491f:	74 44                	je     c0004965 <pad_print+0x82>
c0004921:	83 f8 64             	cmp    $0x64,%eax
c0004924:	74 1f                	je     c0004945 <pad_print+0x62>
c0004926:	eb 5b                	jmp    c0004983 <pad_print+0xa0>
c0004928:	83 ec 04             	sub    $0x4,%esp
c000492b:	ff 75 10             	pushl  0x10(%ebp)
c000492e:	8d 83 98 b5 ff ff    	lea    -0x4a68(%ebx),%eax
c0004934:	50                   	push   %eax
c0004935:	ff 75 08             	pushl  0x8(%ebp)
c0004938:	e8 fa 19 00 00       	call   c0006337 <sprintf>
c000493d:	83 c4 10             	add    $0x10,%esp
c0004940:	88 45 f7             	mov    %al,-0x9(%ebp)
c0004943:	eb 3e                	jmp    c0004983 <pad_print+0xa0>
c0004945:	8b 45 10             	mov    0x10(%ebp),%eax
c0004948:	0f b7 00             	movzwl (%eax),%eax
c000494b:	98                   	cwtl   
c000494c:	83 ec 04             	sub    $0x4,%esp
c000494f:	50                   	push   %eax
c0004950:	8d 83 9b b5 ff ff    	lea    -0x4a65(%ebx),%eax
c0004956:	50                   	push   %eax
c0004957:	ff 75 08             	pushl  0x8(%ebp)
c000495a:	e8 d8 19 00 00       	call   c0006337 <sprintf>
c000495f:	83 c4 10             	add    $0x10,%esp
c0004962:	88 45 f7             	mov    %al,-0x9(%ebp)
c0004965:	8b 45 10             	mov    0x10(%ebp),%eax
c0004968:	8b 00                	mov    (%eax),%eax
c000496a:	83 ec 04             	sub    $0x4,%esp
c000496d:	50                   	push   %eax
c000496e:	8d 83 9e b5 ff ff    	lea    -0x4a62(%ebx),%eax
c0004974:	50                   	push   %eax
c0004975:	ff 75 08             	pushl  0x8(%ebp)
c0004978:	e8 ba 19 00 00       	call   c0006337 <sprintf>
c000497d:	83 c4 10             	add    $0x10,%esp
c0004980:	88 45 f7             	mov    %al,-0x9(%ebp)
c0004983:	eb 16                	jmp    c000499b <pad_print+0xb8>
c0004985:	0f b6 55 f7          	movzbl -0x9(%ebp),%edx
c0004989:	8b 45 08             	mov    0x8(%ebp),%eax
c000498c:	01 d0                	add    %edx,%eax
c000498e:	c6 00 20             	movb   $0x20,(%eax)
c0004991:	0f b6 45 f7          	movzbl -0x9(%ebp),%eax
c0004995:	83 c0 01             	add    $0x1,%eax
c0004998:	88 45 f7             	mov    %al,-0x9(%ebp)
c000499b:	0f b6 45 f7          	movzbl -0x9(%ebp),%eax
c000499f:	39 45 0c             	cmp    %eax,0xc(%ebp)
c00049a2:	7f e1                	jg     c0004985 <pad_print+0xa2>
c00049a4:	8b 45 0c             	mov    0xc(%ebp),%eax
c00049a7:	83 e8 01             	sub    $0x1,%eax
c00049aa:	83 ec 04             	sub    $0x4,%esp
c00049ad:	50                   	push   %eax
c00049ae:	ff 75 08             	pushl  0x8(%ebp)
c00049b1:	6a 01                	push   $0x1
c00049b3:	e8 f8 59 00 00       	call   c000a3b0 <sys_write>
c00049b8:	83 c4 10             	add    $0x10,%esp
c00049bb:	90                   	nop
c00049bc:	8b 5d fc             	mov    -0x4(%ebp),%ebx
c00049bf:	c9                   	leave  
c00049c0:	c3                   	ret    

c00049c1 <elem2thread_info>:
c00049c1:	55                   	push   %ebp
c00049c2:	89 e5                	mov    %esp,%ebp
c00049c4:	53                   	push   %ebx
c00049c5:	83 ec 24             	sub    $0x24,%esp
c00049c8:	e8 28 d0 ff ff       	call   c00019f5 <__x86.get_pc_thunk.bx>
c00049cd:	81 c3 33 d6 00 00    	add    $0xd633,%ebx
c00049d3:	8b 45 08             	mov    0x8(%ebp),%eax
c00049d6:	83 e8 4c             	sub    $0x4c,%eax
c00049d9:	89 45 f4             	mov    %eax,-0xc(%ebp)
c00049dc:	c7 45 e4 00 00 00 00 	movl   $0x0,-0x1c(%ebp)
c00049e3:	c7 45 e8 00 00 00 00 	movl   $0x0,-0x18(%ebp)
c00049ea:	c7 45 ec 00 00 00 00 	movl   $0x0,-0x14(%ebp)
c00049f1:	c7 45 f0 00 00 00 00 	movl   $0x0,-0x10(%ebp)
c00049f8:	8b 45 f4             	mov    -0xc(%ebp),%eax
c00049fb:	83 c0 04             	add    $0x4,%eax
c00049fe:	6a 64                	push   $0x64
c0004a00:	50                   	push   %eax
c0004a01:	6a 10                	push   $0x10
c0004a03:	8d 45 e4             	lea    -0x1c(%ebp),%eax
c0004a06:	50                   	push   %eax
c0004a07:	e8 d7 fe ff ff       	call   c00048e3 <pad_print>
c0004a0c:	83 c4 10             	add    $0x10,%esp
c0004a0f:	8b 45 f4             	mov    -0xc(%ebp),%eax
c0004a12:	0f b7 80 10 01 00 00 	movzwl 0x110(%eax),%eax
c0004a19:	66 83 f8 ff          	cmp    $0xffff,%ax
c0004a1d:	75 19                	jne    c0004a38 <elem2thread_info+0x77>
c0004a1f:	6a 73                	push   $0x73
c0004a21:	8d 83 a1 b5 ff ff    	lea    -0x4a5f(%ebx),%eax
c0004a27:	50                   	push   %eax
c0004a28:	6a 10                	push   $0x10
c0004a2a:	8d 45 e4             	lea    -0x1c(%ebp),%eax
c0004a2d:	50                   	push   %eax
c0004a2e:	e8 b0 fe ff ff       	call   c00048e3 <pad_print>
c0004a33:	83 c4 10             	add    $0x10,%esp
c0004a36:	eb 19                	jmp    c0004a51 <elem2thread_info+0x90>
c0004a38:	8b 45 f4             	mov    -0xc(%ebp),%eax
c0004a3b:	05 10 01 00 00       	add    $0x110,%eax
c0004a40:	6a 64                	push   $0x64
c0004a42:	50                   	push   %eax
c0004a43:	6a 10                	push   $0x10
c0004a45:	8d 45 e4             	lea    -0x1c(%ebp),%eax
c0004a48:	50                   	push   %eax
c0004a49:	e8 95 fe ff ff       	call   c00048e3 <pad_print>
c0004a4e:	83 c4 10             	add    $0x10,%esp
c0004a51:	8b 45 f4             	mov    -0xc(%ebp),%eax
c0004a54:	8b 40 08             	mov    0x8(%eax),%eax
c0004a57:	83 f8 05             	cmp    $0x5,%eax
c0004a5a:	0f 87 a2 00 00 00    	ja     c0004b02 <.L44+0x17>
c0004a60:	c1 e0 02             	shl    $0x2,%eax
c0004a63:	8b 84 18 d4 b5 ff ff 	mov    -0x4a2c(%eax,%ebx,1),%eax
c0004a6a:	01 d8                	add    %ebx,%eax
c0004a6c:	ff e0                	jmp    *%eax

c0004a6e <.L38>:
c0004a6e:	6a 73                	push   $0x73
c0004a70:	8d 83 a6 b5 ff ff    	lea    -0x4a5a(%ebx),%eax
c0004a76:	50                   	push   %eax
c0004a77:	6a 10                	push   $0x10
c0004a79:	8d 45 e4             	lea    -0x1c(%ebp),%eax
c0004a7c:	50                   	push   %eax
c0004a7d:	e8 61 fe ff ff       	call   c00048e3 <pad_print>
c0004a82:	83 c4 10             	add    $0x10,%esp
c0004a85:	eb 7b                	jmp    c0004b02 <.L44+0x17>

c0004a87 <.L40>:
c0004a87:	6a 73                	push   $0x73
c0004a89:	8d 83 ae b5 ff ff    	lea    -0x4a52(%ebx),%eax
c0004a8f:	50                   	push   %eax
c0004a90:	6a 10                	push   $0x10
c0004a92:	8d 45 e4             	lea    -0x1c(%ebp),%eax
c0004a95:	50                   	push   %eax
c0004a96:	e8 48 fe ff ff       	call   c00048e3 <pad_print>
c0004a9b:	83 c4 10             	add    $0x10,%esp
c0004a9e:	eb 62                	jmp    c0004b02 <.L44+0x17>

c0004aa0 <.L41>:
c0004aa0:	6a 73                	push   $0x73
c0004aa2:	8d 83 b4 b5 ff ff    	lea    -0x4a4c(%ebx),%eax
c0004aa8:	50                   	push   %eax
c0004aa9:	6a 10                	push   $0x10
c0004aab:	8d 45 e4             	lea    -0x1c(%ebp),%eax
c0004aae:	50                   	push   %eax
c0004aaf:	e8 2f fe ff ff       	call   c00048e3 <pad_print>
c0004ab4:	83 c4 10             	add    $0x10,%esp
c0004ab7:	eb 49                	jmp    c0004b02 <.L44+0x17>

c0004ab9 <.L42>:
c0004ab9:	6a 73                	push   $0x73
c0004abb:	8d 83 bc b5 ff ff    	lea    -0x4a44(%ebx),%eax
c0004ac1:	50                   	push   %eax
c0004ac2:	6a 10                	push   $0x10
c0004ac4:	8d 45 e4             	lea    -0x1c(%ebp),%eax
c0004ac7:	50                   	push   %eax
c0004ac8:	e8 16 fe ff ff       	call   c00048e3 <pad_print>
c0004acd:	83 c4 10             	add    $0x10,%esp
c0004ad0:	eb 30                	jmp    c0004b02 <.L44+0x17>

c0004ad2 <.L43>:
c0004ad2:	6a 73                	push   $0x73
c0004ad4:	8d 83 c4 b5 ff ff    	lea    -0x4a3c(%ebx),%eax
c0004ada:	50                   	push   %eax
c0004adb:	6a 10                	push   $0x10
c0004add:	8d 45 e4             	lea    -0x1c(%ebp),%eax
c0004ae0:	50                   	push   %eax
c0004ae1:	e8 fd fd ff ff       	call   c00048e3 <pad_print>
c0004ae6:	83 c4 10             	add    $0x10,%esp
c0004ae9:	eb 17                	jmp    c0004b02 <.L44+0x17>

c0004aeb <.L44>:
c0004aeb:	6a 73                	push   $0x73
c0004aed:	8d 83 cc b5 ff ff    	lea    -0x4a34(%ebx),%eax
c0004af3:	50                   	push   %eax
c0004af4:	6a 10                	push   $0x10
c0004af6:	8d 45 e4             	lea    -0x1c(%ebp),%eax
c0004af9:	50                   	push   %eax
c0004afa:	e8 e4 fd ff ff       	call   c00048e3 <pad_print>
c0004aff:	83 c4 10             	add    $0x10,%esp
c0004b02:	8b 45 f4             	mov    -0xc(%ebp),%eax
c0004b05:	83 c0 20             	add    $0x20,%eax
c0004b08:	6a 78                	push   $0x78
c0004b0a:	50                   	push   %eax
c0004b0b:	6a 10                	push   $0x10
c0004b0d:	8d 45 e4             	lea    -0x1c(%ebp),%eax
c0004b10:	50                   	push   %eax
c0004b11:	e8 cd fd ff ff       	call   c00048e3 <pad_print>
c0004b16:	83 c4 10             	add    $0x10,%esp
c0004b19:	83 ec 04             	sub    $0x4,%esp
c0004b1c:	6a 10                	push   $0x10
c0004b1e:	6a 00                	push   $0x0
c0004b20:	8d 45 e4             	lea    -0x1c(%ebp),%eax
c0004b23:	50                   	push   %eax
c0004b24:	e8 6c e2 ff ff       	call   c0002d95 <memset>
c0004b29:	83 c4 10             	add    $0x10,%esp
c0004b2c:	8b 45 f4             	mov    -0xc(%ebp),%eax
c0004b2f:	83 c0 0d             	add    $0xd,%eax
c0004b32:	83 ec 0c             	sub    $0xc,%esp
c0004b35:	50                   	push   %eax
c0004b36:	e8 7c e3 ff ff       	call   c0002eb7 <strlen>
c0004b3b:	83 c4 10             	add    $0x10,%esp
c0004b3e:	89 c2                	mov    %eax,%edx
c0004b40:	8b 45 f4             	mov    -0xc(%ebp),%eax
c0004b43:	83 c0 0d             	add    $0xd,%eax
c0004b46:	83 ec 04             	sub    $0x4,%esp
c0004b49:	52                   	push   %edx
c0004b4a:	50                   	push   %eax
c0004b4b:	8d 45 e4             	lea    -0x1c(%ebp),%eax
c0004b4e:	50                   	push   %eax
c0004b4f:	e8 7c e2 ff ff       	call   c0002dd0 <memcpy>
c0004b54:	83 c4 10             	add    $0x10,%esp
c0004b57:	83 ec 08             	sub    $0x8,%esp
c0004b5a:	8d 83 d1 b5 ff ff    	lea    -0x4a2f(%ebx),%eax
c0004b60:	50                   	push   %eax
c0004b61:	8d 45 e4             	lea    -0x1c(%ebp),%eax
c0004b64:	50                   	push   %eax
c0004b65:	e8 71 e4 ff ff       	call   c0002fdb <strcat>
c0004b6a:	83 c4 10             	add    $0x10,%esp
c0004b6d:	83 ec 0c             	sub    $0xc,%esp
c0004b70:	8d 45 e4             	lea    -0x1c(%ebp),%eax
c0004b73:	50                   	push   %eax
c0004b74:	e8 3e e3 ff ff       	call   c0002eb7 <strlen>
c0004b79:	83 c4 10             	add    $0x10,%esp
c0004b7c:	83 ec 04             	sub    $0x4,%esp
c0004b7f:	50                   	push   %eax
c0004b80:	8d 45 e4             	lea    -0x1c(%ebp),%eax
c0004b83:	50                   	push   %eax
c0004b84:	6a 01                	push   $0x1
c0004b86:	e8 25 58 00 00       	call   c000a3b0 <sys_write>
c0004b8b:	83 c4 10             	add    $0x10,%esp
c0004b8e:	b8 00 00 00 00       	mov    $0x0,%eax
c0004b93:	8b 5d fc             	mov    -0x4(%ebp),%ebx
c0004b96:	c9                   	leave  
c0004b97:	c3                   	ret    

c0004b98 <sys_ps>:
c0004b98:	55                   	push   %ebp
c0004b99:	89 e5                	mov    %esp,%ebp
c0004b9b:	53                   	push   %ebx
c0004b9c:	83 ec 14             	sub    $0x14,%esp
c0004b9f:	e8 51 ce ff ff       	call   c00019f5 <__x86.get_pc_thunk.bx>
c0004ba4:	81 c3 5c d4 00 00    	add    $0xd45c,%ebx
c0004baa:	8d 83 ec b5 ff ff    	lea    -0x4a14(%ebx),%eax
c0004bb0:	89 45 f4             	mov    %eax,-0xc(%ebp)
c0004bb3:	83 ec 0c             	sub    $0xc,%esp
c0004bb6:	ff 75 f4             	pushl  -0xc(%ebp)
c0004bb9:	e8 f9 e2 ff ff       	call   c0002eb7 <strlen>
c0004bbe:	83 c4 10             	add    $0x10,%esp
c0004bc1:	83 ec 04             	sub    $0x4,%esp
c0004bc4:	50                   	push   %eax
c0004bc5:	ff 75 f4             	pushl  -0xc(%ebp)
c0004bc8:	6a 01                	push   $0x1
c0004bca:	e8 e1 57 00 00       	call   c000a3b0 <sys_write>
c0004bcf:	83 c4 10             	add    $0x10,%esp
c0004bd2:	83 ec 04             	sub    $0x4,%esp
c0004bd5:	6a 00                	push   $0x0
c0004bd7:	8d 83 c1 29 ff ff    	lea    -0xd63f(%ebx),%eax
c0004bdd:	50                   	push   %eax
c0004bde:	c7 c0 dc 31 01 c0    	mov    $0xc00131dc,%eax
c0004be4:	50                   	push   %eax
c0004be5:	e8 91 df ff ff       	call   c0002b7b <list_traversal>
c0004bea:	83 c4 10             	add    $0x10,%esp
c0004bed:	90                   	nop
c0004bee:	8b 5d fc             	mov    -0x4(%ebp),%ebx
c0004bf1:	c9                   	leave  
c0004bf2:	c3                   	ret    

c0004bf3 <see_uporg>:
c0004bf3:	55                   	push   %ebp
c0004bf4:	89 e5                	mov    %esp,%ebp
c0004bf6:	53                   	push   %ebx
c0004bf7:	83 ec 14             	sub    $0x14,%esp
c0004bfa:	e8 f6 cd ff ff       	call   c00019f5 <__x86.get_pc_thunk.bx>
c0004bff:	81 c3 01 d4 00 00    	add    $0xd401,%ebx
c0004c05:	e8 69 f7 ff ff       	call   c0004373 <running_thread>
c0004c0a:	89 45 f0             	mov    %eax,-0x10(%ebp)
c0004c0d:	8b 45 f0             	mov    -0x10(%ebp),%eax
c0004c10:	0f b7 40 04          	movzwl 0x4(%eax),%eax
c0004c14:	98                   	cwtl   
c0004c15:	83 ec 08             	sub    $0x8,%esp
c0004c18:	50                   	push   %eax
c0004c19:	8d 83 31 b6 ff ff    	lea    -0x49cf(%ebx),%eax
c0004c1f:	50                   	push   %eax
c0004c20:	e8 94 16 00 00       	call   c00062b9 <printf>
c0004c25:	83 c4 10             	add    $0x10,%esp
c0004c28:	c7 45 f4 05 00 00 00 	movl   $0x5,-0xc(%ebp)
c0004c2f:	eb 3c                	jmp    c0004c6d <see_uporg+0x7a>
c0004c31:	83 ec 08             	sub    $0x8,%esp
c0004c34:	ff 75 f4             	pushl  -0xc(%ebp)
c0004c37:	8d 83 3d b6 ff ff    	lea    -0x49c3(%ebx),%eax
c0004c3d:	50                   	push   %eax
c0004c3e:	e8 76 16 00 00       	call   c00062b9 <printf>
c0004c43:	83 c4 10             	add    $0x10,%esp
c0004c46:	8b 55 f4             	mov    -0xc(%ebp),%edx
c0004c49:	89 d0                	mov    %edx,%eax
c0004c4b:	01 c0                	add    %eax,%eax
c0004c4d:	01 d0                	add    %edx,%eax
c0004c4f:	c1 e0 03             	shl    $0x3,%eax
c0004c52:	8d 50 60             	lea    0x60(%eax),%edx
c0004c55:	8b 45 f0             	mov    -0x10(%ebp),%eax
c0004c58:	01 d0                	add    %edx,%eax
c0004c5a:	83 c0 0c             	add    $0xc,%eax
c0004c5d:	83 ec 0c             	sub    $0xc,%esp
c0004c60:	50                   	push   %eax
c0004c61:	e8 7c df ff ff       	call   c0002be2 <list_len>
c0004c66:	83 c4 10             	add    $0x10,%esp
c0004c69:	83 45 f4 01          	addl   $0x1,-0xc(%ebp)
c0004c6d:	83 7d f4 06          	cmpl   $0x6,-0xc(%ebp)
c0004c71:	7e be                	jle    c0004c31 <see_uporg+0x3e>
c0004c73:	83 ec 0c             	sub    $0xc,%esp
c0004c76:	8d 83 46 b6 ff ff    	lea    -0x49ba(%ebx),%eax
c0004c7c:	50                   	push   %eax
c0004c7d:	e8 37 16 00 00       	call   c00062b9 <printf>
c0004c82:	83 c4 10             	add    $0x10,%esp
c0004c85:	90                   	nop
c0004c86:	8b 5d fc             	mov    -0x4(%ebp),%ebx
c0004c89:	c9                   	leave  
c0004c8a:	c3                   	ret    

c0004c8b <thread_init>:
c0004c8b:	55                   	push   %ebp
c0004c8c:	89 e5                	mov    %esp,%ebp
c0004c8e:	53                   	push   %ebx
c0004c8f:	83 ec 04             	sub    $0x4,%esp
c0004c92:	e8 5e cd ff ff       	call   c00019f5 <__x86.get_pc_thunk.bx>
c0004c97:	81 c3 69 d3 00 00    	add    $0xd369,%ebx
c0004c9d:	83 ec 0c             	sub    $0xc,%esp
c0004ca0:	8d 83 55 b6 ff ff    	lea    -0x49ab(%ebx),%eax
c0004ca6:	50                   	push   %eax
c0004ca7:	e8 94 da ff ff       	call   c0002740 <put_str>
c0004cac:	83 c4 10             	add    $0x10,%esp
c0004caf:	83 ec 0c             	sub    $0xc,%esp
c0004cb2:	c7 c0 cc 31 01 c0    	mov    $0xc00131cc,%eax
c0004cb8:	50                   	push   %eax
c0004cb9:	e8 27 dd ff ff       	call   c00029e5 <list_init>
c0004cbe:	83 c4 10             	add    $0x10,%esp
c0004cc1:	83 ec 0c             	sub    $0xc,%esp
c0004cc4:	c7 c0 dc 31 01 c0    	mov    $0xc00131dc,%eax
c0004cca:	50                   	push   %eax
c0004ccb:	e8 15 dd ff ff       	call   c00029e5 <list_init>
c0004cd0:	83 c4 10             	add    $0x10,%esp
c0004cd3:	83 ec 0c             	sub    $0xc,%esp
c0004cd6:	c7 c0 f4 31 01 c0    	mov    $0xc00131f4,%eax
c0004cdc:	50                   	push   %eax
c0004cdd:	e8 9b 00 00 00       	call   c0004d7d <lock_init>
c0004ce2:	83 c4 10             	add    $0x10,%esp
c0004ce5:	83 ec 08             	sub    $0x8,%esp
c0004ce8:	8d 83 68 b6 ff ff    	lea    -0x4998(%ebx),%eax
c0004cee:	50                   	push   %eax
c0004cef:	c7 c0 44 16 00 c0    	mov    $0xc0001644,%eax
c0004cf5:	50                   	push   %eax
c0004cf6:	e8 78 0d 00 00       	call   c0005a73 <process_execute>
c0004cfb:	83 c4 10             	add    $0x10,%esp
c0004cfe:	e8 66 f9 ff ff       	call   c0004669 <make_main_thread>
c0004d03:	6a 00                	push   $0x0
c0004d05:	8d 83 11 24 ff ff    	lea    -0xdbef(%ebx),%eax
c0004d0b:	50                   	push   %eax
c0004d0c:	6a 0a                	push   $0xa
c0004d0e:	8d 83 6d b6 ff ff    	lea    -0x4993(%ebx),%eax
c0004d14:	50                   	push   %eax
c0004d15:	e8 cb f8 ff ff       	call   c00045e5 <thread_start>
c0004d1a:	83 c4 10             	add    $0x10,%esp
c0004d1d:	89 c2                	mov    %eax,%edx
c0004d1f:	c7 c0 ec 31 01 c0    	mov    $0xc00131ec,%eax
c0004d25:	89 10                	mov    %edx,(%eax)
c0004d27:	83 ec 0c             	sub    $0xc,%esp
c0004d2a:	8d 83 72 b6 ff ff    	lea    -0x498e(%ebx),%eax
c0004d30:	50                   	push   %eax
c0004d31:	e8 0a da ff ff       	call   c0002740 <put_str>
c0004d36:	83 c4 10             	add    $0x10,%esp
c0004d39:	90                   	nop
c0004d3a:	8b 5d fc             	mov    -0x4(%ebp),%ebx
c0004d3d:	c9                   	leave  
c0004d3e:	c3                   	ret    

c0004d3f <__x86.get_pc_thunk.dx>:
c0004d3f:	8b 14 24             	mov    (%esp),%edx
c0004d42:	c3                   	ret    

c0004d43 <sema_init>:
c0004d43:	55                   	push   %ebp
c0004d44:	89 e5                	mov    %esp,%ebp
c0004d46:	53                   	push   %ebx
c0004d47:	83 ec 14             	sub    $0x14,%esp
c0004d4a:	e8 89 d2 ff ff       	call   c0001fd8 <__x86.get_pc_thunk.ax>
c0004d4f:	05 b1 d2 00 00       	add    $0xd2b1,%eax
c0004d54:	8b 55 0c             	mov    0xc(%ebp),%edx
c0004d57:	88 55 f4             	mov    %dl,-0xc(%ebp)
c0004d5a:	8b 55 08             	mov    0x8(%ebp),%edx
c0004d5d:	0f b6 4d f4          	movzbl -0xc(%ebp),%ecx
c0004d61:	88 0a                	mov    %cl,(%edx)
c0004d63:	8b 55 08             	mov    0x8(%ebp),%edx
c0004d66:	83 c2 04             	add    $0x4,%edx
c0004d69:	83 ec 0c             	sub    $0xc,%esp
c0004d6c:	52                   	push   %edx
c0004d6d:	89 c3                	mov    %eax,%ebx
c0004d6f:	e8 71 dc ff ff       	call   c00029e5 <list_init>
c0004d74:	83 c4 10             	add    $0x10,%esp
c0004d77:	90                   	nop
c0004d78:	8b 5d fc             	mov    -0x4(%ebp),%ebx
c0004d7b:	c9                   	leave  
c0004d7c:	c3                   	ret    

c0004d7d <lock_init>:
c0004d7d:	55                   	push   %ebp
c0004d7e:	89 e5                	mov    %esp,%ebp
c0004d80:	83 ec 08             	sub    $0x8,%esp
c0004d83:	e8 50 d2 ff ff       	call   c0001fd8 <__x86.get_pc_thunk.ax>
c0004d88:	05 78 d2 00 00       	add    $0xd278,%eax
c0004d8d:	8b 45 08             	mov    0x8(%ebp),%eax
c0004d90:	c7 00 00 00 00 00    	movl   $0x0,(%eax)
c0004d96:	8b 45 08             	mov    0x8(%ebp),%eax
c0004d99:	c7 40 18 00 00 00 00 	movl   $0x0,0x18(%eax)
c0004da0:	8b 45 08             	mov    0x8(%ebp),%eax
c0004da3:	83 c0 04             	add    $0x4,%eax
c0004da6:	83 ec 08             	sub    $0x8,%esp
c0004da9:	6a 01                	push   $0x1
c0004dab:	50                   	push   %eax
c0004dac:	e8 92 ff ff ff       	call   c0004d43 <sema_init>
c0004db1:	83 c4 10             	add    $0x10,%esp
c0004db4:	90                   	nop
c0004db5:	c9                   	leave  
c0004db6:	c3                   	ret    

c0004db7 <sema_down>:
c0004db7:	55                   	push   %ebp
c0004db8:	89 e5                	mov    %esp,%ebp
c0004dba:	53                   	push   %ebx
c0004dbb:	83 ec 14             	sub    $0x14,%esp
c0004dbe:	e8 32 cc ff ff       	call   c00019f5 <__x86.get_pc_thunk.bx>
c0004dc3:	81 c3 3d d2 00 00    	add    $0xd23d,%ebx
c0004dc9:	e8 5f d1 ff ff       	call   c0001f2d <intr_disable>
c0004dce:	89 45 f4             	mov    %eax,-0xc(%ebp)
c0004dd1:	eb 66                	jmp    c0004e39 <sema_down+0x82>
c0004dd3:	e8 9b f5 ff ff       	call   c0004373 <running_thread>
c0004dd8:	8d 50 44             	lea    0x44(%eax),%edx
c0004ddb:	8b 45 08             	mov    0x8(%ebp),%eax
c0004dde:	83 c0 04             	add    $0x4,%eax
c0004de1:	83 ec 08             	sub    $0x8,%esp
c0004de4:	52                   	push   %edx
c0004de5:	50                   	push   %eax
c0004de6:	e8 4b dd ff ff       	call   c0002b36 <elem_find>
c0004deb:	83 c4 10             	add    $0x10,%esp
c0004dee:	85 c0                	test   %eax,%eax
c0004df0:	74 1f                	je     c0004e11 <sema_down+0x5a>
c0004df2:	8d 83 94 b6 ff ff    	lea    -0x496c(%ebx),%eax
c0004df8:	50                   	push   %eax
c0004df9:	8d 83 d8 b6 ff ff    	lea    -0x4928(%ebx),%eax
c0004dff:	50                   	push   %eax
c0004e00:	6a 15                	push   $0x15
c0004e02:	8d 83 c8 b6 ff ff    	lea    -0x4938(%ebx),%eax
c0004e08:	50                   	push   %eax
c0004e09:	e8 e3 da ff ff       	call   c00028f1 <panic_spin>
c0004e0e:	83 c4 10             	add    $0x10,%esp
c0004e11:	e8 5d f5 ff ff       	call   c0004373 <running_thread>
c0004e16:	8d 50 44             	lea    0x44(%eax),%edx
c0004e19:	8b 45 08             	mov    0x8(%ebp),%eax
c0004e1c:	83 c0 04             	add    $0x4,%eax
c0004e1f:	83 ec 08             	sub    $0x8,%esp
c0004e22:	52                   	push   %edx
c0004e23:	50                   	push   %eax
c0004e24:	e8 70 dc ff ff       	call   c0002a99 <list_append>
c0004e29:	83 c4 10             	add    $0x10,%esp
c0004e2c:	83 ec 0c             	sub    $0xc,%esp
c0004e2f:	6a 02                	push   $0x2
c0004e31:	e8 70 f9 ff ff       	call   c00047a6 <thread_block>
c0004e36:	83 c4 10             	add    $0x10,%esp
c0004e39:	8b 45 08             	mov    0x8(%ebp),%eax
c0004e3c:	0f b6 00             	movzbl (%eax),%eax
c0004e3f:	84 c0                	test   %al,%al
c0004e41:	74 90                	je     c0004dd3 <sema_down+0x1c>
c0004e43:	8b 45 08             	mov    0x8(%ebp),%eax
c0004e46:	0f b6 00             	movzbl (%eax),%eax
c0004e49:	8d 50 ff             	lea    -0x1(%eax),%edx
c0004e4c:	8b 45 08             	mov    0x8(%ebp),%eax
c0004e4f:	88 10                	mov    %dl,(%eax)
c0004e51:	83 ec 0c             	sub    $0xc,%esp
c0004e54:	ff 75 f4             	pushl  -0xc(%ebp)
c0004e57:	e8 04 d1 ff ff       	call   c0001f60 <intr_set_status>
c0004e5c:	83 c4 10             	add    $0x10,%esp
c0004e5f:	90                   	nop
c0004e60:	8b 5d fc             	mov    -0x4(%ebp),%ebx
c0004e63:	c9                   	leave  
c0004e64:	c3                   	ret    

c0004e65 <sema_up>:
c0004e65:	55                   	push   %ebp
c0004e66:	89 e5                	mov    %esp,%ebp
c0004e68:	53                   	push   %ebx
c0004e69:	83 ec 14             	sub    $0x14,%esp
c0004e6c:	e8 84 cb ff ff       	call   c00019f5 <__x86.get_pc_thunk.bx>
c0004e71:	81 c3 8f d1 00 00    	add    $0xd18f,%ebx
c0004e77:	e8 b1 d0 ff ff       	call   c0001f2d <intr_disable>
c0004e7c:	89 45 f4             	mov    %eax,-0xc(%ebp)
c0004e7f:	8b 45 08             	mov    0x8(%ebp),%eax
c0004e82:	83 c0 04             	add    $0x4,%eax
c0004e85:	83 ec 0c             	sub    $0xc,%esp
c0004e88:	50                   	push   %eax
c0004e89:	e8 cf de ff ff       	call   c0002d5d <list_empty>
c0004e8e:	83 c4 10             	add    $0x10,%esp
c0004e91:	85 c0                	test   %eax,%eax
c0004e93:	75 26                	jne    c0004ebb <sema_up+0x56>
c0004e95:	8b 45 08             	mov    0x8(%ebp),%eax
c0004e98:	83 c0 04             	add    $0x4,%eax
c0004e9b:	83 ec 0c             	sub    $0xc,%esp
c0004e9e:	50                   	push   %eax
c0004e9f:	e8 66 dc ff ff       	call   c0002b0a <list_pop>
c0004ea4:	83 c4 10             	add    $0x10,%esp
c0004ea7:	83 e8 44             	sub    $0x44,%eax
c0004eaa:	89 45 f0             	mov    %eax,-0x10(%ebp)
c0004ead:	83 ec 0c             	sub    $0xc,%esp
c0004eb0:	ff 75 f0             	pushl  -0x10(%ebp)
c0004eb3:	e8 32 f9 ff ff       	call   c00047ea <thread_unblock>
c0004eb8:	83 c4 10             	add    $0x10,%esp
c0004ebb:	8b 45 08             	mov    0x8(%ebp),%eax
c0004ebe:	0f b6 00             	movzbl (%eax),%eax
c0004ec1:	8d 50 01             	lea    0x1(%eax),%edx
c0004ec4:	8b 45 08             	mov    0x8(%ebp),%eax
c0004ec7:	88 10                	mov    %dl,(%eax)
c0004ec9:	83 ec 0c             	sub    $0xc,%esp
c0004ecc:	ff 75 f4             	pushl  -0xc(%ebp)
c0004ecf:	e8 8c d0 ff ff       	call   c0001f60 <intr_set_status>
c0004ed4:	83 c4 10             	add    $0x10,%esp
c0004ed7:	90                   	nop
c0004ed8:	8b 5d fc             	mov    -0x4(%ebp),%ebx
c0004edb:	c9                   	leave  
c0004edc:	c3                   	ret    

c0004edd <lock_acquire>:
c0004edd:	55                   	push   %ebp
c0004ede:	89 e5                	mov    %esp,%ebp
c0004ee0:	56                   	push   %esi
c0004ee1:	53                   	push   %ebx
c0004ee2:	e8 0e cb ff ff       	call   c00019f5 <__x86.get_pc_thunk.bx>
c0004ee7:	81 c3 19 d1 00 00    	add    $0xd119,%ebx
c0004eed:	8b 45 08             	mov    0x8(%ebp),%eax
c0004ef0:	8b 30                	mov    (%eax),%esi
c0004ef2:	e8 7c f4 ff ff       	call   c0004373 <running_thread>
c0004ef7:	39 c6                	cmp    %eax,%esi
c0004ef9:	74 2a                	je     c0004f25 <lock_acquire+0x48>
c0004efb:	8b 45 08             	mov    0x8(%ebp),%eax
c0004efe:	83 c0 04             	add    $0x4,%eax
c0004f01:	83 ec 0c             	sub    $0xc,%esp
c0004f04:	50                   	push   %eax
c0004f05:	e8 ad fe ff ff       	call   c0004db7 <sema_down>
c0004f0a:	83 c4 10             	add    $0x10,%esp
c0004f0d:	e8 61 f4 ff ff       	call   c0004373 <running_thread>
c0004f12:	89 c2                	mov    %eax,%edx
c0004f14:	8b 45 08             	mov    0x8(%ebp),%eax
c0004f17:	89 10                	mov    %edx,(%eax)
c0004f19:	8b 45 08             	mov    0x8(%ebp),%eax
c0004f1c:	c7 40 18 01 00 00 00 	movl   $0x1,0x18(%eax)
c0004f23:	eb 0f                	jmp    c0004f34 <lock_acquire+0x57>
c0004f25:	8b 45 08             	mov    0x8(%ebp),%eax
c0004f28:	8b 40 18             	mov    0x18(%eax),%eax
c0004f2b:	8d 50 01             	lea    0x1(%eax),%edx
c0004f2e:	8b 45 08             	mov    0x8(%ebp),%eax
c0004f31:	89 50 18             	mov    %edx,0x18(%eax)
c0004f34:	90                   	nop
c0004f35:	8d 65 f8             	lea    -0x8(%ebp),%esp
c0004f38:	5b                   	pop    %ebx
c0004f39:	5e                   	pop    %esi
c0004f3a:	5d                   	pop    %ebp
c0004f3b:	c3                   	ret    

c0004f3c <lock_release>:
c0004f3c:	55                   	push   %ebp
c0004f3d:	89 e5                	mov    %esp,%ebp
c0004f3f:	83 ec 08             	sub    $0x8,%esp
c0004f42:	e8 91 d0 ff ff       	call   c0001fd8 <__x86.get_pc_thunk.ax>
c0004f47:	05 b9 d0 00 00       	add    $0xd0b9,%eax
c0004f4c:	8b 45 08             	mov    0x8(%ebp),%eax
c0004f4f:	8b 40 18             	mov    0x18(%eax),%eax
c0004f52:	83 f8 01             	cmp    $0x1,%eax
c0004f55:	76 11                	jbe    c0004f68 <lock_release+0x2c>
c0004f57:	8b 45 08             	mov    0x8(%ebp),%eax
c0004f5a:	8b 40 18             	mov    0x18(%eax),%eax
c0004f5d:	8d 50 ff             	lea    -0x1(%eax),%edx
c0004f60:	8b 45 08             	mov    0x8(%ebp),%eax
c0004f63:	89 50 18             	mov    %edx,0x18(%eax)
c0004f66:	eb 25                	jmp    c0004f8d <lock_release+0x51>
c0004f68:	8b 45 08             	mov    0x8(%ebp),%eax
c0004f6b:	c7 00 00 00 00 00    	movl   $0x0,(%eax)
c0004f71:	8b 45 08             	mov    0x8(%ebp),%eax
c0004f74:	c7 40 18 00 00 00 00 	movl   $0x0,0x18(%eax)
c0004f7b:	8b 45 08             	mov    0x8(%ebp),%eax
c0004f7e:	83 c0 04             	add    $0x4,%eax
c0004f81:	83 ec 0c             	sub    $0xc,%esp
c0004f84:	50                   	push   %eax
c0004f85:	e8 db fe ff ff       	call   c0004e65 <sema_up>
c0004f8a:	83 c4 10             	add    $0x10,%esp
c0004f8d:	c9                   	leave  
c0004f8e:	c3                   	ret    

c0004f8f <console_init>:
c0004f8f:	55                   	push   %ebp
c0004f90:	89 e5                	mov    %esp,%ebp
c0004f92:	53                   	push   %ebx
c0004f93:	83 ec 04             	sub    $0x4,%esp
c0004f96:	e8 3d d0 ff ff       	call   c0001fd8 <__x86.get_pc_thunk.ax>
c0004f9b:	05 65 d0 00 00       	add    $0xd065,%eax
c0004fa0:	83 ec 0c             	sub    $0xc,%esp
c0004fa3:	8d 90 90 05 00 00    	lea    0x590(%eax),%edx
c0004fa9:	52                   	push   %edx
c0004faa:	89 c3                	mov    %eax,%ebx
c0004fac:	e8 cc fd ff ff       	call   c0004d7d <lock_init>
c0004fb1:	83 c4 10             	add    $0x10,%esp
c0004fb4:	90                   	nop
c0004fb5:	8b 5d fc             	mov    -0x4(%ebp),%ebx
c0004fb8:	c9                   	leave  
c0004fb9:	c3                   	ret    

c0004fba <console_acquire>:
c0004fba:	55                   	push   %ebp
c0004fbb:	89 e5                	mov    %esp,%ebp
c0004fbd:	53                   	push   %ebx
c0004fbe:	83 ec 04             	sub    $0x4,%esp
c0004fc1:	e8 12 d0 ff ff       	call   c0001fd8 <__x86.get_pc_thunk.ax>
c0004fc6:	05 3a d0 00 00       	add    $0xd03a,%eax
c0004fcb:	83 ec 0c             	sub    $0xc,%esp
c0004fce:	8d 90 90 05 00 00    	lea    0x590(%eax),%edx
c0004fd4:	52                   	push   %edx
c0004fd5:	89 c3                	mov    %eax,%ebx
c0004fd7:	e8 01 ff ff ff       	call   c0004edd <lock_acquire>
c0004fdc:	83 c4 10             	add    $0x10,%esp
c0004fdf:	90                   	nop
c0004fe0:	8b 5d fc             	mov    -0x4(%ebp),%ebx
c0004fe3:	c9                   	leave  
c0004fe4:	c3                   	ret    

c0004fe5 <console_release>:
c0004fe5:	55                   	push   %ebp
c0004fe6:	89 e5                	mov    %esp,%ebp
c0004fe8:	53                   	push   %ebx
c0004fe9:	83 ec 04             	sub    $0x4,%esp
c0004fec:	e8 e7 cf ff ff       	call   c0001fd8 <__x86.get_pc_thunk.ax>
c0004ff1:	05 0f d0 00 00       	add    $0xd00f,%eax
c0004ff6:	83 ec 0c             	sub    $0xc,%esp
c0004ff9:	8d 90 90 05 00 00    	lea    0x590(%eax),%edx
c0004fff:	52                   	push   %edx
c0005000:	89 c3                	mov    %eax,%ebx
c0005002:	e8 35 ff ff ff       	call   c0004f3c <lock_release>
c0005007:	83 c4 10             	add    $0x10,%esp
c000500a:	90                   	nop
c000500b:	8b 5d fc             	mov    -0x4(%ebp),%ebx
c000500e:	c9                   	leave  
c000500f:	c3                   	ret    

c0005010 <console_put_str>:
c0005010:	55                   	push   %ebp
c0005011:	89 e5                	mov    %esp,%ebp
c0005013:	53                   	push   %ebx
c0005014:	83 ec 04             	sub    $0x4,%esp
c0005017:	e8 d9 c9 ff ff       	call   c00019f5 <__x86.get_pc_thunk.bx>
c000501c:	81 c3 e4 cf 00 00    	add    $0xcfe4,%ebx
c0005022:	e8 93 ff ff ff       	call   c0004fba <console_acquire>
c0005027:	83 ec 0c             	sub    $0xc,%esp
c000502a:	ff 75 08             	pushl  0x8(%ebp)
c000502d:	e8 0e d7 ff ff       	call   c0002740 <put_str>
c0005032:	83 c4 10             	add    $0x10,%esp
c0005035:	e8 ab ff ff ff       	call   c0004fe5 <console_release>
c000503a:	90                   	nop
c000503b:	8b 5d fc             	mov    -0x4(%ebp),%ebx
c000503e:	c9                   	leave  
c000503f:	c3                   	ret    

c0005040 <console_put_char>:
c0005040:	55                   	push   %ebp
c0005041:	89 e5                	mov    %esp,%ebp
c0005043:	53                   	push   %ebx
c0005044:	83 ec 14             	sub    $0x14,%esp
c0005047:	e8 a9 c9 ff ff       	call   c00019f5 <__x86.get_pc_thunk.bx>
c000504c:	81 c3 b4 cf 00 00    	add    $0xcfb4,%ebx
c0005052:	8b 45 08             	mov    0x8(%ebp),%eax
c0005055:	88 45 f4             	mov    %al,-0xc(%ebp)
c0005058:	e8 5d ff ff ff       	call   c0004fba <console_acquire>
c000505d:	0f b6 45 f4          	movzbl -0xc(%ebp),%eax
c0005061:	83 ec 0c             	sub    $0xc,%esp
c0005064:	50                   	push   %eax
c0005065:	e8 f4 d6 ff ff       	call   c000275e <put_char>
c000506a:	83 c4 10             	add    $0x10,%esp
c000506d:	e8 73 ff ff ff       	call   c0004fe5 <console_release>
c0005072:	90                   	nop
c0005073:	8b 5d fc             	mov    -0x4(%ebp),%ebx
c0005076:	c9                   	leave  
c0005077:	c3                   	ret    

c0005078 <console_put_int>:
c0005078:	55                   	push   %ebp
c0005079:	89 e5                	mov    %esp,%ebp
c000507b:	53                   	push   %ebx
c000507c:	83 ec 04             	sub    $0x4,%esp
c000507f:	e8 71 c9 ff ff       	call   c00019f5 <__x86.get_pc_thunk.bx>
c0005084:	81 c3 7c cf 00 00    	add    $0xcf7c,%ebx
c000508a:	e8 2b ff ff ff       	call   c0004fba <console_acquire>
c000508f:	83 ec 0c             	sub    $0xc,%esp
c0005092:	ff 75 08             	pushl  0x8(%ebp)
c0005095:	e8 d0 d7 ff ff       	call   c000286a <put_int>
c000509a:	83 c4 10             	add    $0x10,%esp
c000509d:	e8 43 ff ff ff       	call   c0004fe5 <console_release>
c00050a2:	90                   	nop
c00050a3:	8b 5d fc             	mov    -0x4(%ebp),%ebx
c00050a6:	c9                   	leave  
c00050a7:	c3                   	ret    

c00050a8 <ioqueue_init>:
c00050a8:	55                   	push   %ebp
c00050a9:	89 e5                	mov    %esp,%ebp
c00050ab:	53                   	push   %ebx
c00050ac:	83 ec 04             	sub    $0x4,%esp
c00050af:	e8 24 cf ff ff       	call   c0001fd8 <__x86.get_pc_thunk.ax>
c00050b4:	05 4c cf 00 00       	add    $0xcf4c,%eax
c00050b9:	8b 55 08             	mov    0x8(%ebp),%edx
c00050bc:	83 ec 0c             	sub    $0xc,%esp
c00050bf:	52                   	push   %edx
c00050c0:	89 c3                	mov    %eax,%ebx
c00050c2:	e8 b6 fc ff ff       	call   c0004d7d <lock_init>
c00050c7:	83 c4 10             	add    $0x10,%esp
c00050ca:	8b 45 08             	mov    0x8(%ebp),%eax
c00050cd:	c7 40 20 00 00 00 00 	movl   $0x0,0x20(%eax)
c00050d4:	8b 45 08             	mov    0x8(%ebp),%eax
c00050d7:	8b 50 20             	mov    0x20(%eax),%edx
c00050da:	8b 45 08             	mov    0x8(%ebp),%eax
c00050dd:	89 50 1c             	mov    %edx,0x1c(%eax)
c00050e0:	8b 45 08             	mov    0x8(%ebp),%eax
c00050e3:	c7 40 68 00 00 00 00 	movl   $0x0,0x68(%eax)
c00050ea:	8b 45 08             	mov    0x8(%ebp),%eax
c00050ed:	8b 50 68             	mov    0x68(%eax),%edx
c00050f0:	8b 45 08             	mov    0x8(%ebp),%eax
c00050f3:	89 50 64             	mov    %edx,0x64(%eax)
c00050f6:	90                   	nop
c00050f7:	8b 5d fc             	mov    -0x4(%ebp),%ebx
c00050fa:	c9                   	leave  
c00050fb:	c3                   	ret    

c00050fc <next_pos>:
c00050fc:	55                   	push   %ebp
c00050fd:	89 e5                	mov    %esp,%ebp
c00050ff:	e8 d4 ce ff ff       	call   c0001fd8 <__x86.get_pc_thunk.ax>
c0005104:	05 fc ce 00 00       	add    $0xcefc,%eax
c0005109:	8b 45 08             	mov    0x8(%ebp),%eax
c000510c:	8d 50 01             	lea    0x1(%eax),%edx
c000510f:	89 d0                	mov    %edx,%eax
c0005111:	c1 f8 1f             	sar    $0x1f,%eax
c0005114:	c1 e8 1a             	shr    $0x1a,%eax
c0005117:	01 c2                	add    %eax,%edx
c0005119:	83 e2 3f             	and    $0x3f,%edx
c000511c:	29 c2                	sub    %eax,%edx
c000511e:	89 d0                	mov    %edx,%eax
c0005120:	5d                   	pop    %ebp
c0005121:	c3                   	ret    

c0005122 <ioq_full>:
c0005122:	55                   	push   %ebp
c0005123:	89 e5                	mov    %esp,%ebp
c0005125:	e8 ae ce ff ff       	call   c0001fd8 <__x86.get_pc_thunk.ax>
c000512a:	05 d6 ce 00 00       	add    $0xced6,%eax
c000512f:	8b 45 08             	mov    0x8(%ebp),%eax
c0005132:	8b 40 64             	mov    0x64(%eax),%eax
c0005135:	50                   	push   %eax
c0005136:	e8 c1 ff ff ff       	call   c00050fc <next_pos>
c000513b:	83 c4 04             	add    $0x4,%esp
c000513e:	89 c2                	mov    %eax,%edx
c0005140:	8b 45 08             	mov    0x8(%ebp),%eax
c0005143:	8b 40 68             	mov    0x68(%eax),%eax
c0005146:	39 c2                	cmp    %eax,%edx
c0005148:	0f 94 c0             	sete   %al
c000514b:	0f b6 c0             	movzbl %al,%eax
c000514e:	c9                   	leave  
c000514f:	c3                   	ret    

c0005150 <ioq_empty>:
c0005150:	55                   	push   %ebp
c0005151:	89 e5                	mov    %esp,%ebp
c0005153:	e8 80 ce ff ff       	call   c0001fd8 <__x86.get_pc_thunk.ax>
c0005158:	05 a8 ce 00 00       	add    $0xcea8,%eax
c000515d:	8b 45 08             	mov    0x8(%ebp),%eax
c0005160:	8b 50 64             	mov    0x64(%eax),%edx
c0005163:	8b 45 08             	mov    0x8(%ebp),%eax
c0005166:	8b 40 68             	mov    0x68(%eax),%eax
c0005169:	39 c2                	cmp    %eax,%edx
c000516b:	0f 94 c0             	sete   %al
c000516e:	0f b6 c0             	movzbl %al,%eax
c0005171:	5d                   	pop    %ebp
c0005172:	c3                   	ret    

c0005173 <ioq_wait>:
c0005173:	55                   	push   %ebp
c0005174:	89 e5                	mov    %esp,%ebp
c0005176:	53                   	push   %ebx
c0005177:	83 ec 04             	sub    $0x4,%esp
c000517a:	e8 76 c8 ff ff       	call   c00019f5 <__x86.get_pc_thunk.bx>
c000517f:	81 c3 81 ce 00 00    	add    $0xce81,%ebx
c0005185:	e8 e9 f1 ff ff       	call   c0004373 <running_thread>
c000518a:	89 c2                	mov    %eax,%edx
c000518c:	8b 45 08             	mov    0x8(%ebp),%eax
c000518f:	89 10                	mov    %edx,(%eax)
c0005191:	83 ec 0c             	sub    $0xc,%esp
c0005194:	6a 02                	push   $0x2
c0005196:	e8 0b f6 ff ff       	call   c00047a6 <thread_block>
c000519b:	83 c4 10             	add    $0x10,%esp
c000519e:	90                   	nop
c000519f:	8b 5d fc             	mov    -0x4(%ebp),%ebx
c00051a2:	c9                   	leave  
c00051a3:	c3                   	ret    

c00051a4 <wakeup>:
c00051a4:	55                   	push   %ebp
c00051a5:	89 e5                	mov    %esp,%ebp
c00051a7:	53                   	push   %ebx
c00051a8:	83 ec 04             	sub    $0x4,%esp
c00051ab:	e8 28 ce ff ff       	call   c0001fd8 <__x86.get_pc_thunk.ax>
c00051b0:	05 50 ce 00 00       	add    $0xce50,%eax
c00051b5:	8b 55 08             	mov    0x8(%ebp),%edx
c00051b8:	8b 12                	mov    (%edx),%edx
c00051ba:	83 ec 0c             	sub    $0xc,%esp
c00051bd:	52                   	push   %edx
c00051be:	89 c3                	mov    %eax,%ebx
c00051c0:	e8 25 f6 ff ff       	call   c00047ea <thread_unblock>
c00051c5:	83 c4 10             	add    $0x10,%esp
c00051c8:	8b 45 08             	mov    0x8(%ebp),%eax
c00051cb:	c7 00 00 00 00 00    	movl   $0x0,(%eax)
c00051d1:	90                   	nop
c00051d2:	8b 5d fc             	mov    -0x4(%ebp),%ebx
c00051d5:	c9                   	leave  
c00051d6:	c3                   	ret    

c00051d7 <ioq_getchar>:
c00051d7:	55                   	push   %ebp
c00051d8:	89 e5                	mov    %esp,%ebp
c00051da:	53                   	push   %ebx
c00051db:	83 ec 14             	sub    $0x14,%esp
c00051de:	e8 12 c8 ff ff       	call   c00019f5 <__x86.get_pc_thunk.bx>
c00051e3:	81 c3 1d ce 00 00    	add    $0xce1d,%ebx
c00051e9:	eb 30                	jmp    c000521b <ioq_getchar+0x44>
c00051eb:	8b 45 08             	mov    0x8(%ebp),%eax
c00051ee:	83 ec 0c             	sub    $0xc,%esp
c00051f1:	50                   	push   %eax
c00051f2:	e8 e6 fc ff ff       	call   c0004edd <lock_acquire>
c00051f7:	83 c4 10             	add    $0x10,%esp
c00051fa:	8b 45 08             	mov    0x8(%ebp),%eax
c00051fd:	83 c0 20             	add    $0x20,%eax
c0005200:	83 ec 0c             	sub    $0xc,%esp
c0005203:	50                   	push   %eax
c0005204:	e8 6a ff ff ff       	call   c0005173 <ioq_wait>
c0005209:	83 c4 10             	add    $0x10,%esp
c000520c:	8b 45 08             	mov    0x8(%ebp),%eax
c000520f:	83 ec 0c             	sub    $0xc,%esp
c0005212:	50                   	push   %eax
c0005213:	e8 24 fd ff ff       	call   c0004f3c <lock_release>
c0005218:	83 c4 10             	add    $0x10,%esp
c000521b:	83 ec 0c             	sub    $0xc,%esp
c000521e:	ff 75 08             	pushl  0x8(%ebp)
c0005221:	e8 2a ff ff ff       	call   c0005150 <ioq_empty>
c0005226:	83 c4 10             	add    $0x10,%esp
c0005229:	85 c0                	test   %eax,%eax
c000522b:	75 be                	jne    c00051eb <ioq_getchar+0x14>
c000522d:	8b 45 08             	mov    0x8(%ebp),%eax
c0005230:	8b 40 68             	mov    0x68(%eax),%eax
c0005233:	8b 55 08             	mov    0x8(%ebp),%edx
c0005236:	0f b6 44 02 24       	movzbl 0x24(%edx,%eax,1),%eax
c000523b:	88 45 f7             	mov    %al,-0x9(%ebp)
c000523e:	8b 45 08             	mov    0x8(%ebp),%eax
c0005241:	8b 40 68             	mov    0x68(%eax),%eax
c0005244:	83 ec 0c             	sub    $0xc,%esp
c0005247:	50                   	push   %eax
c0005248:	e8 af fe ff ff       	call   c00050fc <next_pos>
c000524d:	83 c4 10             	add    $0x10,%esp
c0005250:	89 c2                	mov    %eax,%edx
c0005252:	8b 45 08             	mov    0x8(%ebp),%eax
c0005255:	89 50 68             	mov    %edx,0x68(%eax)
c0005258:	8b 45 08             	mov    0x8(%ebp),%eax
c000525b:	8b 40 1c             	mov    0x1c(%eax),%eax
c000525e:	85 c0                	test   %eax,%eax
c0005260:	74 12                	je     c0005274 <ioq_getchar+0x9d>
c0005262:	8b 45 08             	mov    0x8(%ebp),%eax
c0005265:	83 c0 1c             	add    $0x1c,%eax
c0005268:	83 ec 0c             	sub    $0xc,%esp
c000526b:	50                   	push   %eax
c000526c:	e8 33 ff ff ff       	call   c00051a4 <wakeup>
c0005271:	83 c4 10             	add    $0x10,%esp
c0005274:	0f b6 45 f7          	movzbl -0x9(%ebp),%eax
c0005278:	8b 5d fc             	mov    -0x4(%ebp),%ebx
c000527b:	c9                   	leave  
c000527c:	c3                   	ret    

c000527d <ioq_putchar>:
c000527d:	55                   	push   %ebp
c000527e:	89 e5                	mov    %esp,%ebp
c0005280:	53                   	push   %ebx
c0005281:	83 ec 14             	sub    $0x14,%esp
c0005284:	e8 6c c7 ff ff       	call   c00019f5 <__x86.get_pc_thunk.bx>
c0005289:	81 c3 77 cd 00 00    	add    $0xcd77,%ebx
c000528f:	8b 45 0c             	mov    0xc(%ebp),%eax
c0005292:	88 45 f4             	mov    %al,-0xc(%ebp)
c0005295:	eb 30                	jmp    c00052c7 <ioq_putchar+0x4a>
c0005297:	8b 45 08             	mov    0x8(%ebp),%eax
c000529a:	83 ec 0c             	sub    $0xc,%esp
c000529d:	50                   	push   %eax
c000529e:	e8 3a fc ff ff       	call   c0004edd <lock_acquire>
c00052a3:	83 c4 10             	add    $0x10,%esp
c00052a6:	8b 45 08             	mov    0x8(%ebp),%eax
c00052a9:	83 c0 1c             	add    $0x1c,%eax
c00052ac:	83 ec 0c             	sub    $0xc,%esp
c00052af:	50                   	push   %eax
c00052b0:	e8 be fe ff ff       	call   c0005173 <ioq_wait>
c00052b5:	83 c4 10             	add    $0x10,%esp
c00052b8:	8b 45 08             	mov    0x8(%ebp),%eax
c00052bb:	83 ec 0c             	sub    $0xc,%esp
c00052be:	50                   	push   %eax
c00052bf:	e8 78 fc ff ff       	call   c0004f3c <lock_release>
c00052c4:	83 c4 10             	add    $0x10,%esp
c00052c7:	83 ec 0c             	sub    $0xc,%esp
c00052ca:	ff 75 08             	pushl  0x8(%ebp)
c00052cd:	e8 50 fe ff ff       	call   c0005122 <ioq_full>
c00052d2:	83 c4 10             	add    $0x10,%esp
c00052d5:	85 c0                	test   %eax,%eax
c00052d7:	75 be                	jne    c0005297 <ioq_putchar+0x1a>
c00052d9:	8b 45 08             	mov    0x8(%ebp),%eax
c00052dc:	8b 40 64             	mov    0x64(%eax),%eax
c00052df:	8b 55 08             	mov    0x8(%ebp),%edx
c00052e2:	0f b6 4d f4          	movzbl -0xc(%ebp),%ecx
c00052e6:	88 4c 02 24          	mov    %cl,0x24(%edx,%eax,1)
c00052ea:	8b 45 08             	mov    0x8(%ebp),%eax
c00052ed:	8b 40 64             	mov    0x64(%eax),%eax
c00052f0:	83 ec 0c             	sub    $0xc,%esp
c00052f3:	50                   	push   %eax
c00052f4:	e8 03 fe ff ff       	call   c00050fc <next_pos>
c00052f9:	83 c4 10             	add    $0x10,%esp
c00052fc:	89 c2                	mov    %eax,%edx
c00052fe:	8b 45 08             	mov    0x8(%ebp),%eax
c0005301:	89 50 64             	mov    %edx,0x64(%eax)
c0005304:	8b 45 08             	mov    0x8(%ebp),%eax
c0005307:	8b 40 20             	mov    0x20(%eax),%eax
c000530a:	85 c0                	test   %eax,%eax
c000530c:	74 12                	je     c0005320 <ioq_putchar+0xa3>
c000530e:	8b 45 08             	mov    0x8(%ebp),%eax
c0005311:	83 c0 20             	add    $0x20,%eax
c0005314:	83 ec 0c             	sub    $0xc,%esp
c0005317:	50                   	push   %eax
c0005318:	e8 87 fe ff ff       	call   c00051a4 <wakeup>
c000531d:	83 c4 10             	add    $0x10,%esp
c0005320:	90                   	nop
c0005321:	8b 5d fc             	mov    -0x4(%ebp),%ebx
c0005324:	c9                   	leave  
c0005325:	c3                   	ret    

c0005326 <inb>:
c0005326:	55                   	push   %ebp
c0005327:	89 e5                	mov    %esp,%ebp
c0005329:	83 ec 14             	sub    $0x14,%esp
c000532c:	e8 a7 cc ff ff       	call   c0001fd8 <__x86.get_pc_thunk.ax>
c0005331:	05 cf cc 00 00       	add    $0xcccf,%eax
c0005336:	8b 45 08             	mov    0x8(%ebp),%eax
c0005339:	66 89 45 ec          	mov    %ax,-0x14(%ebp)
c000533d:	0f b7 45 ec          	movzwl -0x14(%ebp),%eax
c0005341:	89 c2                	mov    %eax,%edx
c0005343:	ec                   	in     (%dx),%al
c0005344:	88 45 ff             	mov    %al,-0x1(%ebp)
c0005347:	0f b6 45 ff          	movzbl -0x1(%ebp),%eax
c000534b:	c9                   	leave  
c000534c:	c3                   	ret    

c000534d <intr_keyboard_handler>:
c000534d:	55                   	push   %ebp
c000534e:	89 e5                	mov    %esp,%ebp
c0005350:	53                   	push   %ebx
c0005351:	83 ec 24             	sub    $0x24,%esp
c0005354:	e8 9c c6 ff ff       	call   c00019f5 <__x86.get_pc_thunk.bx>
c0005359:	81 c3 a7 cc 00 00    	add    $0xcca7,%ebx
c000535f:	8b 83 ac 05 00 00    	mov    0x5ac(%ebx),%eax
c0005365:	89 45 e8             	mov    %eax,-0x18(%ebp)
c0005368:	8b 83 b0 05 00 00    	mov    0x5b0(%ebx),%eax
c000536e:	89 45 e4             	mov    %eax,-0x1c(%ebp)
c0005371:	8b 83 b8 05 00 00    	mov    0x5b8(%ebx),%eax
c0005377:	89 45 e0             	mov    %eax,-0x20(%ebp)
c000537a:	6a 60                	push   $0x60
c000537c:	e8 a5 ff ff ff       	call   c0005326 <inb>
c0005381:	83 c4 04             	add    $0x4,%esp
c0005384:	0f b6 c0             	movzbl %al,%eax
c0005387:	66 89 45 f6          	mov    %ax,-0xa(%ebp)
c000538b:	66 81 7d f6 e0 00    	cmpw   $0xe0,-0xa(%ebp)
c0005391:	75 0f                	jne    c00053a2 <intr_keyboard_handler+0x55>
c0005393:	c7 83 bc 05 00 00 01 	movl   $0x1,0x5bc(%ebx)
c000539a:	00 00 00 
c000539d:	e9 3d 02 00 00       	jmp    c00055df <intr_keyboard_handler+0x292>
c00053a2:	8b 83 bc 05 00 00    	mov    0x5bc(%ebx),%eax
c00053a8:	85 c0                	test   %eax,%eax
c00053aa:	74 10                	je     c00053bc <intr_keyboard_handler+0x6f>
c00053ac:	66 81 4d f6 00 e0    	orw    $0xe000,-0xa(%ebp)
c00053b2:	c7 83 bc 05 00 00 00 	movl   $0x0,0x5bc(%ebx)
c00053b9:	00 00 00 
c00053bc:	0f b7 45 f6          	movzwl -0xa(%ebp),%eax
c00053c0:	25 80 00 00 00       	and    $0x80,%eax
c00053c5:	85 c0                	test   %eax,%eax
c00053c7:	0f 95 c0             	setne  %al
c00053ca:	0f b6 c0             	movzbl %al,%eax
c00053cd:	89 45 dc             	mov    %eax,-0x24(%ebp)
c00053d0:	83 7d dc 00          	cmpl   $0x0,-0x24(%ebp)
c00053d4:	74 6a                	je     c0005440 <intr_keyboard_handler+0xf3>
c00053d6:	66 81 65 f6 7f ff    	andw   $0xff7f,-0xa(%ebp)
c00053dc:	0f b7 45 f6          	movzwl -0xa(%ebp),%eax
c00053e0:	66 89 45 d8          	mov    %ax,-0x28(%ebp)
c00053e4:	66 83 7d d8 1d       	cmpw   $0x1d,-0x28(%ebp)
c00053e9:	74 08                	je     c00053f3 <intr_keyboard_handler+0xa6>
c00053eb:	66 81 7d d8 1d e0    	cmpw   $0xe01d,-0x28(%ebp)
c00053f1:	75 0c                	jne    c00053ff <intr_keyboard_handler+0xb2>
c00053f3:	c7 83 ac 05 00 00 00 	movl   $0x0,0x5ac(%ebx)
c00053fa:	00 00 00 
c00053fd:	eb 3c                	jmp    c000543b <intr_keyboard_handler+0xee>
c00053ff:	66 83 7d d8 2a       	cmpw   $0x2a,-0x28(%ebp)
c0005404:	74 07                	je     c000540d <intr_keyboard_handler+0xc0>
c0005406:	66 83 7d d8 36       	cmpw   $0x36,-0x28(%ebp)
c000540b:	75 0c                	jne    c0005419 <intr_keyboard_handler+0xcc>
c000540d:	c7 83 b0 05 00 00 00 	movl   $0x0,0x5b0(%ebx)
c0005414:	00 00 00 
c0005417:	eb 22                	jmp    c000543b <intr_keyboard_handler+0xee>
c0005419:	66 83 7d d8 38       	cmpw   $0x38,-0x28(%ebp)
c000541e:	74 0c                	je     c000542c <intr_keyboard_handler+0xdf>
c0005420:	66 81 7d d8 08 e3    	cmpw   $0xe308,-0x28(%ebp)
c0005426:	0f 85 ac 01 00 00    	jne    c00055d8 <intr_keyboard_handler+0x28b>
c000542c:	c7 83 b4 05 00 00 00 	movl   $0x0,0x5b4(%ebx)
c0005433:	00 00 00 
c0005436:	e9 9d 01 00 00       	jmp    c00055d8 <intr_keyboard_handler+0x28b>
c000543b:	e9 98 01 00 00       	jmp    c00055d8 <intr_keyboard_handler+0x28b>
c0005440:	66 83 7d f6 00       	cmpw   $0x0,-0xa(%ebp)
c0005445:	74 07                	je     c000544e <intr_keyboard_handler+0x101>
c0005447:	66 83 7d f6 3a       	cmpw   $0x3a,-0xa(%ebp)
c000544c:	76 14                	jbe    c0005462 <intr_keyboard_handler+0x115>
c000544e:	66 81 7d f6 08 e3    	cmpw   $0xe308,-0xa(%ebp)
c0005454:	74 0c                	je     c0005462 <intr_keyboard_handler+0x115>
c0005456:	66 81 7d f6 1d e0    	cmpw   $0xe01d,-0xa(%ebp)
c000545c:	0f 85 62 01 00 00    	jne    c00055c4 <intr_keyboard_handler+0x277>
c0005462:	c7 45 f0 00 00 00 00 	movl   $0x0,-0x10(%ebp)
c0005469:	66 83 7d f6 0d       	cmpw   $0xd,-0xa(%ebp)
c000546e:	76 3f                	jbe    c00054af <intr_keyboard_handler+0x162>
c0005470:	66 83 7d f6 29       	cmpw   $0x29,-0xa(%ebp)
c0005475:	74 38                	je     c00054af <intr_keyboard_handler+0x162>
c0005477:	66 83 7d f6 1a       	cmpw   $0x1a,-0xa(%ebp)
c000547c:	74 31                	je     c00054af <intr_keyboard_handler+0x162>
c000547e:	66 83 7d f6 1b       	cmpw   $0x1b,-0xa(%ebp)
c0005483:	74 2a                	je     c00054af <intr_keyboard_handler+0x162>
c0005485:	66 83 7d f6 2b       	cmpw   $0x2b,-0xa(%ebp)
c000548a:	74 23                	je     c00054af <intr_keyboard_handler+0x162>
c000548c:	66 83 7d f6 27       	cmpw   $0x27,-0xa(%ebp)
c0005491:	74 1c                	je     c00054af <intr_keyboard_handler+0x162>
c0005493:	66 83 7d f6 28       	cmpw   $0x28,-0xa(%ebp)
c0005498:	74 15                	je     c00054af <intr_keyboard_handler+0x162>
c000549a:	66 83 7d f6 33       	cmpw   $0x33,-0xa(%ebp)
c000549f:	74 0e                	je     c00054af <intr_keyboard_handler+0x162>
c00054a1:	66 83 7d f6 34       	cmpw   $0x34,-0xa(%ebp)
c00054a6:	74 07                	je     c00054af <intr_keyboard_handler+0x162>
c00054a8:	66 83 7d f6 35       	cmpw   $0x35,-0xa(%ebp)
c00054ad:	75 0f                	jne    c00054be <intr_keyboard_handler+0x171>
c00054af:	83 7d e4 00          	cmpl   $0x0,-0x1c(%ebp)
c00054b3:	74 3a                	je     c00054ef <intr_keyboard_handler+0x1a2>
c00054b5:	c7 45 f0 01 00 00 00 	movl   $0x1,-0x10(%ebp)
c00054bc:	eb 31                	jmp    c00054ef <intr_keyboard_handler+0x1a2>
c00054be:	83 7d e4 00          	cmpl   $0x0,-0x1c(%ebp)
c00054c2:	74 0f                	je     c00054d3 <intr_keyboard_handler+0x186>
c00054c4:	83 7d e0 00          	cmpl   $0x0,-0x20(%ebp)
c00054c8:	74 09                	je     c00054d3 <intr_keyboard_handler+0x186>
c00054ca:	c7 45 f0 00 00 00 00 	movl   $0x0,-0x10(%ebp)
c00054d1:	eb 1c                	jmp    c00054ef <intr_keyboard_handler+0x1a2>
c00054d3:	83 7d e4 00          	cmpl   $0x0,-0x1c(%ebp)
c00054d7:	75 06                	jne    c00054df <intr_keyboard_handler+0x192>
c00054d9:	83 7d e0 00          	cmpl   $0x0,-0x20(%ebp)
c00054dd:	74 09                	je     c00054e8 <intr_keyboard_handler+0x19b>
c00054df:	c7 45 f0 01 00 00 00 	movl   $0x1,-0x10(%ebp)
c00054e6:	eb 07                	jmp    c00054ef <intr_keyboard_handler+0x1a2>
c00054e8:	c7 45 f0 00 00 00 00 	movl   $0x0,-0x10(%ebp)
c00054ef:	66 81 65 f6 ff 00    	andw   $0xff,-0xa(%ebp)
c00054f5:	0f b7 45 f6          	movzwl -0xa(%ebp),%eax
c00054f9:	88 45 db             	mov    %al,-0x25(%ebp)
c00054fc:	0f b6 55 db          	movzbl -0x25(%ebp),%edx
c0005500:	8d 83 00 01 00 00    	lea    0x100(%ebx),%eax
c0005506:	01 d2                	add    %edx,%edx
c0005508:	01 c2                	add    %eax,%edx
c000550a:	8b 45 f0             	mov    -0x10(%ebp),%eax
c000550d:	01 d0                	add    %edx,%eax
c000550f:	0f b6 00             	movzbl (%eax),%eax
c0005512:	88 45 ef             	mov    %al,-0x11(%ebp)
c0005515:	80 7d ef 00          	cmpb   $0x0,-0x11(%ebp)
c0005519:	74 55                	je     c0005570 <intr_keyboard_handler+0x223>
c000551b:	83 7d e8 00          	cmpl   $0x0,-0x18(%ebp)
c000551f:	74 06                	je     c0005527 <intr_keyboard_handler+0x1da>
c0005521:	80 7d ef 6c          	cmpb   $0x6c,-0x11(%ebp)
c0005525:	74 0c                	je     c0005533 <intr_keyboard_handler+0x1e6>
c0005527:	83 7d e8 00          	cmpl   $0x0,-0x18(%ebp)
c000552b:	74 10                	je     c000553d <intr_keyboard_handler+0x1f0>
c000552d:	80 7d ef 75          	cmpb   $0x75,-0x11(%ebp)
c0005531:	75 0a                	jne    c000553d <intr_keyboard_handler+0x1f0>
c0005533:	0f b6 45 ef          	movzbl -0x11(%ebp),%eax
c0005537:	83 e8 61             	sub    $0x61,%eax
c000553a:	88 45 ef             	mov    %al,-0x11(%ebp)
c000553d:	83 ec 0c             	sub    $0xc,%esp
c0005540:	c7 c0 20 32 01 c0    	mov    $0xc0013220,%eax
c0005546:	50                   	push   %eax
c0005547:	e8 d6 fb ff ff       	call   c0005122 <ioq_full>
c000554c:	83 c4 10             	add    $0x10,%esp
c000554f:	85 c0                	test   %eax,%eax
c0005551:	0f 85 84 00 00 00    	jne    c00055db <intr_keyboard_handler+0x28e>
c0005557:	0f be 45 ef          	movsbl -0x11(%ebp),%eax
c000555b:	83 ec 08             	sub    $0x8,%esp
c000555e:	50                   	push   %eax
c000555f:	c7 c0 20 32 01 c0    	mov    $0xc0013220,%eax
c0005565:	50                   	push   %eax
c0005566:	e8 12 fd ff ff       	call   c000527d <ioq_putchar>
c000556b:	83 c4 10             	add    $0x10,%esp
c000556e:	eb 6b                	jmp    c00055db <intr_keyboard_handler+0x28e>
c0005570:	66 83 7d f6 1d       	cmpw   $0x1d,-0xa(%ebp)
c0005575:	74 08                	je     c000557f <intr_keyboard_handler+0x232>
c0005577:	66 81 7d f6 1d e0    	cmpw   $0xe01d,-0xa(%ebp)
c000557d:	75 0c                	jne    c000558b <intr_keyboard_handler+0x23e>
c000557f:	c7 83 ac 05 00 00 01 	movl   $0x1,0x5ac(%ebx)
c0005586:	00 00 00 
c0005589:	eb 37                	jmp    c00055c2 <intr_keyboard_handler+0x275>
c000558b:	66 83 7d f6 2a       	cmpw   $0x2a,-0xa(%ebp)
c0005590:	74 07                	je     c0005599 <intr_keyboard_handler+0x24c>
c0005592:	66 83 7d f6 36       	cmpw   $0x36,-0xa(%ebp)
c0005597:	75 0c                	jne    c00055a5 <intr_keyboard_handler+0x258>
c0005599:	c7 83 b0 05 00 00 01 	movl   $0x1,0x5b0(%ebx)
c00055a0:	00 00 00 
c00055a3:	eb 1d                	jmp    c00055c2 <intr_keyboard_handler+0x275>
c00055a5:	66 83 7d f6 3a       	cmpw   $0x3a,-0xa(%ebp)
c00055aa:	75 32                	jne    c00055de <intr_keyboard_handler+0x291>
c00055ac:	8b 83 b8 05 00 00    	mov    0x5b8(%ebx),%eax
c00055b2:	85 c0                	test   %eax,%eax
c00055b4:	0f 94 c0             	sete   %al
c00055b7:	0f b6 c0             	movzbl %al,%eax
c00055ba:	89 83 b8 05 00 00    	mov    %eax,0x5b8(%ebx)
c00055c0:	eb 1c                	jmp    c00055de <intr_keyboard_handler+0x291>
c00055c2:	eb 1a                	jmp    c00055de <intr_keyboard_handler+0x291>
c00055c4:	83 ec 0c             	sub    $0xc,%esp
c00055c7:	8d 83 e2 b6 ff ff    	lea    -0x491e(%ebx),%eax
c00055cd:	50                   	push   %eax
c00055ce:	e8 6d d1 ff ff       	call   c0002740 <put_str>
c00055d3:	83 c4 10             	add    $0x10,%esp
c00055d6:	eb 07                	jmp    c00055df <intr_keyboard_handler+0x292>
c00055d8:	90                   	nop
c00055d9:	eb 04                	jmp    c00055df <intr_keyboard_handler+0x292>
c00055db:	90                   	nop
c00055dc:	eb 01                	jmp    c00055df <intr_keyboard_handler+0x292>
c00055de:	90                   	nop
c00055df:	8b 5d fc             	mov    -0x4(%ebp),%ebx
c00055e2:	c9                   	leave  
c00055e3:	c3                   	ret    

c00055e4 <keyboard_init>:
c00055e4:	55                   	push   %ebp
c00055e5:	89 e5                	mov    %esp,%ebp
c00055e7:	53                   	push   %ebx
c00055e8:	83 ec 04             	sub    $0x4,%esp
c00055eb:	e8 05 c4 ff ff       	call   c00019f5 <__x86.get_pc_thunk.bx>
c00055f0:	81 c3 10 ca 00 00    	add    $0xca10,%ebx
c00055f6:	83 ec 0c             	sub    $0xc,%esp
c00055f9:	8d 83 ef b6 ff ff    	lea    -0x4911(%ebx),%eax
c00055ff:	50                   	push   %eax
c0005600:	e8 3b d1 ff ff       	call   c0002740 <put_str>
c0005605:	83 c4 10             	add    $0x10,%esp
c0005608:	83 ec 0c             	sub    $0xc,%esp
c000560b:	c7 c0 20 32 01 c0    	mov    $0xc0013220,%eax
c0005611:	50                   	push   %eax
c0005612:	e8 91 fa ff ff       	call   c00050a8 <ioqueue_init>
c0005617:	83 c4 10             	add    $0x10,%esp
c000561a:	83 ec 08             	sub    $0x8,%esp
c000561d:	8d 83 4d 33 ff ff    	lea    -0xccb3(%ebx),%eax
c0005623:	50                   	push   %eax
c0005624:	6a 21                	push   $0x21
c0005626:	e8 84 c9 ff ff       	call   c0001faf <register_handler>
c000562b:	83 c4 10             	add    $0x10,%esp
c000562e:	83 ec 0c             	sub    $0xc,%esp
c0005631:	8d 83 04 b7 ff ff    	lea    -0x48fc(%ebx),%eax
c0005637:	50                   	push   %eax
c0005638:	e8 03 d1 ff ff       	call   c0002740 <put_str>
c000563d:	83 c4 10             	add    $0x10,%esp
c0005640:	90                   	nop
c0005641:	8b 5d fc             	mov    -0x4(%ebp),%ebx
c0005644:	c9                   	leave  
c0005645:	c3                   	ret    

c0005646 <update_tss_esp>:
c0005646:	55                   	push   %ebp
c0005647:	89 e5                	mov    %esp,%ebp
c0005649:	e8 8a c9 ff ff       	call   c0001fd8 <__x86.get_pc_thunk.ax>
c000564e:	05 b2 c9 00 00       	add    $0xc9b2,%eax
c0005653:	8b 55 08             	mov    0x8(%ebp),%edx
c0005656:	81 c2 00 10 00 00    	add    $0x1000,%edx
c000565c:	89 90 c4 05 00 00    	mov    %edx,0x5c4(%eax)
c0005662:	90                   	nop
c0005663:	5d                   	pop    %ebp
c0005664:	c3                   	ret    

c0005665 <make_gdt_desc>:
c0005665:	55                   	push   %ebp
c0005666:	89 e5                	mov    %esp,%ebp
c0005668:	83 ec 18             	sub    $0x18,%esp
c000566b:	e8 68 c9 ff ff       	call   c0001fd8 <__x86.get_pc_thunk.ax>
c0005670:	05 90 c9 00 00       	add    $0xc990,%eax
c0005675:	8b 55 14             	mov    0x14(%ebp),%edx
c0005678:	8b 45 18             	mov    0x18(%ebp),%eax
c000567b:	88 55 ec             	mov    %dl,-0x14(%ebp)
c000567e:	88 45 e8             	mov    %al,-0x18(%ebp)
c0005681:	8b 45 0c             	mov    0xc(%ebp),%eax
c0005684:	89 45 fc             	mov    %eax,-0x4(%ebp)
c0005687:	8b 45 10             	mov    0x10(%ebp),%eax
c000568a:	66 89 45 f4          	mov    %ax,-0xc(%ebp)
c000568e:	8b 45 fc             	mov    -0x4(%ebp),%eax
c0005691:	66 89 45 f6          	mov    %ax,-0xa(%ebp)
c0005695:	8b 45 fc             	mov    -0x4(%ebp),%eax
c0005698:	c1 e8 10             	shr    $0x10,%eax
c000569b:	88 45 f8             	mov    %al,-0x8(%ebp)
c000569e:	0f b6 45 ec          	movzbl -0x14(%ebp),%eax
c00056a2:	88 45 f9             	mov    %al,-0x7(%ebp)
c00056a5:	8b 45 10             	mov    0x10(%ebp),%eax
c00056a8:	c1 e8 10             	shr    $0x10,%eax
c00056ab:	83 e0 0f             	and    $0xf,%eax
c00056ae:	89 c2                	mov    %eax,%edx
c00056b0:	0f b6 45 e8          	movzbl -0x18(%ebp),%eax
c00056b4:	01 d0                	add    %edx,%eax
c00056b6:	88 45 fa             	mov    %al,-0x6(%ebp)
c00056b9:	8b 45 fc             	mov    -0x4(%ebp),%eax
c00056bc:	c1 e8 18             	shr    $0x18,%eax
c00056bf:	88 45 fb             	mov    %al,-0x5(%ebp)
c00056c2:	8b 4d 08             	mov    0x8(%ebp),%ecx
c00056c5:	8b 45 f4             	mov    -0xc(%ebp),%eax
c00056c8:	8b 55 f8             	mov    -0x8(%ebp),%edx
c00056cb:	89 01                	mov    %eax,(%ecx)
c00056cd:	89 51 04             	mov    %edx,0x4(%ecx)
c00056d0:	8b 45 08             	mov    0x8(%ebp),%eax
c00056d3:	c9                   	leave  
c00056d4:	c2 04 00             	ret    $0x4

c00056d7 <tss_init>:
c00056d7:	55                   	push   %ebp
c00056d8:	89 e5                	mov    %esp,%ebp
c00056da:	56                   	push   %esi
c00056db:	53                   	push   %ebx
c00056dc:	83 ec 20             	sub    $0x20,%esp
c00056df:	e8 11 c3 ff ff       	call   c00019f5 <__x86.get_pc_thunk.bx>
c00056e4:	81 c3 1c c9 00 00    	add    $0xc91c,%ebx
c00056ea:	83 ec 0c             	sub    $0xc,%esp
c00056ed:	8d 83 18 b7 ff ff    	lea    -0x48e8(%ebx),%eax
c00056f3:	50                   	push   %eax
c00056f4:	e8 47 d0 ff ff       	call   c0002740 <put_str>
c00056f9:	83 c4 10             	add    $0x10,%esp
c00056fc:	c7 45 f4 6c 00 00 00 	movl   $0x6c,-0xc(%ebp)
c0005703:	83 ec 04             	sub    $0x4,%esp
c0005706:	ff 75 f4             	pushl  -0xc(%ebp)
c0005709:	6a 00                	push   $0x0
c000570b:	8d 83 c0 05 00 00    	lea    0x5c0(%ebx),%eax
c0005711:	50                   	push   %eax
c0005712:	e8 7e d6 ff ff       	call   c0002d95 <memset>
c0005717:	83 c4 10             	add    $0x10,%esp
c000571a:	c7 83 c8 05 00 00 10 	movl   $0x10,0x5c8(%ebx)
c0005721:	00 00 00 
c0005724:	8b 45 f4             	mov    -0xc(%ebp),%eax
c0005727:	89 83 28 06 00 00    	mov    %eax,0x628(%ebx)
c000572d:	8b 45 f4             	mov    -0xc(%ebp),%eax
c0005730:	8d 50 ff             	lea    -0x1(%eax),%edx
c0005733:	be 20 09 00 c0       	mov    $0xc0000920,%esi
c0005738:	8d 45 e0             	lea    -0x20(%ebp),%eax
c000573b:	83 ec 0c             	sub    $0xc,%esp
c000573e:	68 80 00 00 00       	push   $0x80
c0005743:	68 89 00 00 00       	push   $0x89
c0005748:	52                   	push   %edx
c0005749:	8d 93 c0 05 00 00    	lea    0x5c0(%ebx),%edx
c000574f:	52                   	push   %edx
c0005750:	50                   	push   %eax
c0005751:	e8 0f ff ff ff       	call   c0005665 <make_gdt_desc>
c0005756:	83 c4 1c             	add    $0x1c,%esp
c0005759:	8b 45 e0             	mov    -0x20(%ebp),%eax
c000575c:	8b 55 e4             	mov    -0x1c(%ebp),%edx
c000575f:	89 06                	mov    %eax,(%esi)
c0005761:	89 56 04             	mov    %edx,0x4(%esi)
c0005764:	be 28 09 00 c0       	mov    $0xc0000928,%esi
c0005769:	8d 45 e0             	lea    -0x20(%ebp),%eax
c000576c:	83 ec 0c             	sub    $0xc,%esp
c000576f:	68 c0 00 00 00       	push   $0xc0
c0005774:	68 f8 00 00 00       	push   $0xf8
c0005779:	68 ff ff 0f 00       	push   $0xfffff
c000577e:	6a 00                	push   $0x0
c0005780:	50                   	push   %eax
c0005781:	e8 df fe ff ff       	call   c0005665 <make_gdt_desc>
c0005786:	83 c4 1c             	add    $0x1c,%esp
c0005789:	8b 45 e0             	mov    -0x20(%ebp),%eax
c000578c:	8b 55 e4             	mov    -0x1c(%ebp),%edx
c000578f:	89 06                	mov    %eax,(%esi)
c0005791:	89 56 04             	mov    %edx,0x4(%esi)
c0005794:	be 30 09 00 c0       	mov    $0xc0000930,%esi
c0005799:	8d 45 e0             	lea    -0x20(%ebp),%eax
c000579c:	83 ec 0c             	sub    $0xc,%esp
c000579f:	68 c0 00 00 00       	push   $0xc0
c00057a4:	68 f2 00 00 00       	push   $0xf2
c00057a9:	68 ff ff 0f 00       	push   $0xfffff
c00057ae:	6a 00                	push   $0x0
c00057b0:	50                   	push   %eax
c00057b1:	e8 af fe ff ff       	call   c0005665 <make_gdt_desc>
c00057b6:	83 c4 1c             	add    $0x1c,%esp
c00057b9:	8b 45 e0             	mov    -0x20(%ebp),%eax
c00057bc:	8b 55 e4             	mov    -0x1c(%ebp),%edx
c00057bf:	89 06                	mov    %eax,(%esi)
c00057c1:	89 56 04             	mov    %edx,0x4(%esi)
c00057c4:	c7 45 e8 37 00 00 09 	movl   $0x9000037,-0x18(%ebp)
c00057cb:	c7 45 ec 00 c0 00 00 	movl   $0xc000,-0x14(%ebp)
c00057d2:	0f 01 55 e8          	lgdtl  -0x18(%ebp)
c00057d6:	b8 20 00 00 00       	mov    $0x20,%eax
c00057db:	0f 00 d8             	ltr    %ax
c00057de:	83 ec 0c             	sub    $0xc,%esp
c00057e1:	8d 83 28 b7 ff ff    	lea    -0x48d8(%ebx),%eax
c00057e7:	50                   	push   %eax
c00057e8:	e8 53 cf ff ff       	call   c0002740 <put_str>
c00057ed:	83 c4 10             	add    $0x10,%esp
c00057f0:	90                   	nop
c00057f1:	8d 65 f8             	lea    -0x8(%ebp),%esp
c00057f4:	5b                   	pop    %ebx
c00057f5:	5e                   	pop    %esi
c00057f6:	5d                   	pop    %ebp
c00057f7:	c3                   	ret    

c00057f8 <start_process>:
c00057f8:	55                   	push   %ebp
c00057f9:	89 e5                	mov    %esp,%ebp
c00057fb:	53                   	push   %ebx
c00057fc:	83 ec 14             	sub    $0x14,%esp
c00057ff:	e8 f1 c1 ff ff       	call   c00019f5 <__x86.get_pc_thunk.bx>
c0005804:	81 c3 fc c7 00 00    	add    $0xc7fc,%ebx
c000580a:	8b 45 08             	mov    0x8(%ebp),%eax
c000580d:	89 45 f4             	mov    %eax,-0xc(%ebp)
c0005810:	e8 5e eb ff ff       	call   c0004373 <running_thread>
c0005815:	89 45 f0             	mov    %eax,-0x10(%ebp)
c0005818:	8b 45 f0             	mov    -0x10(%ebp),%eax
c000581b:	8b 00                	mov    (%eax),%eax
c000581d:	8d 90 80 00 00 00    	lea    0x80(%eax),%edx
c0005823:	8b 45 f0             	mov    -0x10(%ebp),%eax
c0005826:	89 10                	mov    %edx,(%eax)
c0005828:	8b 45 f0             	mov    -0x10(%ebp),%eax
c000582b:	8b 00                	mov    (%eax),%eax
c000582d:	89 45 ec             	mov    %eax,-0x14(%ebp)
c0005830:	8b 45 ec             	mov    -0x14(%ebp),%eax
c0005833:	c7 40 10 00 00 00 00 	movl   $0x0,0x10(%eax)
c000583a:	8b 45 ec             	mov    -0x14(%ebp),%eax
c000583d:	8b 50 10             	mov    0x10(%eax),%edx
c0005840:	8b 45 ec             	mov    -0x14(%ebp),%eax
c0005843:	89 50 0c             	mov    %edx,0xc(%eax)
c0005846:	8b 45 ec             	mov    -0x14(%ebp),%eax
c0005849:	8b 50 0c             	mov    0xc(%eax),%edx
c000584c:	8b 45 ec             	mov    -0x14(%ebp),%eax
c000584f:	89 50 08             	mov    %edx,0x8(%eax)
c0005852:	8b 45 ec             	mov    -0x14(%ebp),%eax
c0005855:	8b 50 08             	mov    0x8(%eax),%edx
c0005858:	8b 45 ec             	mov    -0x14(%ebp),%eax
c000585b:	89 50 04             	mov    %edx,0x4(%eax)
c000585e:	8b 45 ec             	mov    -0x14(%ebp),%eax
c0005861:	c7 40 20 00 00 00 00 	movl   $0x0,0x20(%eax)
c0005868:	8b 45 ec             	mov    -0x14(%ebp),%eax
c000586b:	8b 50 20             	mov    0x20(%eax),%edx
c000586e:	8b 45 ec             	mov    -0x14(%ebp),%eax
c0005871:	89 50 1c             	mov    %edx,0x1c(%eax)
c0005874:	8b 45 ec             	mov    -0x14(%ebp),%eax
c0005877:	8b 50 1c             	mov    0x1c(%eax),%edx
c000587a:	8b 45 ec             	mov    -0x14(%ebp),%eax
c000587d:	89 50 18             	mov    %edx,0x18(%eax)
c0005880:	8b 45 ec             	mov    -0x14(%ebp),%eax
c0005883:	8b 50 18             	mov    0x18(%eax),%edx
c0005886:	8b 45 ec             	mov    -0x14(%ebp),%eax
c0005889:	89 50 14             	mov    %edx,0x14(%eax)
c000588c:	8b 45 ec             	mov    -0x14(%ebp),%eax
c000588f:	c7 40 24 00 00 00 00 	movl   $0x0,0x24(%eax)
c0005896:	8b 45 ec             	mov    -0x14(%ebp),%eax
c0005899:	c7 40 28 33 00 00 00 	movl   $0x33,0x28(%eax)
c00058a0:	8b 45 ec             	mov    -0x14(%ebp),%eax
c00058a3:	8b 50 28             	mov    0x28(%eax),%edx
c00058a6:	8b 45 ec             	mov    -0x14(%ebp),%eax
c00058a9:	89 50 2c             	mov    %edx,0x2c(%eax)
c00058ac:	8b 45 ec             	mov    -0x14(%ebp),%eax
c00058af:	8b 50 2c             	mov    0x2c(%eax),%edx
c00058b2:	8b 45 ec             	mov    -0x14(%ebp),%eax
c00058b5:	89 50 30             	mov    %edx,0x30(%eax)
c00058b8:	8b 55 f4             	mov    -0xc(%ebp),%edx
c00058bb:	8b 45 ec             	mov    -0x14(%ebp),%eax
c00058be:	89 50 38             	mov    %edx,0x38(%eax)
c00058c1:	8b 45 ec             	mov    -0x14(%ebp),%eax
c00058c4:	c7 40 3c 2b 00 00 00 	movl   $0x2b,0x3c(%eax)
c00058cb:	8b 45 ec             	mov    -0x14(%ebp),%eax
c00058ce:	c7 40 40 02 02 00 00 	movl   $0x202,0x40(%eax)
c00058d5:	83 ec 08             	sub    $0x8,%esp
c00058d8:	68 00 f0 ff bf       	push   $0xbffff000
c00058dd:	6a 02                	push   $0x2
c00058df:	e8 bd dd ff ff       	call   c00036a1 <get_a_page>
c00058e4:	83 c4 10             	add    $0x10,%esp
c00058e7:	05 00 10 00 00       	add    $0x1000,%eax
c00058ec:	89 c2                	mov    %eax,%edx
c00058ee:	8b 45 ec             	mov    -0x14(%ebp),%eax
c00058f1:	89 50 44             	mov    %edx,0x44(%eax)
c00058f4:	8b 45 ec             	mov    -0x14(%ebp),%eax
c00058f7:	c7 40 48 33 00 00 00 	movl   $0x33,0x48(%eax)
c00058fe:	8b 65 ec             	mov    -0x14(%ebp),%esp
c0005901:	e9 da c8 ff ff       	jmp    c00021e0 <intr_exit>
c0005906:	90                   	nop
c0005907:	8b 5d fc             	mov    -0x4(%ebp),%ebx
c000590a:	c9                   	leave  
c000590b:	c3                   	ret    

c000590c <page_dir_activate>:
c000590c:	55                   	push   %ebp
c000590d:	89 e5                	mov    %esp,%ebp
c000590f:	53                   	push   %ebx
c0005910:	83 ec 14             	sub    $0x14,%esp
c0005913:	e8 c0 c6 ff ff       	call   c0001fd8 <__x86.get_pc_thunk.ax>
c0005918:	05 e8 c6 00 00       	add    $0xc6e8,%eax
c000591d:	c7 45 f4 00 00 10 00 	movl   $0x100000,-0xc(%ebp)
c0005924:	8b 55 08             	mov    0x8(%ebp),%edx
c0005927:	8b 52 54             	mov    0x54(%edx),%edx
c000592a:	85 d2                	test   %edx,%edx
c000592c:	74 17                	je     c0005945 <page_dir_activate+0x39>
c000592e:	8b 55 08             	mov    0x8(%ebp),%edx
c0005931:	8b 52 54             	mov    0x54(%edx),%edx
c0005934:	83 ec 0c             	sub    $0xc,%esp
c0005937:	52                   	push   %edx
c0005938:	89 c3                	mov    %eax,%ebx
c000593a:	e8 34 df ff ff       	call   c0003873 <addr_v2p>
c000593f:	83 c4 10             	add    $0x10,%esp
c0005942:	89 45 f4             	mov    %eax,-0xc(%ebp)
c0005945:	8b 45 f4             	mov    -0xc(%ebp),%eax
c0005948:	0f 22 d8             	mov    %eax,%cr3
c000594b:	90                   	nop
c000594c:	8b 5d fc             	mov    -0x4(%ebp),%ebx
c000594f:	c9                   	leave  
c0005950:	c3                   	ret    

c0005951 <process_activate>:
c0005951:	55                   	push   %ebp
c0005952:	89 e5                	mov    %esp,%ebp
c0005954:	53                   	push   %ebx
c0005955:	83 ec 04             	sub    $0x4,%esp
c0005958:	e8 98 c0 ff ff       	call   c00019f5 <__x86.get_pc_thunk.bx>
c000595d:	81 c3 a3 c6 00 00    	add    $0xc6a3,%ebx
c0005963:	83 ec 0c             	sub    $0xc,%esp
c0005966:	ff 75 08             	pushl  0x8(%ebp)
c0005969:	e8 9e ff ff ff       	call   c000590c <page_dir_activate>
c000596e:	83 c4 10             	add    $0x10,%esp
c0005971:	8b 45 08             	mov    0x8(%ebp),%eax
c0005974:	8b 40 54             	mov    0x54(%eax),%eax
c0005977:	85 c0                	test   %eax,%eax
c0005979:	74 0e                	je     c0005989 <process_activate+0x38>
c000597b:	83 ec 0c             	sub    $0xc,%esp
c000597e:	ff 75 08             	pushl  0x8(%ebp)
c0005981:	e8 c0 fc ff ff       	call   c0005646 <update_tss_esp>
c0005986:	83 c4 10             	add    $0x10,%esp
c0005989:	90                   	nop
c000598a:	8b 5d fc             	mov    -0x4(%ebp),%ebx
c000598d:	c9                   	leave  
c000598e:	c3                   	ret    

c000598f <create_page_dir>:
c000598f:	55                   	push   %ebp
c0005990:	89 e5                	mov    %esp,%ebp
c0005992:	53                   	push   %ebx
c0005993:	83 ec 14             	sub    $0x14,%esp
c0005996:	e8 5a c0 ff ff       	call   c00019f5 <__x86.get_pc_thunk.bx>
c000599b:	81 c3 65 c6 00 00    	add    $0xc665,%ebx
c00059a1:	83 ec 0c             	sub    $0xc,%esp
c00059a4:	6a 01                	push   $0x1
c00059a6:	e8 2c dc ff ff       	call   c00035d7 <get_kernel_pages>
c00059ab:	83 c4 10             	add    $0x10,%esp
c00059ae:	89 45 f4             	mov    %eax,-0xc(%ebp)
c00059b1:	83 7d f4 00          	cmpl   $0x0,-0xc(%ebp)
c00059b5:	75 19                	jne    c00059d0 <create_page_dir+0x41>
c00059b7:	83 ec 0c             	sub    $0xc,%esp
c00059ba:	8d 83 40 b7 ff ff    	lea    -0x48c0(%ebx),%eax
c00059c0:	50                   	push   %eax
c00059c1:	e8 4a f6 ff ff       	call   c0005010 <console_put_str>
c00059c6:	83 c4 10             	add    $0x10,%esp
c00059c9:	b8 00 00 00 00       	mov    $0x0,%eax
c00059ce:	eb 43                	jmp    c0005a13 <create_page_dir+0x84>
c00059d0:	8b 45 f4             	mov    -0xc(%ebp),%eax
c00059d3:	05 00 0c 00 00       	add    $0xc00,%eax
c00059d8:	83 ec 04             	sub    $0x4,%esp
c00059db:	68 00 04 00 00       	push   $0x400
c00059e0:	68 00 fc ff ff       	push   $0xfffffc00
c00059e5:	50                   	push   %eax
c00059e6:	e8 e5 d3 ff ff       	call   c0002dd0 <memcpy>
c00059eb:	83 c4 10             	add    $0x10,%esp
c00059ee:	8b 45 f4             	mov    -0xc(%ebp),%eax
c00059f1:	83 ec 0c             	sub    $0xc,%esp
c00059f4:	50                   	push   %eax
c00059f5:	e8 79 de ff ff       	call   c0003873 <addr_v2p>
c00059fa:	83 c4 10             	add    $0x10,%esp
c00059fd:	89 45 f0             	mov    %eax,-0x10(%ebp)
c0005a00:	8b 45 f4             	mov    -0xc(%ebp),%eax
c0005a03:	05 fc 0f 00 00       	add    $0xffc,%eax
c0005a08:	8b 55 f0             	mov    -0x10(%ebp),%edx
c0005a0b:	83 ca 07             	or     $0x7,%edx
c0005a0e:	89 10                	mov    %edx,(%eax)
c0005a10:	8b 45 f4             	mov    -0xc(%ebp),%eax
c0005a13:	8b 5d fc             	mov    -0x4(%ebp),%ebx
c0005a16:	c9                   	leave  
c0005a17:	c3                   	ret    

c0005a18 <create_user_vaddr_bitmap>:
c0005a18:	55                   	push   %ebp
c0005a19:	89 e5                	mov    %esp,%ebp
c0005a1b:	53                   	push   %ebx
c0005a1c:	83 ec 14             	sub    $0x14,%esp
c0005a1f:	e8 d1 bf ff ff       	call   c00019f5 <__x86.get_pc_thunk.bx>
c0005a24:	81 c3 dc c5 00 00    	add    $0xc5dc,%ebx
c0005a2a:	8b 45 08             	mov    0x8(%ebp),%eax
c0005a2d:	c7 40 60 00 80 04 08 	movl   $0x8048000,0x60(%eax)
c0005a34:	c7 45 f4 17 00 00 00 	movl   $0x17,-0xc(%ebp)
c0005a3b:	83 ec 0c             	sub    $0xc,%esp
c0005a3e:	ff 75 f4             	pushl  -0xc(%ebp)
c0005a41:	e8 91 db ff ff       	call   c00035d7 <get_kernel_pages>
c0005a46:	83 c4 10             	add    $0x10,%esp
c0005a49:	89 c2                	mov    %eax,%edx
c0005a4b:	8b 45 08             	mov    0x8(%ebp),%eax
c0005a4e:	89 50 5c             	mov    %edx,0x5c(%eax)
c0005a51:	8b 45 08             	mov    0x8(%ebp),%eax
c0005a54:	c7 40 58 f7 6f 01 00 	movl   $0x16ff7,0x58(%eax)
c0005a5b:	8b 45 08             	mov    0x8(%ebp),%eax
c0005a5e:	83 c0 58             	add    $0x58,%eax
c0005a61:	83 ec 0c             	sub    $0xc,%esp
c0005a64:	50                   	push   %eax
c0005a65:	e8 0d d6 ff ff       	call   c0003077 <bitmap_init>
c0005a6a:	83 c4 10             	add    $0x10,%esp
c0005a6d:	90                   	nop
c0005a6e:	8b 5d fc             	mov    -0x4(%ebp),%ebx
c0005a71:	c9                   	leave  
c0005a72:	c3                   	ret    

c0005a73 <process_execute>:
c0005a73:	55                   	push   %ebp
c0005a74:	89 e5                	mov    %esp,%ebp
c0005a76:	53                   	push   %ebx
c0005a77:	83 ec 14             	sub    $0x14,%esp
c0005a7a:	e8 76 bf ff ff       	call   c00019f5 <__x86.get_pc_thunk.bx>
c0005a7f:	81 c3 81 c5 00 00    	add    $0xc581,%ebx
c0005a85:	83 ec 0c             	sub    $0xc,%esp
c0005a88:	6a 01                	push   $0x1
c0005a8a:	e8 48 db ff ff       	call   c00035d7 <get_kernel_pages>
c0005a8f:	83 c4 10             	add    $0x10,%esp
c0005a92:	89 45 f4             	mov    %eax,-0xc(%ebp)
c0005a95:	83 ec 04             	sub    $0x4,%esp
c0005a98:	6a 1f                	push   $0x1f
c0005a9a:	ff 75 0c             	pushl  0xc(%ebp)
c0005a9d:	ff 75 f4             	pushl  -0xc(%ebp)
c0005aa0:	e8 28 ea ff ff       	call   c00044cd <init_thread>
c0005aa5:	83 c4 10             	add    $0x10,%esp
c0005aa8:	83 ec 0c             	sub    $0xc,%esp
c0005aab:	ff 75 f4             	pushl  -0xc(%ebp)
c0005aae:	e8 65 ff ff ff       	call   c0005a18 <create_user_vaddr_bitmap>
c0005ab3:	83 c4 10             	add    $0x10,%esp
c0005ab6:	83 ec 04             	sub    $0x4,%esp
c0005ab9:	ff 75 08             	pushl  0x8(%ebp)
c0005abc:	8d 83 f8 37 ff ff    	lea    -0xc808(%ebx),%eax
c0005ac2:	50                   	push   %eax
c0005ac3:	ff 75 f4             	pushl  -0xc(%ebp)
c0005ac6:	e8 7e e9 ff ff       	call   c0004449 <thread_create>
c0005acb:	83 c4 10             	add    $0x10,%esp
c0005ace:	e8 bc fe ff ff       	call   c000598f <create_page_dir>
c0005ad3:	89 c2                	mov    %eax,%edx
c0005ad5:	8b 45 f4             	mov    -0xc(%ebp),%eax
c0005ad8:	89 50 54             	mov    %edx,0x54(%eax)
c0005adb:	8b 45 f4             	mov    -0xc(%ebp),%eax
c0005ade:	83 c0 64             	add    $0x64,%eax
c0005ae1:	83 ec 0c             	sub    $0xc,%esp
c0005ae4:	50                   	push   %eax
c0005ae5:	e8 bf dd ff ff       	call   c00038a9 <block_desc_init>
c0005aea:	83 c4 10             	add    $0x10,%esp
c0005aed:	e8 3b c4 ff ff       	call   c0001f2d <intr_disable>
c0005af2:	89 45 f0             	mov    %eax,-0x10(%ebp)
c0005af5:	8b 45 f4             	mov    -0xc(%ebp),%eax
c0005af8:	83 c0 44             	add    $0x44,%eax
c0005afb:	83 ec 08             	sub    $0x8,%esp
c0005afe:	50                   	push   %eax
c0005aff:	c7 c0 cc 31 01 c0    	mov    $0xc00131cc,%eax
c0005b05:	50                   	push   %eax
c0005b06:	e8 8e cf ff ff       	call   c0002a99 <list_append>
c0005b0b:	83 c4 10             	add    $0x10,%esp
c0005b0e:	8b 45 f4             	mov    -0xc(%ebp),%eax
c0005b11:	83 c0 4c             	add    $0x4c,%eax
c0005b14:	83 ec 08             	sub    $0x8,%esp
c0005b17:	50                   	push   %eax
c0005b18:	c7 c0 dc 31 01 c0    	mov    $0xc00131dc,%eax
c0005b1e:	50                   	push   %eax
c0005b1f:	e8 75 cf ff ff       	call   c0002a99 <list_append>
c0005b24:	83 c4 10             	add    $0x10,%esp
c0005b27:	83 ec 0c             	sub    $0xc,%esp
c0005b2a:	ff 75 f0             	pushl  -0x10(%ebp)
c0005b2d:	e8 2e c4 ff ff       	call   c0001f60 <intr_set_status>
c0005b32:	83 c4 10             	add    $0x10,%esp
c0005b35:	90                   	nop
c0005b36:	8b 5d fc             	mov    -0x4(%ebp),%ebx
c0005b39:	c9                   	leave  
c0005b3a:	c3                   	ret    

c0005b3b <sys_getpid>:
c0005b3b:	55                   	push   %ebp
c0005b3c:	89 e5                	mov    %esp,%ebp
c0005b3e:	53                   	push   %ebx
c0005b3f:	83 ec 04             	sub    $0x4,%esp
c0005b42:	e8 91 c4 ff ff       	call   c0001fd8 <__x86.get_pc_thunk.ax>
c0005b47:	05 b9 c4 00 00       	add    $0xc4b9,%eax
c0005b4c:	89 c3                	mov    %eax,%ebx
c0005b4e:	e8 20 e8 ff ff       	call   c0004373 <running_thread>
c0005b53:	0f b7 40 04          	movzwl 0x4(%eax),%eax
c0005b57:	98                   	cwtl   
c0005b58:	83 c4 04             	add    $0x4,%esp
c0005b5b:	5b                   	pop    %ebx
c0005b5c:	5d                   	pop    %ebp
c0005b5d:	c3                   	ret    

c0005b5e <syscall_init>:
c0005b5e:	55                   	push   %ebp
c0005b5f:	89 e5                	mov    %esp,%ebp
c0005b61:	53                   	push   %ebx
c0005b62:	83 ec 04             	sub    $0x4,%esp
c0005b65:	e8 8b be ff ff       	call   c00019f5 <__x86.get_pc_thunk.bx>
c0005b6a:	81 c3 96 c4 00 00    	add    $0xc496,%ebx
c0005b70:	83 ec 0c             	sub    $0xc,%esp
c0005b73:	8d 83 69 b7 ff ff    	lea    -0x4897(%ebx),%eax
c0005b79:	50                   	push   %eax
c0005b7a:	e8 c1 cb ff ff       	call   c0002740 <put_str>
c0005b7f:	83 c4 10             	add    $0x10,%esp
c0005b82:	c7 c0 a0 32 01 c0    	mov    $0xc00132a0,%eax
c0005b88:	8d 93 3b 3b ff ff    	lea    -0xc4c5(%ebx),%edx
c0005b8e:	89 10                	mov    %edx,(%eax)
c0005b90:	c7 c0 a0 32 01 c0    	mov    $0xc00132a0,%eax
c0005b96:	c7 c2 b0 a3 00 c0    	mov    $0xc000a3b0,%edx
c0005b9c:	89 50 04             	mov    %edx,0x4(%eax)
c0005b9f:	c7 c0 a0 32 01 c0    	mov    $0xc00132a0,%eax
c0005ba5:	c7 c2 87 39 00 c0    	mov    $0xc0003987,%edx
c0005bab:	89 50 08             	mov    %edx,0x8(%eax)
c0005bae:	c7 c0 a0 32 01 c0    	mov    $0xc00132a0,%eax
c0005bb4:	c7 c2 0d 3f 00 c0    	mov    $0xc0003f0d,%edx
c0005bba:	89 50 0c             	mov    %edx,0xc(%eax)
c0005bbd:	c7 c0 a0 32 01 c0    	mov    $0xc00132a0,%eax
c0005bc3:	c7 c2 aa ba 00 c0    	mov    $0xc000baaa,%edx
c0005bc9:	89 50 10             	mov    %edx,0x10(%eax)
c0005bcc:	c7 c0 a0 32 01 c0    	mov    $0xc00132a0,%eax
c0005bd2:	c7 c2 85 a6 00 c0    	mov    $0xc000a685,%edx
c0005bd8:	89 50 14             	mov    %edx,0x14(%eax)
c0005bdb:	c7 c0 a0 32 01 c0    	mov    $0xc00132a0,%eax
c0005be1:	c7 c2 5d a7 00 c0    	mov    $0xc000a75d,%edx
c0005be7:	89 50 18             	mov    %edx,0x18(%eax)
c0005bea:	c7 c0 a0 32 01 c0    	mov    $0xc00132a0,%eax
c0005bf0:	c7 c2 2b 28 00 c0    	mov    $0xc000282b,%edx
c0005bf6:	89 50 1c             	mov    %edx,0x1c(%eax)
c0005bf9:	c7 c0 a0 32 01 c0    	mov    $0xc00132a0,%eax
c0005bff:	c7 c2 3b b1 00 c0    	mov    $0xc000b13b,%edx
c0005c05:	89 50 20             	mov    %edx,0x20(%eax)
c0005c08:	c7 c0 a0 32 01 c0    	mov    $0xc00132a0,%eax
c0005c0e:	c7 c2 c0 a0 00 c0    	mov    $0xc000a0c0,%edx
c0005c14:	89 50 24             	mov    %edx,0x24(%eax)
c0005c17:	c7 c0 a0 32 01 c0    	mov    $0xc00132a0,%eax
c0005c1d:	c7 c2 3f a3 00 c0    	mov    $0xc000a33f,%edx
c0005c23:	89 50 28             	mov    %edx,0x28(%eax)
c0005c26:	c7 c0 a0 32 01 c0    	mov    $0xc00132a0,%eax
c0005c2c:	c7 c2 8f a7 00 c0    	mov    $0xc000a78f,%edx
c0005c32:	89 50 2c             	mov    %edx,0x2c(%eax)
c0005c35:	c7 c0 a0 32 01 c0    	mov    $0xc00132a0,%eax
c0005c3b:	c7 c2 ae a4 00 c0    	mov    $0xc000a4ae,%edx
c0005c41:	89 50 30             	mov    %edx,0x30(%eax)
c0005c44:	c7 c0 a0 32 01 c0    	mov    $0xc00132a0,%eax
c0005c4a:	c7 c2 66 a8 00 c0    	mov    $0xc000a866,%edx
c0005c50:	89 50 34             	mov    %edx,0x34(%eax)
c0005c53:	c7 c0 a0 32 01 c0    	mov    $0xc00132a0,%eax
c0005c59:	c7 c2 c1 ac 00 c0    	mov    $0xc000acc1,%edx
c0005c5f:	89 50 38             	mov    %edx,0x38(%eax)
c0005c62:	c7 c0 a0 32 01 c0    	mov    $0xc00132a0,%eax
c0005c68:	c7 c2 b7 ad 00 c0    	mov    $0xc000adb7,%edx
c0005c6e:	89 50 3c             	mov    %edx,0x3c(%eax)
c0005c71:	c7 c0 a0 32 01 c0    	mov    $0xc00132a0,%eax
c0005c77:	c7 c2 b9 b2 00 c0    	mov    $0xc000b2b9,%edx
c0005c7d:	89 50 40             	mov    %edx,0x40(%eax)
c0005c80:	c7 c0 a0 32 01 c0    	mov    $0xc00132a0,%eax
c0005c86:	c7 c2 f4 ad 00 c0    	mov    $0xc000adf4,%edx
c0005c8c:	89 50 44             	mov    %edx,0x44(%eax)
c0005c8f:	c7 c0 a0 32 01 c0    	mov    $0xc00132a0,%eax
c0005c95:	c7 c2 81 ac 00 c0    	mov    $0xc000ac81,%edx
c0005c9b:	89 50 48             	mov    %edx,0x48(%eax)
c0005c9e:	c7 c0 a0 32 01 c0    	mov    $0xc00132a0,%eax
c0005ca4:	c7 c2 a7 ac 00 c0    	mov    $0xc000aca7,%edx
c0005caa:	89 50 4c             	mov    %edx,0x4c(%eax)
c0005cad:	c7 c0 a0 32 01 c0    	mov    $0xc00132a0,%eax
c0005cb3:	c7 c2 59 b3 00 c0    	mov    $0xc000b359,%edx
c0005cb9:	89 50 50             	mov    %edx,0x50(%eax)
c0005cbc:	c7 c0 a0 32 01 c0    	mov    $0xc00132a0,%eax
c0005cc2:	c7 c2 98 4b 00 c0    	mov    $0xc0004b98,%edx
c0005cc8:	89 50 54             	mov    %edx,0x54(%eax)
c0005ccb:	c7 c0 a0 32 01 c0    	mov    $0xc00132a0,%eax
c0005cd1:	c7 c2 f0 cd 00 c0    	mov    $0xc000cdf0,%edx
c0005cd7:	89 50 58             	mov    %edx,0x58(%eax)
c0005cda:	83 ec 0c             	sub    $0xc,%esp
c0005cdd:	8d 83 7d b7 ff ff    	lea    -0x4883(%ebx),%eax
c0005ce3:	50                   	push   %eax
c0005ce4:	e8 57 ca ff ff       	call   c0002740 <put_str>
c0005ce9:	83 c4 10             	add    $0x10,%esp
c0005cec:	90                   	nop
c0005ced:	8b 5d fc             	mov    -0x4(%ebp),%ebx
c0005cf0:	c9                   	leave  
c0005cf1:	c3                   	ret    

c0005cf2 <getpid>:
c0005cf2:	55                   	push   %ebp
c0005cf3:	89 e5                	mov    %esp,%ebp
c0005cf5:	83 ec 10             	sub    $0x10,%esp
c0005cf8:	e8 db c2 ff ff       	call   c0001fd8 <__x86.get_pc_thunk.ax>
c0005cfd:	05 03 c3 00 00       	add    $0xc303,%eax
c0005d02:	b8 00 00 00 00       	mov    $0x0,%eax
c0005d07:	cd 80                	int    $0x80
c0005d09:	89 45 fc             	mov    %eax,-0x4(%ebp)
c0005d0c:	8b 45 fc             	mov    -0x4(%ebp),%eax
c0005d0f:	c9                   	leave  
c0005d10:	c3                   	ret    

c0005d11 <write>:
c0005d11:	55                   	push   %ebp
c0005d12:	89 e5                	mov    %esp,%ebp
c0005d14:	53                   	push   %ebx
c0005d15:	83 ec 10             	sub    $0x10,%esp
c0005d18:	e8 bb c2 ff ff       	call   c0001fd8 <__x86.get_pc_thunk.ax>
c0005d1d:	05 e3 c2 00 00       	add    $0xc2e3,%eax
c0005d22:	b8 01 00 00 00       	mov    $0x1,%eax
c0005d27:	8b 5d 08             	mov    0x8(%ebp),%ebx
c0005d2a:	8b 4d 0c             	mov    0xc(%ebp),%ecx
c0005d2d:	8b 55 10             	mov    0x10(%ebp),%edx
c0005d30:	cd 80                	int    $0x80
c0005d32:	89 45 f8             	mov    %eax,-0x8(%ebp)
c0005d35:	8b 45 f8             	mov    -0x8(%ebp),%eax
c0005d38:	83 c4 10             	add    $0x10,%esp
c0005d3b:	5b                   	pop    %ebx
c0005d3c:	5d                   	pop    %ebp
c0005d3d:	c3                   	ret    

c0005d3e <malloc>:
c0005d3e:	55                   	push   %ebp
c0005d3f:	89 e5                	mov    %esp,%ebp
c0005d41:	53                   	push   %ebx
c0005d42:	83 ec 10             	sub    $0x10,%esp
c0005d45:	e8 8e c2 ff ff       	call   c0001fd8 <__x86.get_pc_thunk.ax>
c0005d4a:	05 b6 c2 00 00       	add    $0xc2b6,%eax
c0005d4f:	b8 02 00 00 00       	mov    $0x2,%eax
c0005d54:	8b 55 08             	mov    0x8(%ebp),%edx
c0005d57:	89 d3                	mov    %edx,%ebx
c0005d59:	cd 80                	int    $0x80
c0005d5b:	89 45 f8             	mov    %eax,-0x8(%ebp)
c0005d5e:	8b 45 f8             	mov    -0x8(%ebp),%eax
c0005d61:	83 c4 10             	add    $0x10,%esp
c0005d64:	5b                   	pop    %ebx
c0005d65:	5d                   	pop    %ebp
c0005d66:	c3                   	ret    

c0005d67 <free>:
c0005d67:	55                   	push   %ebp
c0005d68:	89 e5                	mov    %esp,%ebp
c0005d6a:	53                   	push   %ebx
c0005d6b:	83 ec 10             	sub    $0x10,%esp
c0005d6e:	e8 65 c2 ff ff       	call   c0001fd8 <__x86.get_pc_thunk.ax>
c0005d73:	05 8d c2 00 00       	add    $0xc28d,%eax
c0005d78:	b8 03 00 00 00       	mov    $0x3,%eax
c0005d7d:	8b 55 08             	mov    0x8(%ebp),%edx
c0005d80:	89 d3                	mov    %edx,%ebx
c0005d82:	cd 80                	int    $0x80
c0005d84:	89 45 f8             	mov    %eax,-0x8(%ebp)
c0005d87:	90                   	nop
c0005d88:	83 c4 10             	add    $0x10,%esp
c0005d8b:	5b                   	pop    %ebx
c0005d8c:	5d                   	pop    %ebp
c0005d8d:	c3                   	ret    

c0005d8e <fork>:
c0005d8e:	55                   	push   %ebp
c0005d8f:	89 e5                	mov    %esp,%ebp
c0005d91:	83 ec 10             	sub    $0x10,%esp
c0005d94:	e8 3f c2 ff ff       	call   c0001fd8 <__x86.get_pc_thunk.ax>
c0005d99:	05 67 c2 00 00       	add    $0xc267,%eax
c0005d9e:	b8 04 00 00 00       	mov    $0x4,%eax
c0005da3:	cd 80                	int    $0x80
c0005da5:	89 45 fc             	mov    %eax,-0x4(%ebp)
c0005da8:	8b 45 fc             	mov    -0x4(%ebp),%eax
c0005dab:	c9                   	leave  
c0005dac:	c3                   	ret    

c0005dad <read>:
c0005dad:	55                   	push   %ebp
c0005dae:	89 e5                	mov    %esp,%ebp
c0005db0:	53                   	push   %ebx
c0005db1:	83 ec 10             	sub    $0x10,%esp
c0005db4:	e8 1f c2 ff ff       	call   c0001fd8 <__x86.get_pc_thunk.ax>
c0005db9:	05 47 c2 00 00       	add    $0xc247,%eax
c0005dbe:	b8 05 00 00 00       	mov    $0x5,%eax
c0005dc3:	8b 5d 08             	mov    0x8(%ebp),%ebx
c0005dc6:	8b 4d 0c             	mov    0xc(%ebp),%ecx
c0005dc9:	8b 55 10             	mov    0x10(%ebp),%edx
c0005dcc:	cd 80                	int    $0x80
c0005dce:	89 45 f8             	mov    %eax,-0x8(%ebp)
c0005dd1:	8b 45 f8             	mov    -0x8(%ebp),%eax
c0005dd4:	83 c4 10             	add    $0x10,%esp
c0005dd7:	5b                   	pop    %ebx
c0005dd8:	5d                   	pop    %ebp
c0005dd9:	c3                   	ret    

c0005dda <putchar>:
c0005dda:	55                   	push   %ebp
c0005ddb:	89 e5                	mov    %esp,%ebp
c0005ddd:	53                   	push   %ebx
c0005dde:	83 ec 14             	sub    $0x14,%esp
c0005de1:	e8 f2 c1 ff ff       	call   c0001fd8 <__x86.get_pc_thunk.ax>
c0005de6:	05 1a c2 00 00       	add    $0xc21a,%eax
c0005deb:	8b 45 08             	mov    0x8(%ebp),%eax
c0005dee:	88 45 e8             	mov    %al,-0x18(%ebp)
c0005df1:	b8 06 00 00 00       	mov    $0x6,%eax
c0005df6:	0f b6 55 e8          	movzbl -0x18(%ebp),%edx
c0005dfa:	89 d3                	mov    %edx,%ebx
c0005dfc:	cd 80                	int    $0x80
c0005dfe:	89 45 f8             	mov    %eax,-0x8(%ebp)
c0005e01:	90                   	nop
c0005e02:	83 c4 14             	add    $0x14,%esp
c0005e05:	5b                   	pop    %ebx
c0005e06:	5d                   	pop    %ebp
c0005e07:	c3                   	ret    

c0005e08 <clear>:
c0005e08:	55                   	push   %ebp
c0005e09:	89 e5                	mov    %esp,%ebp
c0005e0b:	83 ec 10             	sub    $0x10,%esp
c0005e0e:	e8 c5 c1 ff ff       	call   c0001fd8 <__x86.get_pc_thunk.ax>
c0005e13:	05 ed c1 00 00       	add    $0xc1ed,%eax
c0005e18:	b8 07 00 00 00       	mov    $0x7,%eax
c0005e1d:	cd 80                	int    $0x80
c0005e1f:	89 45 fc             	mov    %eax,-0x4(%ebp)
c0005e22:	90                   	nop
c0005e23:	c9                   	leave  
c0005e24:	c3                   	ret    

c0005e25 <getcwd>:
c0005e25:	55                   	push   %ebp
c0005e26:	89 e5                	mov    %esp,%ebp
c0005e28:	53                   	push   %ebx
c0005e29:	83 ec 10             	sub    $0x10,%esp
c0005e2c:	e8 a7 c1 ff ff       	call   c0001fd8 <__x86.get_pc_thunk.ax>
c0005e31:	05 cf c1 00 00       	add    $0xc1cf,%eax
c0005e36:	b8 08 00 00 00       	mov    $0x8,%eax
c0005e3b:	8b 55 08             	mov    0x8(%ebp),%edx
c0005e3e:	8b 4d 0c             	mov    0xc(%ebp),%ecx
c0005e41:	89 d3                	mov    %edx,%ebx
c0005e43:	cd 80                	int    $0x80
c0005e45:	89 45 f8             	mov    %eax,-0x8(%ebp)
c0005e48:	8b 45 f8             	mov    -0x8(%ebp),%eax
c0005e4b:	83 c4 10             	add    $0x10,%esp
c0005e4e:	5b                   	pop    %ebx
c0005e4f:	5d                   	pop    %ebp
c0005e50:	c3                   	ret    

c0005e51 <open>:
c0005e51:	55                   	push   %ebp
c0005e52:	89 e5                	mov    %esp,%ebp
c0005e54:	53                   	push   %ebx
c0005e55:	83 ec 14             	sub    $0x14,%esp
c0005e58:	e8 7b c1 ff ff       	call   c0001fd8 <__x86.get_pc_thunk.ax>
c0005e5d:	05 a3 c1 00 00       	add    $0xc1a3,%eax
c0005e62:	8b 45 0c             	mov    0xc(%ebp),%eax
c0005e65:	88 45 e8             	mov    %al,-0x18(%ebp)
c0005e68:	b8 09 00 00 00       	mov    $0x9,%eax
c0005e6d:	8b 55 08             	mov    0x8(%ebp),%edx
c0005e70:	0f b6 4d e8          	movzbl -0x18(%ebp),%ecx
c0005e74:	89 d3                	mov    %edx,%ebx
c0005e76:	cd 80                	int    $0x80
c0005e78:	89 45 f8             	mov    %eax,-0x8(%ebp)
c0005e7b:	8b 45 f8             	mov    -0x8(%ebp),%eax
c0005e7e:	83 c4 14             	add    $0x14,%esp
c0005e81:	5b                   	pop    %ebx
c0005e82:	5d                   	pop    %ebp
c0005e83:	c3                   	ret    

c0005e84 <close>:
c0005e84:	55                   	push   %ebp
c0005e85:	89 e5                	mov    %esp,%ebp
c0005e87:	53                   	push   %ebx
c0005e88:	83 ec 10             	sub    $0x10,%esp
c0005e8b:	e8 48 c1 ff ff       	call   c0001fd8 <__x86.get_pc_thunk.ax>
c0005e90:	05 70 c1 00 00       	add    $0xc170,%eax
c0005e95:	b8 0a 00 00 00       	mov    $0xa,%eax
c0005e9a:	8b 55 08             	mov    0x8(%ebp),%edx
c0005e9d:	89 d3                	mov    %edx,%ebx
c0005e9f:	cd 80                	int    $0x80
c0005ea1:	89 45 f8             	mov    %eax,-0x8(%ebp)
c0005ea4:	8b 45 f8             	mov    -0x8(%ebp),%eax
c0005ea7:	83 c4 10             	add    $0x10,%esp
c0005eaa:	5b                   	pop    %ebx
c0005eab:	5d                   	pop    %ebp
c0005eac:	c3                   	ret    

c0005ead <lseek>:
c0005ead:	55                   	push   %ebp
c0005eae:	89 e5                	mov    %esp,%ebp
c0005eb0:	53                   	push   %ebx
c0005eb1:	83 ec 14             	sub    $0x14,%esp
c0005eb4:	e8 1f c1 ff ff       	call   c0001fd8 <__x86.get_pc_thunk.ax>
c0005eb9:	05 47 c1 00 00       	add    $0xc147,%eax
c0005ebe:	8b 45 10             	mov    0x10(%ebp),%eax
c0005ec1:	88 45 e8             	mov    %al,-0x18(%ebp)
c0005ec4:	b8 0b 00 00 00       	mov    $0xb,%eax
c0005ec9:	8b 5d 08             	mov    0x8(%ebp),%ebx
c0005ecc:	8b 4d 0c             	mov    0xc(%ebp),%ecx
c0005ecf:	0f b6 55 e8          	movzbl -0x18(%ebp),%edx
c0005ed3:	cd 80                	int    $0x80
c0005ed5:	89 45 f8             	mov    %eax,-0x8(%ebp)
c0005ed8:	8b 45 f8             	mov    -0x8(%ebp),%eax
c0005edb:	83 c4 14             	add    $0x14,%esp
c0005ede:	5b                   	pop    %ebx
c0005edf:	5d                   	pop    %ebp
c0005ee0:	c3                   	ret    

c0005ee1 <unlink>:
c0005ee1:	55                   	push   %ebp
c0005ee2:	89 e5                	mov    %esp,%ebp
c0005ee4:	53                   	push   %ebx
c0005ee5:	83 ec 10             	sub    $0x10,%esp
c0005ee8:	e8 eb c0 ff ff       	call   c0001fd8 <__x86.get_pc_thunk.ax>
c0005eed:	05 13 c1 00 00       	add    $0xc113,%eax
c0005ef2:	b8 0c 00 00 00       	mov    $0xc,%eax
c0005ef7:	8b 55 08             	mov    0x8(%ebp),%edx
c0005efa:	89 d3                	mov    %edx,%ebx
c0005efc:	cd 80                	int    $0x80
c0005efe:	89 45 f8             	mov    %eax,-0x8(%ebp)
c0005f01:	8b 45 f8             	mov    -0x8(%ebp),%eax
c0005f04:	83 c4 10             	add    $0x10,%esp
c0005f07:	5b                   	pop    %ebx
c0005f08:	5d                   	pop    %ebp
c0005f09:	c3                   	ret    

c0005f0a <mkdir>:
c0005f0a:	55                   	push   %ebp
c0005f0b:	89 e5                	mov    %esp,%ebp
c0005f0d:	53                   	push   %ebx
c0005f0e:	83 ec 10             	sub    $0x10,%esp
c0005f11:	e8 c2 c0 ff ff       	call   c0001fd8 <__x86.get_pc_thunk.ax>
c0005f16:	05 ea c0 00 00       	add    $0xc0ea,%eax
c0005f1b:	b8 0d 00 00 00       	mov    $0xd,%eax
c0005f20:	8b 55 08             	mov    0x8(%ebp),%edx
c0005f23:	89 d3                	mov    %edx,%ebx
c0005f25:	cd 80                	int    $0x80
c0005f27:	89 45 f8             	mov    %eax,-0x8(%ebp)
c0005f2a:	8b 45 f8             	mov    -0x8(%ebp),%eax
c0005f2d:	83 c4 10             	add    $0x10,%esp
c0005f30:	5b                   	pop    %ebx
c0005f31:	5d                   	pop    %ebp
c0005f32:	c3                   	ret    

c0005f33 <opendir>:
c0005f33:	55                   	push   %ebp
c0005f34:	89 e5                	mov    %esp,%ebp
c0005f36:	53                   	push   %ebx
c0005f37:	83 ec 10             	sub    $0x10,%esp
c0005f3a:	e8 99 c0 ff ff       	call   c0001fd8 <__x86.get_pc_thunk.ax>
c0005f3f:	05 c1 c0 00 00       	add    $0xc0c1,%eax
c0005f44:	b8 0e 00 00 00       	mov    $0xe,%eax
c0005f49:	8b 55 08             	mov    0x8(%ebp),%edx
c0005f4c:	89 d3                	mov    %edx,%ebx
c0005f4e:	cd 80                	int    $0x80
c0005f50:	89 45 f8             	mov    %eax,-0x8(%ebp)
c0005f53:	8b 45 f8             	mov    -0x8(%ebp),%eax
c0005f56:	83 c4 10             	add    $0x10,%esp
c0005f59:	5b                   	pop    %ebx
c0005f5a:	5d                   	pop    %ebp
c0005f5b:	c3                   	ret    

c0005f5c <closedir>:
c0005f5c:	55                   	push   %ebp
c0005f5d:	89 e5                	mov    %esp,%ebp
c0005f5f:	53                   	push   %ebx
c0005f60:	83 ec 10             	sub    $0x10,%esp
c0005f63:	e8 70 c0 ff ff       	call   c0001fd8 <__x86.get_pc_thunk.ax>
c0005f68:	05 98 c0 00 00       	add    $0xc098,%eax
c0005f6d:	b8 0f 00 00 00       	mov    $0xf,%eax
c0005f72:	8b 55 08             	mov    0x8(%ebp),%edx
c0005f75:	89 d3                	mov    %edx,%ebx
c0005f77:	cd 80                	int    $0x80
c0005f79:	89 45 f8             	mov    %eax,-0x8(%ebp)
c0005f7c:	8b 45 f8             	mov    -0x8(%ebp),%eax
c0005f7f:	83 c4 10             	add    $0x10,%esp
c0005f82:	5b                   	pop    %ebx
c0005f83:	5d                   	pop    %ebp
c0005f84:	c3                   	ret    

c0005f85 <rmdir>:
c0005f85:	55                   	push   %ebp
c0005f86:	89 e5                	mov    %esp,%ebp
c0005f88:	53                   	push   %ebx
c0005f89:	83 ec 10             	sub    $0x10,%esp
c0005f8c:	e8 47 c0 ff ff       	call   c0001fd8 <__x86.get_pc_thunk.ax>
c0005f91:	05 6f c0 00 00       	add    $0xc06f,%eax
c0005f96:	b8 11 00 00 00       	mov    $0x11,%eax
c0005f9b:	8b 55 08             	mov    0x8(%ebp),%edx
c0005f9e:	89 d3                	mov    %edx,%ebx
c0005fa0:	cd 80                	int    $0x80
c0005fa2:	89 45 f8             	mov    %eax,-0x8(%ebp)
c0005fa5:	8b 45 f8             	mov    -0x8(%ebp),%eax
c0005fa8:	83 c4 10             	add    $0x10,%esp
c0005fab:	5b                   	pop    %ebx
c0005fac:	5d                   	pop    %ebp
c0005fad:	c3                   	ret    

c0005fae <readdir>:
c0005fae:	55                   	push   %ebp
c0005faf:	89 e5                	mov    %esp,%ebp
c0005fb1:	53                   	push   %ebx
c0005fb2:	83 ec 10             	sub    $0x10,%esp
c0005fb5:	e8 1e c0 ff ff       	call   c0001fd8 <__x86.get_pc_thunk.ax>
c0005fba:	05 46 c0 00 00       	add    $0xc046,%eax
c0005fbf:	b8 12 00 00 00       	mov    $0x12,%eax
c0005fc4:	8b 55 08             	mov    0x8(%ebp),%edx
c0005fc7:	89 d3                	mov    %edx,%ebx
c0005fc9:	cd 80                	int    $0x80
c0005fcb:	89 45 f8             	mov    %eax,-0x8(%ebp)
c0005fce:	8b 45 f8             	mov    -0x8(%ebp),%eax
c0005fd1:	83 c4 10             	add    $0x10,%esp
c0005fd4:	5b                   	pop    %ebx
c0005fd5:	5d                   	pop    %ebp
c0005fd6:	c3                   	ret    

c0005fd7 <rewinddir>:
c0005fd7:	55                   	push   %ebp
c0005fd8:	89 e5                	mov    %esp,%ebp
c0005fda:	53                   	push   %ebx
c0005fdb:	83 ec 10             	sub    $0x10,%esp
c0005fde:	e8 f5 bf ff ff       	call   c0001fd8 <__x86.get_pc_thunk.ax>
c0005fe3:	05 1d c0 00 00       	add    $0xc01d,%eax
c0005fe8:	b8 13 00 00 00       	mov    $0x13,%eax
c0005fed:	8b 55 08             	mov    0x8(%ebp),%edx
c0005ff0:	89 d3                	mov    %edx,%ebx
c0005ff2:	cd 80                	int    $0x80
c0005ff4:	89 45 f8             	mov    %eax,-0x8(%ebp)
c0005ff7:	90                   	nop
c0005ff8:	83 c4 10             	add    $0x10,%esp
c0005ffb:	5b                   	pop    %ebx
c0005ffc:	5d                   	pop    %ebp
c0005ffd:	c3                   	ret    

c0005ffe <stat>:
c0005ffe:	55                   	push   %ebp
c0005fff:	89 e5                	mov    %esp,%ebp
c0006001:	53                   	push   %ebx
c0006002:	83 ec 10             	sub    $0x10,%esp
c0006005:	e8 ce bf ff ff       	call   c0001fd8 <__x86.get_pc_thunk.ax>
c000600a:	05 f6 bf 00 00       	add    $0xbff6,%eax
c000600f:	b8 14 00 00 00       	mov    $0x14,%eax
c0006014:	8b 55 08             	mov    0x8(%ebp),%edx
c0006017:	8b 4d 0c             	mov    0xc(%ebp),%ecx
c000601a:	89 d3                	mov    %edx,%ebx
c000601c:	cd 80                	int    $0x80
c000601e:	89 45 f8             	mov    %eax,-0x8(%ebp)
c0006021:	8b 45 f8             	mov    -0x8(%ebp),%eax
c0006024:	83 c4 10             	add    $0x10,%esp
c0006027:	5b                   	pop    %ebx
c0006028:	5d                   	pop    %ebp
c0006029:	c3                   	ret    

c000602a <chdir>:
c000602a:	55                   	push   %ebp
c000602b:	89 e5                	mov    %esp,%ebp
c000602d:	53                   	push   %ebx
c000602e:	83 ec 10             	sub    $0x10,%esp
c0006031:	e8 a2 bf ff ff       	call   c0001fd8 <__x86.get_pc_thunk.ax>
c0006036:	05 ca bf 00 00       	add    $0xbfca,%eax
c000603b:	b8 10 00 00 00       	mov    $0x10,%eax
c0006040:	8b 55 08             	mov    0x8(%ebp),%edx
c0006043:	89 d3                	mov    %edx,%ebx
c0006045:	cd 80                	int    $0x80
c0006047:	89 45 f8             	mov    %eax,-0x8(%ebp)
c000604a:	8b 45 f8             	mov    -0x8(%ebp),%eax
c000604d:	83 c4 10             	add    $0x10,%esp
c0006050:	5b                   	pop    %ebx
c0006051:	5d                   	pop    %ebp
c0006052:	c3                   	ret    

c0006053 <ps>:
c0006053:	55                   	push   %ebp
c0006054:	89 e5                	mov    %esp,%ebp
c0006056:	83 ec 10             	sub    $0x10,%esp
c0006059:	e8 7a bf ff ff       	call   c0001fd8 <__x86.get_pc_thunk.ax>
c000605e:	05 a2 bf 00 00       	add    $0xbfa2,%eax
c0006063:	b8 15 00 00 00       	mov    $0x15,%eax
c0006068:	cd 80                	int    $0x80
c000606a:	89 45 fc             	mov    %eax,-0x4(%ebp)
c000606d:	90                   	nop
c000606e:	c9                   	leave  
c000606f:	c3                   	ret    

c0006070 <execv>:
c0006070:	55                   	push   %ebp
c0006071:	89 e5                	mov    %esp,%ebp
c0006073:	53                   	push   %ebx
c0006074:	83 ec 10             	sub    $0x10,%esp
c0006077:	e8 5c bf ff ff       	call   c0001fd8 <__x86.get_pc_thunk.ax>
c000607c:	05 84 bf 00 00       	add    $0xbf84,%eax
c0006081:	b8 16 00 00 00       	mov    $0x16,%eax
c0006086:	8b 55 08             	mov    0x8(%ebp),%edx
c0006089:	8b 4d 0c             	mov    0xc(%ebp),%ecx
c000608c:	89 d3                	mov    %edx,%ebx
c000608e:	cd 80                	int    $0x80
c0006090:	89 45 f8             	mov    %eax,-0x8(%ebp)
c0006093:	8b 45 f8             	mov    -0x8(%ebp),%eax
c0006096:	83 c4 10             	add    $0x10,%esp
c0006099:	5b                   	pop    %ebx
c000609a:	5d                   	pop    %ebp
c000609b:	c3                   	ret    

c000609c <itoa>:
c000609c:	55                   	push   %ebp
c000609d:	89 e5                	mov    %esp,%ebp
c000609f:	53                   	push   %ebx
c00060a0:	83 ec 24             	sub    $0x24,%esp
c00060a3:	e8 30 bf ff ff       	call   c0001fd8 <__x86.get_pc_thunk.ax>
c00060a8:	05 58 bf 00 00       	add    $0xbf58,%eax
c00060ad:	8b 45 10             	mov    0x10(%ebp),%eax
c00060b0:	88 45 e4             	mov    %al,-0x1c(%ebp)
c00060b3:	0f b6 4d e4          	movzbl -0x1c(%ebp),%ecx
c00060b7:	8b 45 08             	mov    0x8(%ebp),%eax
c00060ba:	ba 00 00 00 00       	mov    $0x0,%edx
c00060bf:	f7 f1                	div    %ecx
c00060c1:	89 55 f4             	mov    %edx,-0xc(%ebp)
c00060c4:	0f b6 5d e4          	movzbl -0x1c(%ebp),%ebx
c00060c8:	8b 45 08             	mov    0x8(%ebp),%eax
c00060cb:	ba 00 00 00 00       	mov    $0x0,%edx
c00060d0:	f7 f3                	div    %ebx
c00060d2:	89 45 f0             	mov    %eax,-0x10(%ebp)
c00060d5:	83 7d f0 00          	cmpl   $0x0,-0x10(%ebp)
c00060d9:	74 16                	je     c00060f1 <itoa+0x55>
c00060db:	0f b6 45 e4          	movzbl -0x1c(%ebp),%eax
c00060df:	83 ec 04             	sub    $0x4,%esp
c00060e2:	50                   	push   %eax
c00060e3:	ff 75 0c             	pushl  0xc(%ebp)
c00060e6:	ff 75 f0             	pushl  -0x10(%ebp)
c00060e9:	e8 ae ff ff ff       	call   c000609c <itoa>
c00060ee:	83 c4 10             	add    $0x10,%esp
c00060f1:	83 7d f4 09          	cmpl   $0x9,-0xc(%ebp)
c00060f5:	77 19                	ja     c0006110 <itoa+0x74>
c00060f7:	8b 45 f4             	mov    -0xc(%ebp),%eax
c00060fa:	8d 58 30             	lea    0x30(%eax),%ebx
c00060fd:	8b 45 0c             	mov    0xc(%ebp),%eax
c0006100:	8b 00                	mov    (%eax),%eax
c0006102:	8d 48 01             	lea    0x1(%eax),%ecx
c0006105:	8b 55 0c             	mov    0xc(%ebp),%edx
c0006108:	89 0a                	mov    %ecx,(%edx)
c000610a:	89 da                	mov    %ebx,%edx
c000610c:	88 10                	mov    %dl,(%eax)
c000610e:	eb 17                	jmp    c0006127 <itoa+0x8b>
c0006110:	8b 45 f4             	mov    -0xc(%ebp),%eax
c0006113:	8d 58 37             	lea    0x37(%eax),%ebx
c0006116:	8b 45 0c             	mov    0xc(%ebp),%eax
c0006119:	8b 00                	mov    (%eax),%eax
c000611b:	8d 48 01             	lea    0x1(%eax),%ecx
c000611e:	8b 55 0c             	mov    0xc(%ebp),%edx
c0006121:	89 0a                	mov    %ecx,(%edx)
c0006123:	89 da                	mov    %ebx,%edx
c0006125:	88 10                	mov    %dl,(%eax)
c0006127:	90                   	nop
c0006128:	8b 5d fc             	mov    -0x4(%ebp),%ebx
c000612b:	c9                   	leave  
c000612c:	c3                   	ret    

c000612d <vsprintf>:
c000612d:	55                   	push   %ebp
c000612e:	89 e5                	mov    %esp,%ebp
c0006130:	53                   	push   %ebx
c0006131:	83 ec 24             	sub    $0x24,%esp
c0006134:	e8 bc b8 ff ff       	call   c00019f5 <__x86.get_pc_thunk.bx>
c0006139:	81 c3 c7 be 00 00    	add    $0xbec7,%ebx
c000613f:	8b 45 08             	mov    0x8(%ebp),%eax
c0006142:	89 45 e4             	mov    %eax,-0x1c(%ebp)
c0006145:	8b 45 0c             	mov    0xc(%ebp),%eax
c0006148:	89 45 f4             	mov    %eax,-0xc(%ebp)
c000614b:	8b 45 f4             	mov    -0xc(%ebp),%eax
c000614e:	0f b6 00             	movzbl (%eax),%eax
c0006151:	88 45 f3             	mov    %al,-0xd(%ebp)
c0006154:	e9 43 01 00 00       	jmp    c000629c <vsprintf+0x16f>
c0006159:	80 7d f3 25          	cmpb   $0x25,-0xd(%ebp)
c000615d:	74 21                	je     c0006180 <vsprintf+0x53>
c000615f:	8b 45 e4             	mov    -0x1c(%ebp),%eax
c0006162:	8d 50 01             	lea    0x1(%eax),%edx
c0006165:	89 55 e4             	mov    %edx,-0x1c(%ebp)
c0006168:	0f b6 55 f3          	movzbl -0xd(%ebp),%edx
c000616c:	88 10                	mov    %dl,(%eax)
c000616e:	83 45 f4 01          	addl   $0x1,-0xc(%ebp)
c0006172:	8b 45 f4             	mov    -0xc(%ebp),%eax
c0006175:	0f b6 00             	movzbl (%eax),%eax
c0006178:	88 45 f3             	mov    %al,-0xd(%ebp)
c000617b:	e9 1c 01 00 00       	jmp    c000629c <vsprintf+0x16f>
c0006180:	83 45 f4 01          	addl   $0x1,-0xc(%ebp)
c0006184:	8b 45 f4             	mov    -0xc(%ebp),%eax
c0006187:	0f b6 00             	movzbl (%eax),%eax
c000618a:	88 45 f3             	mov    %al,-0xd(%ebp)
c000618d:	0f be 45 f3          	movsbl -0xd(%ebp),%eax
c0006191:	83 f8 64             	cmp    $0x64,%eax
c0006194:	0f 84 be 00 00 00    	je     c0006258 <vsprintf+0x12b>
c000619a:	83 f8 64             	cmp    $0x64,%eax
c000619d:	7f 0e                	jg     c00061ad <vsprintf+0x80>
c000619f:	83 f8 63             	cmp    $0x63,%eax
c00061a2:	0f 84 8c 00 00 00    	je     c0006234 <vsprintf+0x107>
c00061a8:	e9 ef 00 00 00       	jmp    c000629c <vsprintf+0x16f>
c00061ad:	83 f8 73             	cmp    $0x73,%eax
c00061b0:	74 0a                	je     c00061bc <vsprintf+0x8f>
c00061b2:	83 f8 78             	cmp    $0x78,%eax
c00061b5:	74 4d                	je     c0006204 <vsprintf+0xd7>
c00061b7:	e9 e0 00 00 00       	jmp    c000629c <vsprintf+0x16f>
c00061bc:	83 45 10 04          	addl   $0x4,0x10(%ebp)
c00061c0:	8b 45 10             	mov    0x10(%ebp),%eax
c00061c3:	8b 00                	mov    (%eax),%eax
c00061c5:	89 45 e8             	mov    %eax,-0x18(%ebp)
c00061c8:	8b 45 e4             	mov    -0x1c(%ebp),%eax
c00061cb:	83 ec 08             	sub    $0x8,%esp
c00061ce:	ff 75 e8             	pushl  -0x18(%ebp)
c00061d1:	50                   	push   %eax
c00061d2:	e8 a6 cc ff ff       	call   c0002e7d <strcpy>
c00061d7:	83 c4 10             	add    $0x10,%esp
c00061da:	83 ec 0c             	sub    $0xc,%esp
c00061dd:	ff 75 e8             	pushl  -0x18(%ebp)
c00061e0:	e8 d2 cc ff ff       	call   c0002eb7 <strlen>
c00061e5:	83 c4 10             	add    $0x10,%esp
c00061e8:	89 c2                	mov    %eax,%edx
c00061ea:	8b 45 e4             	mov    -0x1c(%ebp),%eax
c00061ed:	01 d0                	add    %edx,%eax
c00061ef:	89 45 e4             	mov    %eax,-0x1c(%ebp)
c00061f2:	83 45 f4 01          	addl   $0x1,-0xc(%ebp)
c00061f6:	8b 45 f4             	mov    -0xc(%ebp),%eax
c00061f9:	0f b6 00             	movzbl (%eax),%eax
c00061fc:	88 45 f3             	mov    %al,-0xd(%ebp)
c00061ff:	e9 98 00 00 00       	jmp    c000629c <vsprintf+0x16f>
c0006204:	83 45 10 04          	addl   $0x4,0x10(%ebp)
c0006208:	8b 45 10             	mov    0x10(%ebp),%eax
c000620b:	8b 00                	mov    (%eax),%eax
c000620d:	89 45 ec             	mov    %eax,-0x14(%ebp)
c0006210:	8b 45 ec             	mov    -0x14(%ebp),%eax
c0006213:	83 ec 04             	sub    $0x4,%esp
c0006216:	6a 10                	push   $0x10
c0006218:	8d 55 e4             	lea    -0x1c(%ebp),%edx
c000621b:	52                   	push   %edx
c000621c:	50                   	push   %eax
c000621d:	e8 7a fe ff ff       	call   c000609c <itoa>
c0006222:	83 c4 10             	add    $0x10,%esp
c0006225:	83 45 f4 01          	addl   $0x1,-0xc(%ebp)
c0006229:	8b 45 f4             	mov    -0xc(%ebp),%eax
c000622c:	0f b6 00             	movzbl (%eax),%eax
c000622f:	88 45 f3             	mov    %al,-0xd(%ebp)
c0006232:	eb 68                	jmp    c000629c <vsprintf+0x16f>
c0006234:	83 45 10 04          	addl   $0x4,0x10(%ebp)
c0006238:	8b 45 e4             	mov    -0x1c(%ebp),%eax
c000623b:	8d 50 01             	lea    0x1(%eax),%edx
c000623e:	89 55 e4             	mov    %edx,-0x1c(%ebp)
c0006241:	8b 55 10             	mov    0x10(%ebp),%edx
c0006244:	0f b6 12             	movzbl (%edx),%edx
c0006247:	88 10                	mov    %dl,(%eax)
c0006249:	83 45 f4 01          	addl   $0x1,-0xc(%ebp)
c000624d:	8b 45 f4             	mov    -0xc(%ebp),%eax
c0006250:	0f b6 00             	movzbl (%eax),%eax
c0006253:	88 45 f3             	mov    %al,-0xd(%ebp)
c0006256:	eb 44                	jmp    c000629c <vsprintf+0x16f>
c0006258:	83 45 10 04          	addl   $0x4,0x10(%ebp)
c000625c:	8b 45 10             	mov    0x10(%ebp),%eax
c000625f:	8b 00                	mov    (%eax),%eax
c0006261:	89 45 ec             	mov    %eax,-0x14(%ebp)
c0006264:	83 7d ec 00          	cmpl   $0x0,-0x14(%ebp)
c0006268:	79 0f                	jns    c0006279 <vsprintf+0x14c>
c000626a:	f7 5d ec             	negl   -0x14(%ebp)
c000626d:	8b 45 e4             	mov    -0x1c(%ebp),%eax
c0006270:	8d 50 01             	lea    0x1(%eax),%edx
c0006273:	89 55 e4             	mov    %edx,-0x1c(%ebp)
c0006276:	c6 00 2d             	movb   $0x2d,(%eax)
c0006279:	8b 45 ec             	mov    -0x14(%ebp),%eax
c000627c:	83 ec 04             	sub    $0x4,%esp
c000627f:	6a 0a                	push   $0xa
c0006281:	8d 55 e4             	lea    -0x1c(%ebp),%edx
c0006284:	52                   	push   %edx
c0006285:	50                   	push   %eax
c0006286:	e8 11 fe ff ff       	call   c000609c <itoa>
c000628b:	83 c4 10             	add    $0x10,%esp
c000628e:	83 45 f4 01          	addl   $0x1,-0xc(%ebp)
c0006292:	8b 45 f4             	mov    -0xc(%ebp),%eax
c0006295:	0f b6 00             	movzbl (%eax),%eax
c0006298:	88 45 f3             	mov    %al,-0xd(%ebp)
c000629b:	90                   	nop
c000629c:	80 7d f3 00          	cmpb   $0x0,-0xd(%ebp)
c00062a0:	0f 85 b3 fe ff ff    	jne    c0006159 <vsprintf+0x2c>
c00062a6:	83 ec 0c             	sub    $0xc,%esp
c00062a9:	ff 75 08             	pushl  0x8(%ebp)
c00062ac:	e8 06 cc ff ff       	call   c0002eb7 <strlen>
c00062b1:	83 c4 10             	add    $0x10,%esp
c00062b4:	8b 5d fc             	mov    -0x4(%ebp),%ebx
c00062b7:	c9                   	leave  
c00062b8:	c3                   	ret    

c00062b9 <printf>:
c00062b9:	55                   	push   %ebp
c00062ba:	89 e5                	mov    %esp,%ebp
c00062bc:	57                   	push   %edi
c00062bd:	53                   	push   %ebx
c00062be:	81 ec 10 04 00 00    	sub    $0x410,%esp
c00062c4:	e8 2c b7 ff ff       	call   c00019f5 <__x86.get_pc_thunk.bx>
c00062c9:	81 c3 37 bd 00 00    	add    $0xbd37,%ebx
c00062cf:	8d 45 08             	lea    0x8(%ebp),%eax
c00062d2:	89 45 f4             	mov    %eax,-0xc(%ebp)
c00062d5:	8d 95 f4 fb ff ff    	lea    -0x40c(%ebp),%edx
c00062db:	b8 00 00 00 00       	mov    $0x0,%eax
c00062e0:	b9 00 01 00 00       	mov    $0x100,%ecx
c00062e5:	89 d7                	mov    %edx,%edi
c00062e7:	f3 ab                	rep stos %eax,%es:(%edi)
c00062e9:	8b 45 08             	mov    0x8(%ebp),%eax
c00062ec:	83 ec 04             	sub    $0x4,%esp
c00062ef:	ff 75 f4             	pushl  -0xc(%ebp)
c00062f2:	50                   	push   %eax
c00062f3:	8d 85 f4 fb ff ff    	lea    -0x40c(%ebp),%eax
c00062f9:	50                   	push   %eax
c00062fa:	e8 2e fe ff ff       	call   c000612d <vsprintf>
c00062ff:	83 c4 10             	add    $0x10,%esp
c0006302:	c7 45 f4 00 00 00 00 	movl   $0x0,-0xc(%ebp)
c0006309:	83 ec 0c             	sub    $0xc,%esp
c000630c:	8d 85 f4 fb ff ff    	lea    -0x40c(%ebp),%eax
c0006312:	50                   	push   %eax
c0006313:	e8 9f cb ff ff       	call   c0002eb7 <strlen>
c0006318:	83 c4 10             	add    $0x10,%esp
c000631b:	83 ec 04             	sub    $0x4,%esp
c000631e:	50                   	push   %eax
c000631f:	8d 85 f4 fb ff ff    	lea    -0x40c(%ebp),%eax
c0006325:	50                   	push   %eax
c0006326:	6a 01                	push   $0x1
c0006328:	e8 e4 f9 ff ff       	call   c0005d11 <write>
c000632d:	83 c4 10             	add    $0x10,%esp
c0006330:	8d 65 f8             	lea    -0x8(%ebp),%esp
c0006333:	5b                   	pop    %ebx
c0006334:	5f                   	pop    %edi
c0006335:	5d                   	pop    %ebp
c0006336:	c3                   	ret    

c0006337 <sprintf>:
c0006337:	55                   	push   %ebp
c0006338:	89 e5                	mov    %esp,%ebp
c000633a:	83 ec 18             	sub    $0x18,%esp
c000633d:	e8 96 bc ff ff       	call   c0001fd8 <__x86.get_pc_thunk.ax>
c0006342:	05 be bc 00 00       	add    $0xbcbe,%eax
c0006347:	8d 45 0c             	lea    0xc(%ebp),%eax
c000634a:	89 45 f4             	mov    %eax,-0xc(%ebp)
c000634d:	8b 45 0c             	mov    0xc(%ebp),%eax
c0006350:	83 ec 04             	sub    $0x4,%esp
c0006353:	ff 75 f4             	pushl  -0xc(%ebp)
c0006356:	50                   	push   %eax
c0006357:	ff 75 08             	pushl  0x8(%ebp)
c000635a:	e8 ce fd ff ff       	call   c000612d <vsprintf>
c000635f:	83 c4 10             	add    $0x10,%esp
c0006362:	89 45 f0             	mov    %eax,-0x10(%ebp)
c0006365:	c7 45 f4 00 00 00 00 	movl   $0x0,-0xc(%ebp)
c000636c:	8b 45 f0             	mov    -0x10(%ebp),%eax
c000636f:	c9                   	leave  
c0006370:	c3                   	ret    

c0006371 <printk>:
c0006371:	55                   	push   %ebp
c0006372:	89 e5                	mov    %esp,%ebp
c0006374:	57                   	push   %edi
c0006375:	53                   	push   %ebx
c0006376:	81 ec 10 04 00 00    	sub    $0x410,%esp
c000637c:	e8 74 b6 ff ff       	call   c00019f5 <__x86.get_pc_thunk.bx>
c0006381:	81 c3 7f bc 00 00    	add    $0xbc7f,%ebx
c0006387:	8d 45 08             	lea    0x8(%ebp),%eax
c000638a:	89 45 f4             	mov    %eax,-0xc(%ebp)
c000638d:	8d 95 f4 fb ff ff    	lea    -0x40c(%ebp),%edx
c0006393:	b8 00 00 00 00       	mov    $0x0,%eax
c0006398:	b9 00 01 00 00       	mov    $0x100,%ecx
c000639d:	89 d7                	mov    %edx,%edi
c000639f:	f3 ab                	rep stos %eax,%es:(%edi)
c00063a1:	8b 45 08             	mov    0x8(%ebp),%eax
c00063a4:	83 ec 04             	sub    $0x4,%esp
c00063a7:	ff 75 f4             	pushl  -0xc(%ebp)
c00063aa:	50                   	push   %eax
c00063ab:	8d 85 f4 fb ff ff    	lea    -0x40c(%ebp),%eax
c00063b1:	50                   	push   %eax
c00063b2:	e8 76 fd ff ff       	call   c000612d <vsprintf>
c00063b7:	83 c4 10             	add    $0x10,%esp
c00063ba:	c7 45 f4 00 00 00 00 	movl   $0x0,-0xc(%ebp)
c00063c1:	83 ec 0c             	sub    $0xc,%esp
c00063c4:	8d 85 f4 fb ff ff    	lea    -0x40c(%ebp),%eax
c00063ca:	50                   	push   %eax
c00063cb:	e8 40 ec ff ff       	call   c0005010 <console_put_str>
c00063d0:	83 c4 10             	add    $0x10,%esp
c00063d3:	90                   	nop
c00063d4:	8d 65 f8             	lea    -0x8(%ebp),%esp
c00063d7:	5b                   	pop    %ebx
c00063d8:	5f                   	pop    %edi
c00063d9:	5d                   	pop    %ebp
c00063da:	c3                   	ret    

c00063db <outb>:
c00063db:	55                   	push   %ebp
c00063dc:	89 e5                	mov    %esp,%ebp
c00063de:	83 ec 08             	sub    $0x8,%esp
c00063e1:	e8 f2 bb ff ff       	call   c0001fd8 <__x86.get_pc_thunk.ax>
c00063e6:	05 1a bc 00 00       	add    $0xbc1a,%eax
c00063eb:	8b 55 08             	mov    0x8(%ebp),%edx
c00063ee:	8b 45 0c             	mov    0xc(%ebp),%eax
c00063f1:	66 89 55 fc          	mov    %dx,-0x4(%ebp)
c00063f5:	88 45 f8             	mov    %al,-0x8(%ebp)
c00063f8:	0f b6 45 f8          	movzbl -0x8(%ebp),%eax
c00063fc:	0f b7 55 fc          	movzwl -0x4(%ebp),%edx
c0006400:	ee                   	out    %al,(%dx)
c0006401:	90                   	nop
c0006402:	c9                   	leave  
c0006403:	c3                   	ret    

c0006404 <outsw>:
c0006404:	55                   	push   %ebp
c0006405:	89 e5                	mov    %esp,%ebp
c0006407:	56                   	push   %esi
c0006408:	53                   	push   %ebx
c0006409:	83 ec 04             	sub    $0x4,%esp
c000640c:	e8 c7 bb ff ff       	call   c0001fd8 <__x86.get_pc_thunk.ax>
c0006411:	05 ef bb 00 00       	add    $0xbbef,%eax
c0006416:	8b 45 08             	mov    0x8(%ebp),%eax
c0006419:	66 89 45 f4          	mov    %ax,-0xc(%ebp)
c000641d:	0f b7 55 f4          	movzwl -0xc(%ebp),%edx
c0006421:	8b 4d 0c             	mov    0xc(%ebp),%ecx
c0006424:	8b 45 10             	mov    0x10(%ebp),%eax
c0006427:	89 cb                	mov    %ecx,%ebx
c0006429:	89 de                	mov    %ebx,%esi
c000642b:	89 c1                	mov    %eax,%ecx
c000642d:	fc                   	cld    
c000642e:	66 f3 6f             	rep outsw %ds:(%esi),(%dx)
c0006431:	89 c8                	mov    %ecx,%eax
c0006433:	89 f3                	mov    %esi,%ebx
c0006435:	89 5d 0c             	mov    %ebx,0xc(%ebp)
c0006438:	89 45 10             	mov    %eax,0x10(%ebp)
c000643b:	90                   	nop
c000643c:	83 c4 04             	add    $0x4,%esp
c000643f:	5b                   	pop    %ebx
c0006440:	5e                   	pop    %esi
c0006441:	5d                   	pop    %ebp
c0006442:	c3                   	ret    

c0006443 <inb>:
c0006443:	55                   	push   %ebp
c0006444:	89 e5                	mov    %esp,%ebp
c0006446:	83 ec 14             	sub    $0x14,%esp
c0006449:	e8 8a bb ff ff       	call   c0001fd8 <__x86.get_pc_thunk.ax>
c000644e:	05 b2 bb 00 00       	add    $0xbbb2,%eax
c0006453:	8b 45 08             	mov    0x8(%ebp),%eax
c0006456:	66 89 45 ec          	mov    %ax,-0x14(%ebp)
c000645a:	0f b7 45 ec          	movzwl -0x14(%ebp),%eax
c000645e:	89 c2                	mov    %eax,%edx
c0006460:	ec                   	in     (%dx),%al
c0006461:	88 45 ff             	mov    %al,-0x1(%ebp)
c0006464:	0f b6 45 ff          	movzbl -0x1(%ebp),%eax
c0006468:	c9                   	leave  
c0006469:	c3                   	ret    

c000646a <insw>:
c000646a:	55                   	push   %ebp
c000646b:	89 e5                	mov    %esp,%ebp
c000646d:	57                   	push   %edi
c000646e:	53                   	push   %ebx
c000646f:	83 ec 04             	sub    $0x4,%esp
c0006472:	e8 61 bb ff ff       	call   c0001fd8 <__x86.get_pc_thunk.ax>
c0006477:	05 89 bb 00 00       	add    $0xbb89,%eax
c000647c:	8b 45 08             	mov    0x8(%ebp),%eax
c000647f:	66 89 45 f4          	mov    %ax,-0xc(%ebp)
c0006483:	0f b7 55 f4          	movzwl -0xc(%ebp),%edx
c0006487:	8b 4d 0c             	mov    0xc(%ebp),%ecx
c000648a:	8b 45 10             	mov    0x10(%ebp),%eax
c000648d:	89 cb                	mov    %ecx,%ebx
c000648f:	89 df                	mov    %ebx,%edi
c0006491:	89 c1                	mov    %eax,%ecx
c0006493:	fc                   	cld    
c0006494:	66 f3 6d             	rep insw (%dx),%es:(%edi)
c0006497:	89 c8                	mov    %ecx,%eax
c0006499:	89 fb                	mov    %edi,%ebx
c000649b:	89 5d 0c             	mov    %ebx,0xc(%ebp)
c000649e:	89 45 10             	mov    %eax,0x10(%ebp)
c00064a1:	90                   	nop
c00064a2:	83 c4 04             	add    $0x4,%esp
c00064a5:	5b                   	pop    %ebx
c00064a6:	5f                   	pop    %edi
c00064a7:	5d                   	pop    %ebp
c00064a8:	c3                   	ret    

c00064a9 <select_disk>:
c00064a9:	55                   	push   %ebp
c00064aa:	89 e5                	mov    %esp,%ebp
c00064ac:	83 ec 10             	sub    $0x10,%esp
c00064af:	e8 24 bb ff ff       	call   c0001fd8 <__x86.get_pc_thunk.ax>
c00064b4:	05 4c bb 00 00       	add    $0xbb4c,%eax
c00064b9:	c6 45 ff e0          	movb   $0xe0,-0x1(%ebp)
c00064bd:	8b 45 08             	mov    0x8(%ebp),%eax
c00064c0:	0f b6 40 0c          	movzbl 0xc(%eax),%eax
c00064c4:	3c 01                	cmp    $0x1,%al
c00064c6:	75 04                	jne    c00064cc <select_disk+0x23>
c00064c8:	80 4d ff 10          	orb    $0x10,-0x1(%ebp)
c00064cc:	0f b6 55 ff          	movzbl -0x1(%ebp),%edx
c00064d0:	8b 45 08             	mov    0x8(%ebp),%eax
c00064d3:	8b 40 08             	mov    0x8(%eax),%eax
c00064d6:	0f b7 40 08          	movzwl 0x8(%eax),%eax
c00064da:	83 c0 06             	add    $0x6,%eax
c00064dd:	0f b7 c0             	movzwl %ax,%eax
c00064e0:	52                   	push   %edx
c00064e1:	50                   	push   %eax
c00064e2:	e8 f4 fe ff ff       	call   c00063db <outb>
c00064e7:	83 c4 08             	add    $0x8,%esp
c00064ea:	90                   	nop
c00064eb:	c9                   	leave  
c00064ec:	c3                   	ret    

c00064ed <select_sector>:
c00064ed:	55                   	push   %ebp
c00064ee:	89 e5                	mov    %esp,%ebp
c00064f0:	83 ec 14             	sub    $0x14,%esp
c00064f3:	e8 e0 ba ff ff       	call   c0001fd8 <__x86.get_pc_thunk.ax>
c00064f8:	05 08 bb 00 00       	add    $0xbb08,%eax
c00064fd:	8b 45 10             	mov    0x10(%ebp),%eax
c0006500:	88 45 ec             	mov    %al,-0x14(%ebp)
c0006503:	8b 45 08             	mov    0x8(%ebp),%eax
c0006506:	8b 40 08             	mov    0x8(%eax),%eax
c0006509:	89 45 fc             	mov    %eax,-0x4(%ebp)
c000650c:	0f b6 55 ec          	movzbl -0x14(%ebp),%edx
c0006510:	8b 45 fc             	mov    -0x4(%ebp),%eax
c0006513:	0f b7 40 08          	movzwl 0x8(%eax),%eax
c0006517:	83 c0 02             	add    $0x2,%eax
c000651a:	0f b7 c0             	movzwl %ax,%eax
c000651d:	52                   	push   %edx
c000651e:	50                   	push   %eax
c000651f:	e8 b7 fe ff ff       	call   c00063db <outb>
c0006524:	83 c4 08             	add    $0x8,%esp
c0006527:	8b 45 0c             	mov    0xc(%ebp),%eax
c000652a:	0f b6 d0             	movzbl %al,%edx
c000652d:	8b 45 fc             	mov    -0x4(%ebp),%eax
c0006530:	0f b7 40 08          	movzwl 0x8(%eax),%eax
c0006534:	83 c0 03             	add    $0x3,%eax
c0006537:	0f b7 c0             	movzwl %ax,%eax
c000653a:	52                   	push   %edx
c000653b:	50                   	push   %eax
c000653c:	e8 9a fe ff ff       	call   c00063db <outb>
c0006541:	83 c4 08             	add    $0x8,%esp
c0006544:	8b 45 0c             	mov    0xc(%ebp),%eax
c0006547:	c1 e8 08             	shr    $0x8,%eax
c000654a:	0f b6 d0             	movzbl %al,%edx
c000654d:	8b 45 fc             	mov    -0x4(%ebp),%eax
c0006550:	0f b7 40 08          	movzwl 0x8(%eax),%eax
c0006554:	83 c0 04             	add    $0x4,%eax
c0006557:	0f b7 c0             	movzwl %ax,%eax
c000655a:	52                   	push   %edx
c000655b:	50                   	push   %eax
c000655c:	e8 7a fe ff ff       	call   c00063db <outb>
c0006561:	83 c4 08             	add    $0x8,%esp
c0006564:	8b 45 0c             	mov    0xc(%ebp),%eax
c0006567:	c1 e8 10             	shr    $0x10,%eax
c000656a:	0f b6 d0             	movzbl %al,%edx
c000656d:	8b 45 fc             	mov    -0x4(%ebp),%eax
c0006570:	0f b7 40 08          	movzwl 0x8(%eax),%eax
c0006574:	83 c0 05             	add    $0x5,%eax
c0006577:	0f b7 c0             	movzwl %ax,%eax
c000657a:	52                   	push   %edx
c000657b:	50                   	push   %eax
c000657c:	e8 5a fe ff ff       	call   c00063db <outb>
c0006581:	83 c4 08             	add    $0x8,%esp
c0006584:	8b 45 08             	mov    0x8(%ebp),%eax
c0006587:	0f b6 40 0c          	movzbl 0xc(%eax),%eax
c000658b:	3c 01                	cmp    $0x1,%al
c000658d:	75 07                	jne    c0006596 <select_sector+0xa9>
c000658f:	ba f0 ff ff ff       	mov    $0xfffffff0,%edx
c0006594:	eb 05                	jmp    c000659b <select_sector+0xae>
c0006596:	ba e0 ff ff ff       	mov    $0xffffffe0,%edx
c000659b:	8b 45 0c             	mov    0xc(%ebp),%eax
c000659e:	c1 e8 18             	shr    $0x18,%eax
c00065a1:	09 d0                	or     %edx,%eax
c00065a3:	0f b6 d0             	movzbl %al,%edx
c00065a6:	8b 45 fc             	mov    -0x4(%ebp),%eax
c00065a9:	0f b7 40 08          	movzwl 0x8(%eax),%eax
c00065ad:	83 c0 06             	add    $0x6,%eax
c00065b0:	0f b7 c0             	movzwl %ax,%eax
c00065b3:	52                   	push   %edx
c00065b4:	50                   	push   %eax
c00065b5:	e8 21 fe ff ff       	call   c00063db <outb>
c00065ba:	83 c4 08             	add    $0x8,%esp
c00065bd:	90                   	nop
c00065be:	c9                   	leave  
c00065bf:	c3                   	ret    

c00065c0 <cmd_out>:
c00065c0:	55                   	push   %ebp
c00065c1:	89 e5                	mov    %esp,%ebp
c00065c3:	83 ec 04             	sub    $0x4,%esp
c00065c6:	e8 0d ba ff ff       	call   c0001fd8 <__x86.get_pc_thunk.ax>
c00065cb:	05 35 ba 00 00       	add    $0xba35,%eax
c00065d0:	8b 45 0c             	mov    0xc(%ebp),%eax
c00065d3:	88 45 fc             	mov    %al,-0x4(%ebp)
c00065d6:	8b 45 08             	mov    0x8(%ebp),%eax
c00065d9:	c7 40 28 01 00 00 00 	movl   $0x1,0x28(%eax)
c00065e0:	0f b6 55 fc          	movzbl -0x4(%ebp),%edx
c00065e4:	8b 45 08             	mov    0x8(%ebp),%eax
c00065e7:	0f b7 40 08          	movzwl 0x8(%eax),%eax
c00065eb:	83 c0 07             	add    $0x7,%eax
c00065ee:	0f b7 c0             	movzwl %ax,%eax
c00065f1:	52                   	push   %edx
c00065f2:	50                   	push   %eax
c00065f3:	e8 e3 fd ff ff       	call   c00063db <outb>
c00065f8:	83 c4 08             	add    $0x8,%esp
c00065fb:	90                   	nop
c00065fc:	c9                   	leave  
c00065fd:	c3                   	ret    

c00065fe <read_from_sector>:
c00065fe:	55                   	push   %ebp
c00065ff:	89 e5                	mov    %esp,%ebp
c0006601:	83 ec 14             	sub    $0x14,%esp
c0006604:	e8 cf b9 ff ff       	call   c0001fd8 <__x86.get_pc_thunk.ax>
c0006609:	05 f7 b9 00 00       	add    $0xb9f7,%eax
c000660e:	8b 45 10             	mov    0x10(%ebp),%eax
c0006611:	88 45 ec             	mov    %al,-0x14(%ebp)
c0006614:	80 7d ec 00          	cmpb   $0x0,-0x14(%ebp)
c0006618:	75 09                	jne    c0006623 <read_from_sector+0x25>
c000661a:	c7 45 fc 00 00 02 00 	movl   $0x20000,-0x4(%ebp)
c0006621:	eb 0a                	jmp    c000662d <read_from_sector+0x2f>
c0006623:	0f b6 45 ec          	movzbl -0x14(%ebp),%eax
c0006627:	c1 e0 09             	shl    $0x9,%eax
c000662a:	89 45 fc             	mov    %eax,-0x4(%ebp)
c000662d:	8b 45 fc             	mov    -0x4(%ebp),%eax
c0006630:	d1 e8                	shr    %eax
c0006632:	89 c2                	mov    %eax,%edx
c0006634:	8b 45 08             	mov    0x8(%ebp),%eax
c0006637:	8b 40 08             	mov    0x8(%eax),%eax
c000663a:	0f b7 40 08          	movzwl 0x8(%eax),%eax
c000663e:	0f b7 c0             	movzwl %ax,%eax
c0006641:	52                   	push   %edx
c0006642:	ff 75 0c             	pushl  0xc(%ebp)
c0006645:	50                   	push   %eax
c0006646:	e8 1f fe ff ff       	call   c000646a <insw>
c000664b:	83 c4 0c             	add    $0xc,%esp
c000664e:	90                   	nop
c000664f:	c9                   	leave  
c0006650:	c3                   	ret    

c0006651 <writer2sector>:
c0006651:	55                   	push   %ebp
c0006652:	89 e5                	mov    %esp,%ebp
c0006654:	83 ec 14             	sub    $0x14,%esp
c0006657:	e8 7c b9 ff ff       	call   c0001fd8 <__x86.get_pc_thunk.ax>
c000665c:	05 a4 b9 00 00       	add    $0xb9a4,%eax
c0006661:	8b 45 10             	mov    0x10(%ebp),%eax
c0006664:	88 45 ec             	mov    %al,-0x14(%ebp)
c0006667:	80 7d ec 00          	cmpb   $0x0,-0x14(%ebp)
c000666b:	75 09                	jne    c0006676 <writer2sector+0x25>
c000666d:	c7 45 fc 00 00 02 00 	movl   $0x20000,-0x4(%ebp)
c0006674:	eb 0a                	jmp    c0006680 <writer2sector+0x2f>
c0006676:	0f b6 45 ec          	movzbl -0x14(%ebp),%eax
c000667a:	c1 e0 09             	shl    $0x9,%eax
c000667d:	89 45 fc             	mov    %eax,-0x4(%ebp)
c0006680:	8b 45 fc             	mov    -0x4(%ebp),%eax
c0006683:	d1 e8                	shr    %eax
c0006685:	89 c2                	mov    %eax,%edx
c0006687:	8b 45 08             	mov    0x8(%ebp),%eax
c000668a:	8b 40 08             	mov    0x8(%eax),%eax
c000668d:	0f b7 40 08          	movzwl 0x8(%eax),%eax
c0006691:	0f b7 c0             	movzwl %ax,%eax
c0006694:	52                   	push   %edx
c0006695:	ff 75 0c             	pushl  0xc(%ebp)
c0006698:	50                   	push   %eax
c0006699:	e8 66 fd ff ff       	call   c0006404 <outsw>
c000669e:	83 c4 0c             	add    $0xc,%esp
c00066a1:	90                   	nop
c00066a2:	c9                   	leave  
c00066a3:	c3                   	ret    

c00066a4 <busy_wait>:
c00066a4:	55                   	push   %ebp
c00066a5:	89 e5                	mov    %esp,%ebp
c00066a7:	53                   	push   %ebx
c00066a8:	83 ec 14             	sub    $0x14,%esp
c00066ab:	e8 45 b3 ff ff       	call   c00019f5 <__x86.get_pc_thunk.bx>
c00066b0:	81 c3 50 b9 00 00    	add    $0xb950,%ebx
c00066b6:	8b 45 08             	mov    0x8(%ebp),%eax
c00066b9:	8b 40 08             	mov    0x8(%eax),%eax
c00066bc:	89 45 f0             	mov    %eax,-0x10(%ebp)
c00066bf:	66 c7 45 f6 30 75    	movw   $0x7530,-0xa(%ebp)
c00066c5:	eb 45                	jmp    c000670c <busy_wait+0x68>
c00066c7:	8b 45 f0             	mov    -0x10(%ebp),%eax
c00066ca:	0f b7 40 08          	movzwl 0x8(%eax),%eax
c00066ce:	83 c0 07             	add    $0x7,%eax
c00066d1:	0f b7 c0             	movzwl %ax,%eax
c00066d4:	50                   	push   %eax
c00066d5:	e8 69 fd ff ff       	call   c0006443 <inb>
c00066da:	83 c4 04             	add    $0x4,%esp
c00066dd:	84 c0                	test   %al,%al
c00066df:	78 1e                	js     c00066ff <busy_wait+0x5b>
c00066e1:	8b 45 f0             	mov    -0x10(%ebp),%eax
c00066e4:	0f b7 40 08          	movzwl 0x8(%eax),%eax
c00066e8:	83 c0 07             	add    $0x7,%eax
c00066eb:	0f b7 c0             	movzwl %ax,%eax
c00066ee:	50                   	push   %eax
c00066ef:	e8 4f fd ff ff       	call   c0006443 <inb>
c00066f4:	83 c4 04             	add    $0x4,%esp
c00066f7:	0f b6 c0             	movzbl %al,%eax
c00066fa:	83 e0 08             	and    $0x8,%eax
c00066fd:	eb 1e                	jmp    c000671d <busy_wait+0x79>
c00066ff:	83 ec 0c             	sub    $0xc,%esp
c0006702:	6a 0a                	push   $0xa
c0006704:	e8 cc b9 ff ff       	call   c00020d5 <mtime_sleep>
c0006709:	83 c4 10             	add    $0x10,%esp
c000670c:	66 83 6d f6 01       	subw   $0x1,-0xa(%ebp)
c0006711:	66 83 7d f6 00       	cmpw   $0x0,-0xa(%ebp)
c0006716:	75 af                	jne    c00066c7 <busy_wait+0x23>
c0006718:	b8 00 00 00 00       	mov    $0x0,%eax
c000671d:	8b 5d fc             	mov    -0x4(%ebp),%ebx
c0006720:	c9                   	leave  
c0006721:	c3                   	ret    

c0006722 <ide_read>:
c0006722:	55                   	push   %ebp
c0006723:	89 e5                	mov    %esp,%ebp
c0006725:	53                   	push   %ebx
c0006726:	83 ec 54             	sub    $0x54,%esp
c0006729:	e8 c7 b2 ff ff       	call   c00019f5 <__x86.get_pc_thunk.bx>
c000672e:	81 c3 d2 b8 00 00    	add    $0xb8d2,%ebx
c0006734:	8b 45 08             	mov    0x8(%ebp),%eax
c0006737:	8b 40 08             	mov    0x8(%eax),%eax
c000673a:	83 c0 0c             	add    $0xc,%eax
c000673d:	83 ec 0c             	sub    $0xc,%esp
c0006740:	50                   	push   %eax
c0006741:	e8 97 e7 ff ff       	call   c0004edd <lock_acquire>
c0006746:	83 c4 10             	add    $0x10,%esp
c0006749:	83 ec 0c             	sub    $0xc,%esp
c000674c:	ff 75 08             	pushl  0x8(%ebp)
c000674f:	e8 55 fd ff ff       	call   c00064a9 <select_disk>
c0006754:	83 c4 10             	add    $0x10,%esp
c0006757:	c7 45 f0 00 00 00 00 	movl   $0x0,-0x10(%ebp)
c000675e:	e9 da 00 00 00       	jmp    c000683d <ide_read+0x11b>
c0006763:	8b 45 f0             	mov    -0x10(%ebp),%eax
c0006766:	05 00 01 00 00       	add    $0x100,%eax
c000676b:	39 45 14             	cmp    %eax,0x14(%ebp)
c000676e:	72 09                	jb     c0006779 <ide_read+0x57>
c0006770:	c7 45 f4 00 01 00 00 	movl   $0x100,-0xc(%ebp)
c0006777:	eb 09                	jmp    c0006782 <ide_read+0x60>
c0006779:	8b 45 14             	mov    0x14(%ebp),%eax
c000677c:	2b 45 f0             	sub    -0x10(%ebp),%eax
c000677f:	89 45 f4             	mov    %eax,-0xc(%ebp)
c0006782:	8b 45 f4             	mov    -0xc(%ebp),%eax
c0006785:	0f b6 c0             	movzbl %al,%eax
c0006788:	8b 4d 0c             	mov    0xc(%ebp),%ecx
c000678b:	8b 55 f0             	mov    -0x10(%ebp),%edx
c000678e:	01 ca                	add    %ecx,%edx
c0006790:	83 ec 04             	sub    $0x4,%esp
c0006793:	50                   	push   %eax
c0006794:	52                   	push   %edx
c0006795:	ff 75 08             	pushl  0x8(%ebp)
c0006798:	e8 50 fd ff ff       	call   c00064ed <select_sector>
c000679d:	83 c4 10             	add    $0x10,%esp
c00067a0:	8b 45 08             	mov    0x8(%ebp),%eax
c00067a3:	8b 40 08             	mov    0x8(%eax),%eax
c00067a6:	83 ec 08             	sub    $0x8,%esp
c00067a9:	6a 20                	push   $0x20
c00067ab:	50                   	push   %eax
c00067ac:	e8 0f fe ff ff       	call   c00065c0 <cmd_out>
c00067b1:	83 c4 10             	add    $0x10,%esp
c00067b4:	8b 45 08             	mov    0x8(%ebp),%eax
c00067b7:	8b 40 08             	mov    0x8(%eax),%eax
c00067ba:	83 c0 2c             	add    $0x2c,%eax
c00067bd:	83 ec 0c             	sub    $0xc,%esp
c00067c0:	50                   	push   %eax
c00067c1:	e8 f1 e5 ff ff       	call   c0004db7 <sema_down>
c00067c6:	83 c4 10             	add    $0x10,%esp
c00067c9:	83 ec 0c             	sub    $0xc,%esp
c00067cc:	ff 75 08             	pushl  0x8(%ebp)
c00067cf:	e8 d0 fe ff ff       	call   c00066a4 <busy_wait>
c00067d4:	83 c4 10             	add    $0x10,%esp
c00067d7:	85 c0                	test   %eax,%eax
c00067d9:	75 39                	jne    c0006814 <ide_read+0xf2>
c00067db:	8b 45 08             	mov    0x8(%ebp),%eax
c00067de:	ff 75 0c             	pushl  0xc(%ebp)
c00067e1:	50                   	push   %eax
c00067e2:	8d 83 90 b7 ff ff    	lea    -0x4870(%ebx),%eax
c00067e8:	50                   	push   %eax
c00067e9:	8d 45 b0             	lea    -0x50(%ebp),%eax
c00067ec:	50                   	push   %eax
c00067ed:	e8 45 fb ff ff       	call   c0006337 <sprintf>
c00067f2:	83 c4 10             	add    $0x10,%esp
c00067f5:	8d 45 b0             	lea    -0x50(%ebp),%eax
c00067f8:	50                   	push   %eax
c00067f9:	8d 83 2c b8 ff ff    	lea    -0x47d4(%ebx),%eax
c00067ff:	50                   	push   %eax
c0006800:	68 a5 00 00 00       	push   $0xa5
c0006805:	8d 83 b0 b7 ff ff    	lea    -0x4850(%ebx),%eax
c000680b:	50                   	push   %eax
c000680c:	e8 e0 c0 ff ff       	call   c00028f1 <panic_spin>
c0006811:	83 c4 10             	add    $0x10,%esp
c0006814:	8b 45 f4             	mov    -0xc(%ebp),%eax
c0006817:	0f b6 c0             	movzbl %al,%eax
c000681a:	8b 55 f0             	mov    -0x10(%ebp),%edx
c000681d:	89 d1                	mov    %edx,%ecx
c000681f:	c1 e1 09             	shl    $0x9,%ecx
c0006822:	8b 55 10             	mov    0x10(%ebp),%edx
c0006825:	01 ca                	add    %ecx,%edx
c0006827:	83 ec 04             	sub    $0x4,%esp
c000682a:	50                   	push   %eax
c000682b:	52                   	push   %edx
c000682c:	ff 75 08             	pushl  0x8(%ebp)
c000682f:	e8 ca fd ff ff       	call   c00065fe <read_from_sector>
c0006834:	83 c4 10             	add    $0x10,%esp
c0006837:	8b 45 f4             	mov    -0xc(%ebp),%eax
c000683a:	01 45 f0             	add    %eax,-0x10(%ebp)
c000683d:	8b 45 f0             	mov    -0x10(%ebp),%eax
c0006840:	3b 45 14             	cmp    0x14(%ebp),%eax
c0006843:	0f 82 1a ff ff ff    	jb     c0006763 <ide_read+0x41>
c0006849:	8b 45 08             	mov    0x8(%ebp),%eax
c000684c:	8b 40 08             	mov    0x8(%eax),%eax
c000684f:	83 c0 0c             	add    $0xc,%eax
c0006852:	83 ec 0c             	sub    $0xc,%esp
c0006855:	50                   	push   %eax
c0006856:	e8 e1 e6 ff ff       	call   c0004f3c <lock_release>
c000685b:	83 c4 10             	add    $0x10,%esp
c000685e:	90                   	nop
c000685f:	8b 5d fc             	mov    -0x4(%ebp),%ebx
c0006862:	c9                   	leave  
c0006863:	c3                   	ret    

c0006864 <ide_write>:
c0006864:	55                   	push   %ebp
c0006865:	89 e5                	mov    %esp,%ebp
c0006867:	53                   	push   %ebx
c0006868:	83 ec 54             	sub    $0x54,%esp
c000686b:	e8 85 b1 ff ff       	call   c00019f5 <__x86.get_pc_thunk.bx>
c0006870:	81 c3 90 b7 00 00    	add    $0xb790,%ebx
c0006876:	8b 45 08             	mov    0x8(%ebp),%eax
c0006879:	8b 40 08             	mov    0x8(%eax),%eax
c000687c:	83 c0 0c             	add    $0xc,%eax
c000687f:	83 ec 0c             	sub    $0xc,%esp
c0006882:	50                   	push   %eax
c0006883:	e8 55 e6 ff ff       	call   c0004edd <lock_acquire>
c0006888:	83 c4 10             	add    $0x10,%esp
c000688b:	83 ec 0c             	sub    $0xc,%esp
c000688e:	ff 75 08             	pushl  0x8(%ebp)
c0006891:	e8 13 fc ff ff       	call   c00064a9 <select_disk>
c0006896:	83 c4 10             	add    $0x10,%esp
c0006899:	c7 45 f0 00 00 00 00 	movl   $0x0,-0x10(%ebp)
c00068a0:	e9 da 00 00 00       	jmp    c000697f <ide_write+0x11b>
c00068a5:	8b 45 f0             	mov    -0x10(%ebp),%eax
c00068a8:	05 00 01 00 00       	add    $0x100,%eax
c00068ad:	39 45 14             	cmp    %eax,0x14(%ebp)
c00068b0:	72 09                	jb     c00068bb <ide_write+0x57>
c00068b2:	c7 45 f4 00 01 00 00 	movl   $0x100,-0xc(%ebp)
c00068b9:	eb 09                	jmp    c00068c4 <ide_write+0x60>
c00068bb:	8b 45 14             	mov    0x14(%ebp),%eax
c00068be:	2b 45 f0             	sub    -0x10(%ebp),%eax
c00068c1:	89 45 f4             	mov    %eax,-0xc(%ebp)
c00068c4:	8b 45 f4             	mov    -0xc(%ebp),%eax
c00068c7:	0f b6 c0             	movzbl %al,%eax
c00068ca:	8b 4d 0c             	mov    0xc(%ebp),%ecx
c00068cd:	8b 55 f0             	mov    -0x10(%ebp),%edx
c00068d0:	01 ca                	add    %ecx,%edx
c00068d2:	83 ec 04             	sub    $0x4,%esp
c00068d5:	50                   	push   %eax
c00068d6:	52                   	push   %edx
c00068d7:	ff 75 08             	pushl  0x8(%ebp)
c00068da:	e8 0e fc ff ff       	call   c00064ed <select_sector>
c00068df:	83 c4 10             	add    $0x10,%esp
c00068e2:	8b 45 08             	mov    0x8(%ebp),%eax
c00068e5:	8b 40 08             	mov    0x8(%eax),%eax
c00068e8:	83 ec 08             	sub    $0x8,%esp
c00068eb:	6a 30                	push   $0x30
c00068ed:	50                   	push   %eax
c00068ee:	e8 cd fc ff ff       	call   c00065c0 <cmd_out>
c00068f3:	83 c4 10             	add    $0x10,%esp
c00068f6:	83 ec 0c             	sub    $0xc,%esp
c00068f9:	ff 75 08             	pushl  0x8(%ebp)
c00068fc:	e8 a3 fd ff ff       	call   c00066a4 <busy_wait>
c0006901:	83 c4 10             	add    $0x10,%esp
c0006904:	85 c0                	test   %eax,%eax
c0006906:	75 39                	jne    c0006941 <ide_write+0xdd>
c0006908:	8b 45 08             	mov    0x8(%ebp),%eax
c000690b:	ff 75 0c             	pushl  0xc(%ebp)
c000690e:	50                   	push   %eax
c000690f:	8d 83 c0 b7 ff ff    	lea    -0x4840(%ebx),%eax
c0006915:	50                   	push   %eax
c0006916:	8d 45 b0             	lea    -0x50(%ebp),%eax
c0006919:	50                   	push   %eax
c000691a:	e8 18 fa ff ff       	call   c0006337 <sprintf>
c000691f:	83 c4 10             	add    $0x10,%esp
c0006922:	8d 45 b0             	lea    -0x50(%ebp),%eax
c0006925:	50                   	push   %eax
c0006926:	8d 83 38 b8 ff ff    	lea    -0x47c8(%ebx),%eax
c000692c:	50                   	push   %eax
c000692d:	68 c6 00 00 00       	push   $0xc6
c0006932:	8d 83 b0 b7 ff ff    	lea    -0x4850(%ebx),%eax
c0006938:	50                   	push   %eax
c0006939:	e8 b3 bf ff ff       	call   c00028f1 <panic_spin>
c000693e:	83 c4 10             	add    $0x10,%esp
c0006941:	8b 45 f4             	mov    -0xc(%ebp),%eax
c0006944:	0f b6 c0             	movzbl %al,%eax
c0006947:	8b 55 f0             	mov    -0x10(%ebp),%edx
c000694a:	89 d1                	mov    %edx,%ecx
c000694c:	c1 e1 09             	shl    $0x9,%ecx
c000694f:	8b 55 10             	mov    0x10(%ebp),%edx
c0006952:	01 ca                	add    %ecx,%edx
c0006954:	83 ec 04             	sub    $0x4,%esp
c0006957:	50                   	push   %eax
c0006958:	52                   	push   %edx
c0006959:	ff 75 08             	pushl  0x8(%ebp)
c000695c:	e8 f0 fc ff ff       	call   c0006651 <writer2sector>
c0006961:	83 c4 10             	add    $0x10,%esp
c0006964:	8b 45 08             	mov    0x8(%ebp),%eax
c0006967:	8b 40 08             	mov    0x8(%eax),%eax
c000696a:	83 c0 2c             	add    $0x2c,%eax
c000696d:	83 ec 0c             	sub    $0xc,%esp
c0006970:	50                   	push   %eax
c0006971:	e8 41 e4 ff ff       	call   c0004db7 <sema_down>
c0006976:	83 c4 10             	add    $0x10,%esp
c0006979:	8b 45 f4             	mov    -0xc(%ebp),%eax
c000697c:	01 45 f0             	add    %eax,-0x10(%ebp)
c000697f:	8b 45 f0             	mov    -0x10(%ebp),%eax
c0006982:	3b 45 14             	cmp    0x14(%ebp),%eax
c0006985:	0f 82 1a ff ff ff    	jb     c00068a5 <ide_write+0x41>
c000698b:	8b 45 08             	mov    0x8(%ebp),%eax
c000698e:	8b 40 08             	mov    0x8(%eax),%eax
c0006991:	83 c0 0c             	add    $0xc,%eax
c0006994:	83 ec 0c             	sub    $0xc,%esp
c0006997:	50                   	push   %eax
c0006998:	e8 9f e5 ff ff       	call   c0004f3c <lock_release>
c000699d:	83 c4 10             	add    $0x10,%esp
c00069a0:	90                   	nop
c00069a1:	8b 5d fc             	mov    -0x4(%ebp),%ebx
c00069a4:	c9                   	leave  
c00069a5:	c3                   	ret    

c00069a6 <intr_hd_handler>:
c00069a6:	55                   	push   %ebp
c00069a7:	89 e5                	mov    %esp,%ebp
c00069a9:	53                   	push   %ebx
c00069aa:	83 ec 24             	sub    $0x24,%esp
c00069ad:	e8 26 b6 ff ff       	call   c0001fd8 <__x86.get_pc_thunk.ax>
c00069b2:	05 4e b6 00 00       	add    $0xb64e,%eax
c00069b7:	8b 55 08             	mov    0x8(%ebp),%edx
c00069ba:	88 55 e4             	mov    %dl,-0x1c(%ebp)
c00069bd:	0f b6 55 e4          	movzbl -0x1c(%ebp),%edx
c00069c1:	83 ea 2e             	sub    $0x2e,%edx
c00069c4:	88 55 f7             	mov    %dl,-0x9(%ebp)
c00069c7:	0f b6 55 f7          	movzbl -0x9(%ebp),%edx
c00069cb:	69 d2 60 06 00 00    	imul   $0x660,%edx,%edx
c00069d1:	c7 c1 40 33 01 c0    	mov    $0xc0013340,%ecx
c00069d7:	01 ca                	add    %ecx,%edx
c00069d9:	89 55 f0             	mov    %edx,-0x10(%ebp)
c00069dc:	8b 55 f0             	mov    -0x10(%ebp),%edx
c00069df:	8b 52 28             	mov    0x28(%edx),%edx
c00069e2:	85 d2                	test   %edx,%edx
c00069e4:	74 37                	je     c0006a1d <intr_hd_handler+0x77>
c00069e6:	8b 55 f0             	mov    -0x10(%ebp),%edx
c00069e9:	c7 42 28 00 00 00 00 	movl   $0x0,0x28(%edx)
c00069f0:	8b 55 f0             	mov    -0x10(%ebp),%edx
c00069f3:	83 c2 2c             	add    $0x2c,%edx
c00069f6:	83 ec 0c             	sub    $0xc,%esp
c00069f9:	52                   	push   %edx
c00069fa:	89 c3                	mov    %eax,%ebx
c00069fc:	e8 64 e4 ff ff       	call   c0004e65 <sema_up>
c0006a01:	83 c4 10             	add    $0x10,%esp
c0006a04:	8b 45 f0             	mov    -0x10(%ebp),%eax
c0006a07:	0f b7 40 08          	movzwl 0x8(%eax),%eax
c0006a0b:	83 c0 07             	add    $0x7,%eax
c0006a0e:	0f b7 c0             	movzwl %ax,%eax
c0006a11:	83 ec 0c             	sub    $0xc,%esp
c0006a14:	50                   	push   %eax
c0006a15:	e8 29 fa ff ff       	call   c0006443 <inb>
c0006a1a:	83 c4 10             	add    $0x10,%esp
c0006a1d:	90                   	nop
c0006a1e:	8b 5d fc             	mov    -0x4(%ebp),%ebx
c0006a21:	c9                   	leave  
c0006a22:	c3                   	ret    

c0006a23 <swap_pairs_bytes>:
c0006a23:	55                   	push   %ebp
c0006a24:	89 e5                	mov    %esp,%ebp
c0006a26:	83 ec 10             	sub    $0x10,%esp
c0006a29:	e8 aa b5 ff ff       	call   c0001fd8 <__x86.get_pc_thunk.ax>
c0006a2e:	05 d2 b5 00 00       	add    $0xb5d2,%eax
c0006a33:	c7 45 fc 00 00 00 00 	movl   $0x0,-0x4(%ebp)
c0006a3a:	eb 33                	jmp    c0006a6f <swap_pairs_bytes+0x4c>
c0006a3c:	8b 45 08             	mov    0x8(%ebp),%eax
c0006a3f:	8d 50 01             	lea    0x1(%eax),%edx
c0006a42:	89 55 08             	mov    %edx,0x8(%ebp)
c0006a45:	8b 55 fc             	mov    -0x4(%ebp),%edx
c0006a48:	8d 4a 01             	lea    0x1(%edx),%ecx
c0006a4b:	8b 55 0c             	mov    0xc(%ebp),%edx
c0006a4e:	01 ca                	add    %ecx,%edx
c0006a50:	0f b6 00             	movzbl (%eax),%eax
c0006a53:	88 02                	mov    %al,(%edx)
c0006a55:	8b 45 08             	mov    0x8(%ebp),%eax
c0006a58:	8d 50 01             	lea    0x1(%eax),%edx
c0006a5b:	89 55 08             	mov    %edx,0x8(%ebp)
c0006a5e:	8b 4d 0c             	mov    0xc(%ebp),%ecx
c0006a61:	8b 55 fc             	mov    -0x4(%ebp),%edx
c0006a64:	01 ca                	add    %ecx,%edx
c0006a66:	0f b6 00             	movzbl (%eax),%eax
c0006a69:	88 02                	mov    %al,(%edx)
c0006a6b:	83 45 fc 02          	addl   $0x2,-0x4(%ebp)
c0006a6f:	8b 45 fc             	mov    -0x4(%ebp),%eax
c0006a72:	3b 45 10             	cmp    0x10(%ebp),%eax
c0006a75:	72 c5                	jb     c0006a3c <swap_pairs_bytes+0x19>
c0006a77:	8b 55 0c             	mov    0xc(%ebp),%edx
c0006a7a:	8b 45 fc             	mov    -0x4(%ebp),%eax
c0006a7d:	01 d0                	add    %edx,%eax
c0006a7f:	c6 00 00             	movb   $0x0,(%eax)
c0006a82:	90                   	nop
c0006a83:	c9                   	leave  
c0006a84:	c3                   	ret    

c0006a85 <identify_disk>:
c0006a85:	55                   	push   %ebp
c0006a86:	89 e5                	mov    %esp,%ebp
c0006a88:	53                   	push   %ebx
c0006a89:	81 ec 94 02 00 00    	sub    $0x294,%esp
c0006a8f:	e8 61 af ff ff       	call   c00019f5 <__x86.get_pc_thunk.bx>
c0006a94:	81 c3 6c b5 00 00    	add    $0xb56c,%ebx
c0006a9a:	ff 75 08             	pushl  0x8(%ebp)
c0006a9d:	e8 07 fa ff ff       	call   c00064a9 <select_disk>
c0006aa2:	83 c4 04             	add    $0x4,%esp
c0006aa5:	8b 45 08             	mov    0x8(%ebp),%eax
c0006aa8:	8b 40 08             	mov    0x8(%eax),%eax
c0006aab:	68 ec 00 00 00       	push   $0xec
c0006ab0:	50                   	push   %eax
c0006ab1:	e8 0a fb ff ff       	call   c00065c0 <cmd_out>
c0006ab6:	83 c4 08             	add    $0x8,%esp
c0006ab9:	8b 45 08             	mov    0x8(%ebp),%eax
c0006abc:	8b 40 08             	mov    0x8(%eax),%eax
c0006abf:	83 c0 2c             	add    $0x2c,%eax
c0006ac2:	83 ec 0c             	sub    $0xc,%esp
c0006ac5:	50                   	push   %eax
c0006ac6:	e8 ec e2 ff ff       	call   c0004db7 <sema_down>
c0006acb:	83 c4 10             	add    $0x10,%esp
c0006ace:	83 ec 0c             	sub    $0xc,%esp
c0006ad1:	ff 75 08             	pushl  0x8(%ebp)
c0006ad4:	e8 cb fb ff ff       	call   c00066a4 <busy_wait>
c0006ad9:	83 c4 10             	add    $0x10,%esp
c0006adc:	85 c0                	test   %eax,%eax
c0006ade:	75 3f                	jne    c0006b1f <identify_disk+0x9a>
c0006ae0:	8b 45 08             	mov    0x8(%ebp),%eax
c0006ae3:	83 ec 04             	sub    $0x4,%esp
c0006ae6:	50                   	push   %eax
c0006ae7:	8d 83 c0 b7 ff ff    	lea    -0x4840(%ebx),%eax
c0006aed:	50                   	push   %eax
c0006aee:	8d 85 70 fd ff ff    	lea    -0x290(%ebp),%eax
c0006af4:	50                   	push   %eax
c0006af5:	e8 3d f8 ff ff       	call   c0006337 <sprintf>
c0006afa:	83 c4 10             	add    $0x10,%esp
c0006afd:	8d 85 70 fd ff ff    	lea    -0x290(%ebp),%eax
c0006b03:	50                   	push   %eax
c0006b04:	8d 83 44 b8 ff ff    	lea    -0x47bc(%ebx),%eax
c0006b0a:	50                   	push   %eax
c0006b0b:	68 f0 00 00 00       	push   $0xf0
c0006b10:	8d 83 b0 b7 ff ff    	lea    -0x4850(%ebx),%eax
c0006b16:	50                   	push   %eax
c0006b17:	e8 d5 bd ff ff       	call   c00028f1 <panic_spin>
c0006b1c:	83 c4 10             	add    $0x10,%esp
c0006b1f:	83 ec 04             	sub    $0x4,%esp
c0006b22:	6a 01                	push   $0x1
c0006b24:	8d 85 f0 fd ff ff    	lea    -0x210(%ebp),%eax
c0006b2a:	50                   	push   %eax
c0006b2b:	ff 75 08             	pushl  0x8(%ebp)
c0006b2e:	e8 cb fa ff ff       	call   c00065fe <read_from_sector>
c0006b33:	83 c4 10             	add    $0x10,%esp
c0006b36:	c6 45 f7 14          	movb   $0x14,-0x9(%ebp)
c0006b3a:	c6 45 f6 14          	movb   $0x14,-0xa(%ebp)
c0006b3e:	c6 45 f5 36          	movb   $0x36,-0xb(%ebp)
c0006b42:	c6 45 f4 28          	movb   $0x28,-0xc(%ebp)
c0006b46:	0f b6 45 f6          	movzbl -0xa(%ebp),%eax
c0006b4a:	0f b6 55 f7          	movzbl -0x9(%ebp),%edx
c0006b4e:	8d 8d f0 fd ff ff    	lea    -0x210(%ebp),%ecx
c0006b54:	01 ca                	add    %ecx,%edx
c0006b56:	83 ec 04             	sub    $0x4,%esp
c0006b59:	50                   	push   %eax
c0006b5a:	8d 85 b0 fd ff ff    	lea    -0x250(%ebp),%eax
c0006b60:	50                   	push   %eax
c0006b61:	52                   	push   %edx
c0006b62:	e8 bc fe ff ff       	call   c0006a23 <swap_pairs_bytes>
c0006b67:	83 c4 10             	add    $0x10,%esp
c0006b6a:	83 ec 04             	sub    $0x4,%esp
c0006b6d:	6a 40                	push   $0x40
c0006b6f:	6a 00                	push   $0x0
c0006b71:	8d 85 b0 fd ff ff    	lea    -0x250(%ebp),%eax
c0006b77:	50                   	push   %eax
c0006b78:	e8 18 c2 ff ff       	call   c0002d95 <memset>
c0006b7d:	83 c4 10             	add    $0x10,%esp
c0006b80:	0f b6 45 f4          	movzbl -0xc(%ebp),%eax
c0006b84:	0f b6 55 f5          	movzbl -0xb(%ebp),%edx
c0006b88:	8d 8d f0 fd ff ff    	lea    -0x210(%ebp),%ecx
c0006b8e:	01 ca                	add    %ecx,%edx
c0006b90:	83 ec 04             	sub    $0x4,%esp
c0006b93:	50                   	push   %eax
c0006b94:	8d 85 b0 fd ff ff    	lea    -0x250(%ebp),%eax
c0006b9a:	50                   	push   %eax
c0006b9b:	52                   	push   %edx
c0006b9c:	e8 82 fe ff ff       	call   c0006a23 <swap_pairs_bytes>
c0006ba1:	83 c4 10             	add    $0x10,%esp
c0006ba4:	8d 85 f0 fd ff ff    	lea    -0x210(%ebp),%eax
c0006baa:	83 c0 78             	add    $0x78,%eax
c0006bad:	8b 00                	mov    (%eax),%eax
c0006baf:	89 45 f0             	mov    %eax,-0x10(%ebp)
c0006bb2:	90                   	nop
c0006bb3:	8b 5d fc             	mov    -0x4(%ebp),%ebx
c0006bb6:	c9                   	leave  
c0006bb7:	c3                   	ret    

c0006bb8 <partition_scan>:
c0006bb8:	55                   	push   %ebp
c0006bb9:	89 e5                	mov    %esp,%ebp
c0006bbb:	56                   	push   %esi
c0006bbc:	53                   	push   %ebx
c0006bbd:	83 ec 10             	sub    $0x10,%esp
c0006bc0:	e8 30 ae ff ff       	call   c00019f5 <__x86.get_pc_thunk.bx>
c0006bc5:	81 c3 3b b4 00 00    	add    $0xb43b,%ebx
c0006bcb:	83 ec 0c             	sub    $0xc,%esp
c0006bce:	68 00 02 00 00       	push   $0x200
c0006bd3:	e8 af cd ff ff       	call   c0003987 <sys_malloc>
c0006bd8:	83 c4 10             	add    $0x10,%esp
c0006bdb:	89 45 ec             	mov    %eax,-0x14(%ebp)
c0006bde:	6a 01                	push   $0x1
c0006be0:	ff 75 ec             	pushl  -0x14(%ebp)
c0006be3:	ff 75 0c             	pushl  0xc(%ebp)
c0006be6:	ff 75 08             	pushl  0x8(%ebp)
c0006be9:	e8 34 fb ff ff       	call   c0006722 <ide_read>
c0006bee:	83 c4 10             	add    $0x10,%esp
c0006bf1:	c6 45 f7 00          	movb   $0x0,-0x9(%ebp)
c0006bf5:	8b 45 ec             	mov    -0x14(%ebp),%eax
c0006bf8:	05 be 01 00 00       	add    $0x1be,%eax
c0006bfd:	89 45 f0             	mov    %eax,-0x10(%ebp)
c0006c00:	e9 34 02 00 00       	jmp    c0006e39 <partition_scan+0x281>
c0006c05:	8b 45 f0             	mov    -0x10(%ebp),%eax
c0006c08:	0f b6 40 04          	movzbl 0x4(%eax),%eax
c0006c0c:	3c 05                	cmp    $0x5,%al
c0006c0e:	75 52                	jne    c0006c62 <partition_scan+0xaa>
c0006c10:	8b 83 2c 06 00 00    	mov    0x62c(%ebx),%eax
c0006c16:	85 c0                	test   %eax,%eax
c0006c18:	74 22                	je     c0006c3c <partition_scan+0x84>
c0006c1a:	8b 45 f0             	mov    -0x10(%ebp),%eax
c0006c1d:	8b 40 08             	mov    0x8(%eax),%eax
c0006c20:	8b 93 2c 06 00 00    	mov    0x62c(%ebx),%edx
c0006c26:	01 d0                	add    %edx,%eax
c0006c28:	83 ec 08             	sub    $0x8,%esp
c0006c2b:	50                   	push   %eax
c0006c2c:	ff 75 08             	pushl  0x8(%ebp)
c0006c2f:	e8 84 ff ff ff       	call   c0006bb8 <partition_scan>
c0006c34:	83 c4 10             	add    $0x10,%esp
c0006c37:	e9 f9 01 00 00       	jmp    c0006e35 <partition_scan+0x27d>
c0006c3c:	8b 45 f0             	mov    -0x10(%ebp),%eax
c0006c3f:	8b 40 08             	mov    0x8(%eax),%eax
c0006c42:	89 83 2c 06 00 00    	mov    %eax,0x62c(%ebx)
c0006c48:	8b 45 f0             	mov    -0x10(%ebp),%eax
c0006c4b:	8b 40 08             	mov    0x8(%eax),%eax
c0006c4e:	83 ec 08             	sub    $0x8,%esp
c0006c51:	50                   	push   %eax
c0006c52:	ff 75 08             	pushl  0x8(%ebp)
c0006c55:	e8 5e ff ff ff       	call   c0006bb8 <partition_scan>
c0006c5a:	83 c4 10             	add    $0x10,%esp
c0006c5d:	e9 d3 01 00 00       	jmp    c0006e35 <partition_scan+0x27d>
c0006c62:	8b 45 f0             	mov    -0x10(%ebp),%eax
c0006c65:	0f b6 40 04          	movzbl 0x4(%eax),%eax
c0006c69:	84 c0                	test   %al,%al
c0006c6b:	0f 84 c4 01 00 00    	je     c0006e35 <partition_scan+0x27d>
c0006c71:	83 7d 0c 00          	cmpl   $0x0,0xc(%ebp)
c0006c75:	0f 85 d3 00 00 00    	jne    c0006d4e <partition_scan+0x196>
c0006c7b:	8b 45 f0             	mov    -0x10(%ebp),%eax
c0006c7e:	8b 50 08             	mov    0x8(%eax),%edx
c0006c81:	0f b6 83 30 06 00 00 	movzbl 0x630(%ebx),%eax
c0006c88:	0f b6 c8             	movzbl %al,%ecx
c0006c8b:	8b 45 0c             	mov    0xc(%ebp),%eax
c0006c8e:	01 c2                	add    %eax,%edx
c0006c90:	8b 45 08             	mov    0x8(%ebp),%eax
c0006c93:	c1 e1 06             	shl    $0x6,%ecx
c0006c96:	01 c8                	add    %ecx,%eax
c0006c98:	83 c0 10             	add    $0x10,%eax
c0006c9b:	89 10                	mov    %edx,(%eax)
c0006c9d:	0f b6 83 30 06 00 00 	movzbl 0x630(%ebx),%eax
c0006ca4:	0f b6 c8             	movzbl %al,%ecx
c0006ca7:	8b 45 f0             	mov    -0x10(%ebp),%eax
c0006caa:	8b 40 0c             	mov    0xc(%eax),%eax
c0006cad:	8b 55 08             	mov    0x8(%ebp),%edx
c0006cb0:	c1 e1 06             	shl    $0x6,%ecx
c0006cb3:	01 ca                	add    %ecx,%edx
c0006cb5:	83 c2 14             	add    $0x14,%edx
c0006cb8:	89 02                	mov    %eax,(%edx)
c0006cba:	0f b6 83 30 06 00 00 	movzbl 0x630(%ebx),%eax
c0006cc1:	0f b6 d0             	movzbl %al,%edx
c0006cc4:	8b 45 08             	mov    0x8(%ebp),%eax
c0006cc7:	c1 e2 06             	shl    $0x6,%edx
c0006cca:	01 d0                	add    %edx,%eax
c0006ccc:	8d 50 18             	lea    0x18(%eax),%edx
c0006ccf:	8b 45 08             	mov    0x8(%ebp),%eax
c0006cd2:	89 02                	mov    %eax,(%edx)
c0006cd4:	0f b6 83 30 06 00 00 	movzbl 0x630(%ebx),%eax
c0006cdb:	0f b6 c0             	movzbl %al,%eax
c0006cde:	c1 e0 06             	shl    $0x6,%eax
c0006ce1:	8d 50 10             	lea    0x10(%eax),%edx
c0006ce4:	8b 45 08             	mov    0x8(%ebp),%eax
c0006ce7:	01 d0                	add    %edx,%eax
c0006ce9:	83 c0 0c             	add    $0xc,%eax
c0006cec:	83 ec 08             	sub    $0x8,%esp
c0006cef:	50                   	push   %eax
c0006cf0:	c7 c0 00 40 01 c0    	mov    $0xc0014000,%eax
c0006cf6:	50                   	push   %eax
c0006cf7:	e8 9d bd ff ff       	call   c0002a99 <list_append>
c0006cfc:	83 c4 10             	add    $0x10,%esp
c0006cff:	0f b6 83 30 06 00 00 	movzbl 0x630(%ebx),%eax
c0006d06:	0f b6 c0             	movzbl %al,%eax
c0006d09:	8d 48 01             	lea    0x1(%eax),%ecx
c0006d0c:	8b 45 08             	mov    0x8(%ebp),%eax
c0006d0f:	0f b6 93 30 06 00 00 	movzbl 0x630(%ebx),%edx
c0006d16:	0f b6 d2             	movzbl %dl,%edx
c0006d19:	c1 e2 06             	shl    $0x6,%edx
c0006d1c:	8d 72 20             	lea    0x20(%edx),%esi
c0006d1f:	8b 55 08             	mov    0x8(%ebp),%edx
c0006d22:	01 f2                	add    %esi,%edx
c0006d24:	83 c2 04             	add    $0x4,%edx
c0006d27:	51                   	push   %ecx
c0006d28:	50                   	push   %eax
c0006d29:	8d 83 e2 b7 ff ff    	lea    -0x481e(%ebx),%eax
c0006d2f:	50                   	push   %eax
c0006d30:	52                   	push   %edx
c0006d31:	e8 01 f6 ff ff       	call   c0006337 <sprintf>
c0006d36:	83 c4 10             	add    $0x10,%esp
c0006d39:	0f b6 83 30 06 00 00 	movzbl 0x630(%ebx),%eax
c0006d40:	83 c0 01             	add    $0x1,%eax
c0006d43:	88 83 30 06 00 00    	mov    %al,0x630(%ebx)
c0006d49:	e9 e7 00 00 00       	jmp    c0006e35 <partition_scan+0x27d>
c0006d4e:	8b 45 f0             	mov    -0x10(%ebp),%eax
c0006d51:	8b 50 08             	mov    0x8(%eax),%edx
c0006d54:	0f b6 83 31 06 00 00 	movzbl 0x631(%ebx),%eax
c0006d5b:	0f b6 c8             	movzbl %al,%ecx
c0006d5e:	8b 45 0c             	mov    0xc(%ebp),%eax
c0006d61:	01 c2                	add    %eax,%edx
c0006d63:	8b 45 08             	mov    0x8(%ebp),%eax
c0006d66:	c1 e1 06             	shl    $0x6,%ecx
c0006d69:	01 c8                	add    %ecx,%eax
c0006d6b:	05 10 01 00 00       	add    $0x110,%eax
c0006d70:	89 10                	mov    %edx,(%eax)
c0006d72:	0f b6 83 31 06 00 00 	movzbl 0x631(%ebx),%eax
c0006d79:	0f b6 c8             	movzbl %al,%ecx
c0006d7c:	8b 45 f0             	mov    -0x10(%ebp),%eax
c0006d7f:	8b 40 0c             	mov    0xc(%eax),%eax
c0006d82:	8b 55 08             	mov    0x8(%ebp),%edx
c0006d85:	c1 e1 06             	shl    $0x6,%ecx
c0006d88:	01 ca                	add    %ecx,%edx
c0006d8a:	81 c2 14 01 00 00    	add    $0x114,%edx
c0006d90:	89 02                	mov    %eax,(%edx)
c0006d92:	0f b6 83 31 06 00 00 	movzbl 0x631(%ebx),%eax
c0006d99:	0f b6 d0             	movzbl %al,%edx
c0006d9c:	8b 45 08             	mov    0x8(%ebp),%eax
c0006d9f:	c1 e2 06             	shl    $0x6,%edx
c0006da2:	01 d0                	add    %edx,%eax
c0006da4:	8d 90 18 01 00 00    	lea    0x118(%eax),%edx
c0006daa:	8b 45 08             	mov    0x8(%ebp),%eax
c0006dad:	89 02                	mov    %eax,(%edx)
c0006daf:	0f b6 83 31 06 00 00 	movzbl 0x631(%ebx),%eax
c0006db6:	0f b6 c0             	movzbl %al,%eax
c0006db9:	c1 e0 06             	shl    $0x6,%eax
c0006dbc:	8d 90 10 01 00 00    	lea    0x110(%eax),%edx
c0006dc2:	8b 45 08             	mov    0x8(%ebp),%eax
c0006dc5:	01 d0                	add    %edx,%eax
c0006dc7:	83 c0 0c             	add    $0xc,%eax
c0006dca:	83 ec 08             	sub    $0x8,%esp
c0006dcd:	50                   	push   %eax
c0006dce:	c7 c0 00 40 01 c0    	mov    $0xc0014000,%eax
c0006dd4:	50                   	push   %eax
c0006dd5:	e8 bf bc ff ff       	call   c0002a99 <list_append>
c0006dda:	83 c4 10             	add    $0x10,%esp
c0006ddd:	0f b6 83 31 06 00 00 	movzbl 0x631(%ebx),%eax
c0006de4:	0f b6 c0             	movzbl %al,%eax
c0006de7:	8d 48 05             	lea    0x5(%eax),%ecx
c0006dea:	8b 45 08             	mov    0x8(%ebp),%eax
c0006ded:	0f b6 93 31 06 00 00 	movzbl 0x631(%ebx),%edx
c0006df4:	0f b6 d2             	movzbl %dl,%edx
c0006df7:	c1 e2 06             	shl    $0x6,%edx
c0006dfa:	8d b2 20 01 00 00    	lea    0x120(%edx),%esi
c0006e00:	8b 55 08             	mov    0x8(%ebp),%edx
c0006e03:	01 f2                	add    %esi,%edx
c0006e05:	83 c2 04             	add    $0x4,%edx
c0006e08:	51                   	push   %ecx
c0006e09:	50                   	push   %eax
c0006e0a:	8d 83 e2 b7 ff ff    	lea    -0x481e(%ebx),%eax
c0006e10:	50                   	push   %eax
c0006e11:	52                   	push   %edx
c0006e12:	e8 20 f5 ff ff       	call   c0006337 <sprintf>
c0006e17:	83 c4 10             	add    $0x10,%esp
c0006e1a:	0f b6 83 31 06 00 00 	movzbl 0x631(%ebx),%eax
c0006e21:	83 c0 01             	add    $0x1,%eax
c0006e24:	88 83 31 06 00 00    	mov    %al,0x631(%ebx)
c0006e2a:	0f b6 83 31 06 00 00 	movzbl 0x631(%ebx),%eax
c0006e31:	3c 07                	cmp    $0x7,%al
c0006e33:	77 26                	ja     c0006e5b <partition_scan+0x2a3>
c0006e35:	83 45 f0 10          	addl   $0x10,-0x10(%ebp)
c0006e39:	0f b6 45 f7          	movzbl -0x9(%ebp),%eax
c0006e3d:	8d 50 01             	lea    0x1(%eax),%edx
c0006e40:	88 55 f7             	mov    %dl,-0x9(%ebp)
c0006e43:	3c 03                	cmp    $0x3,%al
c0006e45:	0f 86 ba fd ff ff    	jbe    c0006c05 <partition_scan+0x4d>
c0006e4b:	83 ec 0c             	sub    $0xc,%esp
c0006e4e:	ff 75 ec             	pushl  -0x14(%ebp)
c0006e51:	e8 b7 d0 ff ff       	call   c0003f0d <sys_free>
c0006e56:	83 c4 10             	add    $0x10,%esp
c0006e59:	eb 01                	jmp    c0006e5c <partition_scan+0x2a4>
c0006e5b:	90                   	nop
c0006e5c:	8d 65 f8             	lea    -0x8(%ebp),%esp
c0006e5f:	5b                   	pop    %ebx
c0006e60:	5e                   	pop    %esi
c0006e61:	5d                   	pop    %ebp
c0006e62:	c3                   	ret    

c0006e63 <partition_info>:
c0006e63:	55                   	push   %ebp
c0006e64:	89 e5                	mov    %esp,%ebp
c0006e66:	83 ec 10             	sub    $0x10,%esp
c0006e69:	e8 6a b1 ff ff       	call   c0001fd8 <__x86.get_pc_thunk.ax>
c0006e6e:	05 92 b1 00 00       	add    $0xb192,%eax
c0006e73:	8b 45 08             	mov    0x8(%ebp),%eax
c0006e76:	83 e8 0c             	sub    $0xc,%eax
c0006e79:	89 45 fc             	mov    %eax,-0x4(%ebp)
c0006e7c:	b8 00 00 00 00       	mov    $0x0,%eax
c0006e81:	c9                   	leave  
c0006e82:	c3                   	ret    

c0006e83 <ide_init>:
c0006e83:	55                   	push   %ebp
c0006e84:	89 e5                	mov    %esp,%ebp
c0006e86:	53                   	push   %ebx
c0006e87:	83 ec 14             	sub    $0x14,%esp
c0006e8a:	e8 66 ab ff ff       	call   c00019f5 <__x86.get_pc_thunk.bx>
c0006e8f:	81 c3 71 b1 00 00    	add    $0xb171,%ebx
c0006e95:	83 ec 0c             	sub    $0xc,%esp
c0006e98:	8d 83 e7 b7 ff ff    	lea    -0x4819(%ebx),%eax
c0006e9e:	50                   	push   %eax
c0006e9f:	e8 cd f4 ff ff       	call   c0006371 <printk>
c0006ea4:	83 c4 10             	add    $0x10,%esp
c0006ea7:	b8 75 04 00 00       	mov    $0x475,%eax
c0006eac:	0f b6 00             	movzbl (%eax),%eax
c0006eaf:	88 45 f5             	mov    %al,-0xb(%ebp)
c0006eb2:	83 ec 0c             	sub    $0xc,%esp
c0006eb5:	c7 c0 00 40 01 c0    	mov    $0xc0014000,%eax
c0006ebb:	50                   	push   %eax
c0006ebc:	e8 24 bb ff ff       	call   c00029e5 <list_init>
c0006ec1:	83 c4 10             	add    $0x10,%esp
c0006ec4:	0f b6 45 f5          	movzbl -0xb(%ebp),%eax
c0006ec8:	83 c0 01             	add    $0x1,%eax
c0006ecb:	89 c2                	mov    %eax,%edx
c0006ecd:	c1 ea 1f             	shr    $0x1f,%edx
c0006ed0:	01 d0                	add    %edx,%eax
c0006ed2:	d1 f8                	sar    %eax
c0006ed4:	89 c2                	mov    %eax,%edx
c0006ed6:	c7 c0 20 33 01 c0    	mov    $0xc0013320,%eax
c0006edc:	88 10                	mov    %dl,(%eax)
c0006ede:	c6 45 f7 00          	movb   $0x0,-0x9(%ebp)
c0006ee2:	c6 45 f6 00          	movb   $0x0,-0xa(%ebp)
c0006ee6:	e9 56 01 00 00       	jmp    c0007041 <ide_init+0x1be>
c0006eeb:	0f b6 45 f7          	movzbl -0x9(%ebp),%eax
c0006eef:	69 c0 60 06 00 00    	imul   $0x660,%eax,%eax
c0006ef5:	c7 c2 40 33 01 c0    	mov    $0xc0013340,%edx
c0006efb:	01 d0                	add    %edx,%eax
c0006efd:	89 45 f0             	mov    %eax,-0x10(%ebp)
c0006f00:	0f b6 55 f7          	movzbl -0x9(%ebp),%edx
c0006f04:	8b 45 f0             	mov    -0x10(%ebp),%eax
c0006f07:	83 ec 04             	sub    $0x4,%esp
c0006f0a:	52                   	push   %edx
c0006f0b:	8d 93 f7 b7 ff ff    	lea    -0x4809(%ebx),%edx
c0006f11:	52                   	push   %edx
c0006f12:	50                   	push   %eax
c0006f13:	e8 1f f4 ff ff       	call   c0006337 <sprintf>
c0006f18:	83 c4 10             	add    $0x10,%esp
c0006f1b:	0f b6 45 f7          	movzbl -0x9(%ebp),%eax
c0006f1f:	85 c0                	test   %eax,%eax
c0006f21:	74 07                	je     c0006f2a <ide_init+0xa7>
c0006f23:	83 f8 01             	cmp    $0x1,%eax
c0006f26:	74 14                	je     c0006f3c <ide_init+0xb9>
c0006f28:	eb 23                	jmp    c0006f4d <ide_init+0xca>
c0006f2a:	8b 45 f0             	mov    -0x10(%ebp),%eax
c0006f2d:	66 c7 40 08 f0 01    	movw   $0x1f0,0x8(%eax)
c0006f33:	8b 45 f0             	mov    -0x10(%ebp),%eax
c0006f36:	c6 40 0a 2e          	movb   $0x2e,0xa(%eax)
c0006f3a:	eb 11                	jmp    c0006f4d <ide_init+0xca>
c0006f3c:	8b 45 f0             	mov    -0x10(%ebp),%eax
c0006f3f:	66 c7 40 08 70 01    	movw   $0x170,0x8(%eax)
c0006f45:	8b 45 f0             	mov    -0x10(%ebp),%eax
c0006f48:	c6 40 0a 2f          	movb   $0x2f,0xa(%eax)
c0006f4c:	90                   	nop
c0006f4d:	8b 45 f0             	mov    -0x10(%ebp),%eax
c0006f50:	c7 40 28 00 00 00 00 	movl   $0x0,0x28(%eax)
c0006f57:	8b 45 f0             	mov    -0x10(%ebp),%eax
c0006f5a:	83 c0 0c             	add    $0xc,%eax
c0006f5d:	83 ec 0c             	sub    $0xc,%esp
c0006f60:	50                   	push   %eax
c0006f61:	e8 17 de ff ff       	call   c0004d7d <lock_init>
c0006f66:	83 c4 10             	add    $0x10,%esp
c0006f69:	8b 45 f0             	mov    -0x10(%ebp),%eax
c0006f6c:	83 c0 2c             	add    $0x2c,%eax
c0006f6f:	83 ec 08             	sub    $0x8,%esp
c0006f72:	6a 00                	push   $0x0
c0006f74:	50                   	push   %eax
c0006f75:	e8 c9 dd ff ff       	call   c0004d43 <sema_init>
c0006f7a:	83 c4 10             	add    $0x10,%esp
c0006f7d:	8b 45 f0             	mov    -0x10(%ebp),%eax
c0006f80:	0f b6 40 0a          	movzbl 0xa(%eax),%eax
c0006f84:	0f b6 c0             	movzbl %al,%eax
c0006f87:	83 ec 08             	sub    $0x8,%esp
c0006f8a:	8d 93 a6 49 ff ff    	lea    -0xb65a(%ebx),%edx
c0006f90:	52                   	push   %edx
c0006f91:	50                   	push   %eax
c0006f92:	e8 18 b0 ff ff       	call   c0001faf <register_handler>
c0006f97:	83 c4 10             	add    $0x10,%esp
c0006f9a:	e9 8a 00 00 00       	jmp    c0007029 <ide_init+0x1a6>
c0006f9f:	0f b6 45 f6          	movzbl -0xa(%ebp),%eax
c0006fa3:	69 c0 10 03 00 00    	imul   $0x310,%eax,%eax
c0006fa9:	8d 50 40             	lea    0x40(%eax),%edx
c0006fac:	8b 45 f0             	mov    -0x10(%ebp),%eax
c0006faf:	01 d0                	add    %edx,%eax
c0006fb1:	89 45 ec             	mov    %eax,-0x14(%ebp)
c0006fb4:	8b 45 ec             	mov    -0x14(%ebp),%eax
c0006fb7:	8b 55 f0             	mov    -0x10(%ebp),%edx
c0006fba:	89 50 08             	mov    %edx,0x8(%eax)
c0006fbd:	8b 45 ec             	mov    -0x14(%ebp),%eax
c0006fc0:	0f b6 55 f6          	movzbl -0xa(%ebp),%edx
c0006fc4:	88 50 0c             	mov    %dl,0xc(%eax)
c0006fc7:	0f b6 45 f7          	movzbl -0x9(%ebp),%eax
c0006fcb:	01 c0                	add    %eax,%eax
c0006fcd:	8d 50 61             	lea    0x61(%eax),%edx
c0006fd0:	0f b6 45 f6          	movzbl -0xa(%ebp),%eax
c0006fd4:	01 c2                	add    %eax,%edx
c0006fd6:	8b 45 ec             	mov    -0x14(%ebp),%eax
c0006fd9:	83 ec 04             	sub    $0x4,%esp
c0006fdc:	52                   	push   %edx
c0006fdd:	8d 93 fd b7 ff ff    	lea    -0x4803(%ebx),%edx
c0006fe3:	52                   	push   %edx
c0006fe4:	50                   	push   %eax
c0006fe5:	e8 4d f3 ff ff       	call   c0006337 <sprintf>
c0006fea:	83 c4 10             	add    $0x10,%esp
c0006fed:	83 ec 0c             	sub    $0xc,%esp
c0006ff0:	ff 75 ec             	pushl  -0x14(%ebp)
c0006ff3:	e8 8d fa ff ff       	call   c0006a85 <identify_disk>
c0006ff8:	83 c4 10             	add    $0x10,%esp
c0006ffb:	80 7d f6 00          	cmpb   $0x0,-0xa(%ebp)
c0006fff:	74 10                	je     c0007011 <ide_init+0x18e>
c0007001:	83 ec 08             	sub    $0x8,%esp
c0007004:	6a 00                	push   $0x0
c0007006:	ff 75 ec             	pushl  -0x14(%ebp)
c0007009:	e8 aa fb ff ff       	call   c0006bb8 <partition_scan>
c000700e:	83 c4 10             	add    $0x10,%esp
c0007011:	c6 83 30 06 00 00 00 	movb   $0x0,0x630(%ebx)
c0007018:	c6 83 31 06 00 00 00 	movb   $0x0,0x631(%ebx)
c000701f:	0f b6 45 f6          	movzbl -0xa(%ebp),%eax
c0007023:	83 c0 01             	add    $0x1,%eax
c0007026:	88 45 f6             	mov    %al,-0xa(%ebp)
c0007029:	80 7d f6 01          	cmpb   $0x1,-0xa(%ebp)
c000702d:	0f 86 6c ff ff ff    	jbe    c0006f9f <ide_init+0x11c>
c0007033:	c6 45 f6 00          	movb   $0x0,-0xa(%ebp)
c0007037:	0f b6 45 f7          	movzbl -0x9(%ebp),%eax
c000703b:	83 c0 01             	add    $0x1,%eax
c000703e:	88 45 f7             	mov    %al,-0x9(%ebp)
c0007041:	c7 c0 20 33 01 c0    	mov    $0xc0013320,%eax
c0007047:	0f b6 00             	movzbl (%eax),%eax
c000704a:	38 45 f7             	cmp    %al,-0x9(%ebp)
c000704d:	0f 82 98 fe ff ff    	jb     c0006eeb <ide_init+0x68>
c0007053:	83 ec 0c             	sub    $0xc,%esp
c0007056:	8d 83 02 b8 ff ff    	lea    -0x47fe(%ebx),%eax
c000705c:	50                   	push   %eax
c000705d:	e8 0f f3 ff ff       	call   c0006371 <printk>
c0007062:	83 c4 10             	add    $0x10,%esp
c0007065:	83 ec 04             	sub    $0x4,%esp
c0007068:	6a 00                	push   $0x0
c000706a:	8d 83 63 4e ff ff    	lea    -0xb19d(%ebx),%eax
c0007070:	50                   	push   %eax
c0007071:	c7 c0 00 40 01 c0    	mov    $0xc0014000,%eax
c0007077:	50                   	push   %eax
c0007078:	e8 fe ba ff ff       	call   c0002b7b <list_traversal>
c000707d:	83 c4 10             	add    $0x10,%esp
c0007080:	83 ec 0c             	sub    $0xc,%esp
c0007083:	8d 83 1a b8 ff ff    	lea    -0x47e6(%ebx),%eax
c0007089:	50                   	push   %eax
c000708a:	e8 e2 f2 ff ff       	call   c0006371 <printk>
c000708f:	83 c4 10             	add    $0x10,%esp
c0007092:	90                   	nop
c0007093:	8b 5d fc             	mov    -0x4(%ebp),%ebx
c0007096:	c9                   	leave  
c0007097:	c3                   	ret    

c0007098 <inode_locate>:
c0007098:	55                   	push   %ebp
c0007099:	89 e5                	mov    %esp,%ebp
c000709b:	83 ec 20             	sub    $0x20,%esp
c000709e:	e8 35 af ff ff       	call   c0001fd8 <__x86.get_pc_thunk.ax>
c00070a3:	05 5d af 00 00       	add    $0xaf5d,%eax
c00070a8:	8b 45 08             	mov    0x8(%ebp),%eax
c00070ab:	8b 40 1c             	mov    0x1c(%eax),%eax
c00070ae:	8b 40 20             	mov    0x20(%eax),%eax
c00070b1:	89 45 fc             	mov    %eax,-0x4(%ebp)
c00070b4:	c7 45 f8 4c 00 00 00 	movl   $0x4c,-0x8(%ebp)
c00070bb:	8b 45 0c             	mov    0xc(%ebp),%eax
c00070be:	0f af 45 f8          	imul   -0x8(%ebp),%eax
c00070c2:	89 45 f4             	mov    %eax,-0xc(%ebp)
c00070c5:	8b 45 f4             	mov    -0xc(%ebp),%eax
c00070c8:	c1 e8 09             	shr    $0x9,%eax
c00070cb:	89 45 f0             	mov    %eax,-0x10(%ebp)
c00070ce:	8b 45 f4             	mov    -0xc(%ebp),%eax
c00070d1:	25 ff 01 00 00       	and    $0x1ff,%eax
c00070d6:	89 45 ec             	mov    %eax,-0x14(%ebp)
c00070d9:	b8 00 02 00 00       	mov    $0x200,%eax
c00070de:	2b 45 ec             	sub    -0x14(%ebp),%eax
c00070e1:	89 45 e8             	mov    %eax,-0x18(%ebp)
c00070e4:	8b 45 e8             	mov    -0x18(%ebp),%eax
c00070e7:	3b 45 f8             	cmp    -0x8(%ebp),%eax
c00070ea:	73 0b                	jae    c00070f7 <inode_locate+0x5f>
c00070ec:	8b 45 10             	mov    0x10(%ebp),%eax
c00070ef:	c7 00 01 00 00 00    	movl   $0x1,(%eax)
c00070f5:	eb 09                	jmp    c0007100 <inode_locate+0x68>
c00070f7:	8b 45 10             	mov    0x10(%ebp),%eax
c00070fa:	c7 00 00 00 00 00    	movl   $0x0,(%eax)
c0007100:	8b 55 fc             	mov    -0x4(%ebp),%edx
c0007103:	8b 45 f0             	mov    -0x10(%ebp),%eax
c0007106:	01 c2                	add    %eax,%edx
c0007108:	8b 45 10             	mov    0x10(%ebp),%eax
c000710b:	89 50 04             	mov    %edx,0x4(%eax)
c000710e:	8b 45 10             	mov    0x10(%ebp),%eax
c0007111:	8b 55 ec             	mov    -0x14(%ebp),%edx
c0007114:	89 50 08             	mov    %edx,0x8(%eax)
c0007117:	90                   	nop
c0007118:	c9                   	leave  
c0007119:	c3                   	ret    

c000711a <inode_sync>:
c000711a:	55                   	push   %ebp
c000711b:	89 e5                	mov    %esp,%ebp
c000711d:	53                   	push   %ebx
c000711e:	83 ec 64             	sub    $0x64,%esp
c0007121:	e8 cf a8 ff ff       	call   c00019f5 <__x86.get_pc_thunk.bx>
c0007126:	81 c3 da ae 00 00    	add    $0xaeda,%ebx
c000712c:	8b 45 0c             	mov    0xc(%ebp),%eax
c000712f:	8b 00                	mov    (%eax),%eax
c0007131:	88 45 f7             	mov    %al,-0x9(%ebp)
c0007134:	0f b6 45 f7          	movzbl -0x9(%ebp),%eax
c0007138:	8d 55 e4             	lea    -0x1c(%ebp),%edx
c000713b:	52                   	push   %edx
c000713c:	50                   	push   %eax
c000713d:	ff 75 08             	pushl  0x8(%ebp)
c0007140:	e8 53 ff ff ff       	call   c0007098 <inode_locate>
c0007145:	83 c4 0c             	add    $0xc,%esp
c0007148:	83 ec 04             	sub    $0x4,%esp
c000714b:	6a 4c                	push   $0x4c
c000714d:	ff 75 0c             	pushl  0xc(%ebp)
c0007150:	8d 45 98             	lea    -0x68(%ebp),%eax
c0007153:	50                   	push   %eax
c0007154:	e8 77 bc ff ff       	call   c0002dd0 <memcpy>
c0007159:	83 c4 10             	add    $0x10,%esp
c000715c:	c7 45 a0 00 00 00 00 	movl   $0x0,-0x60(%ebp)
c0007163:	c7 45 a4 00 00 00 00 	movl   $0x0,-0x5c(%ebp)
c000716a:	c7 45 e0 00 00 00 00 	movl   $0x0,-0x20(%ebp)
c0007171:	8b 45 e0             	mov    -0x20(%ebp),%eax
c0007174:	89 45 dc             	mov    %eax,-0x24(%ebp)
c0007177:	8b 45 10             	mov    0x10(%ebp),%eax
c000717a:	89 45 f0             	mov    %eax,-0x10(%ebp)
c000717d:	8b 45 e4             	mov    -0x1c(%ebp),%eax
c0007180:	85 c0                	test   %eax,%eax
c0007182:	74 5e                	je     c00071e2 <inode_sync+0xc8>
c0007184:	83 ec 0c             	sub    $0xc,%esp
c0007187:	8d 83 52 b8 ff ff    	lea    -0x47ae(%ebx),%eax
c000718d:	50                   	push   %eax
c000718e:	e8 26 f1 ff ff       	call   c00062b9 <printf>
c0007193:	83 c4 10             	add    $0x10,%esp
c0007196:	8b 55 e8             	mov    -0x18(%ebp),%edx
c0007199:	8b 45 08             	mov    0x8(%ebp),%eax
c000719c:	8b 40 08             	mov    0x8(%eax),%eax
c000719f:	6a 02                	push   $0x2
c00071a1:	ff 75 f0             	pushl  -0x10(%ebp)
c00071a4:	52                   	push   %edx
c00071a5:	50                   	push   %eax
c00071a6:	e8 77 f5 ff ff       	call   c0006722 <ide_read>
c00071ab:	83 c4 10             	add    $0x10,%esp
c00071ae:	8b 55 ec             	mov    -0x14(%ebp),%edx
c00071b1:	8b 45 f0             	mov    -0x10(%ebp),%eax
c00071b4:	01 c2                	add    %eax,%edx
c00071b6:	83 ec 04             	sub    $0x4,%esp
c00071b9:	6a 4c                	push   $0x4c
c00071bb:	8d 45 98             	lea    -0x68(%ebp),%eax
c00071be:	50                   	push   %eax
c00071bf:	52                   	push   %edx
c00071c0:	e8 0b bc ff ff       	call   c0002dd0 <memcpy>
c00071c5:	83 c4 10             	add    $0x10,%esp
c00071c8:	8b 55 e8             	mov    -0x18(%ebp),%edx
c00071cb:	8b 45 08             	mov    0x8(%ebp),%eax
c00071ce:	8b 40 08             	mov    0x8(%eax),%eax
c00071d1:	6a 02                	push   $0x2
c00071d3:	ff 75 f0             	pushl  -0x10(%ebp)
c00071d6:	52                   	push   %edx
c00071d7:	50                   	push   %eax
c00071d8:	e8 87 f6 ff ff       	call   c0006864 <ide_write>
c00071dd:	83 c4 10             	add    $0x10,%esp
c00071e0:	eb 5c                	jmp    c000723e <inode_sync+0x124>
c00071e2:	83 ec 0c             	sub    $0xc,%esp
c00071e5:	8d 83 58 b8 ff ff    	lea    -0x47a8(%ebx),%eax
c00071eb:	50                   	push   %eax
c00071ec:	e8 c8 f0 ff ff       	call   c00062b9 <printf>
c00071f1:	83 c4 10             	add    $0x10,%esp
c00071f4:	8b 55 e8             	mov    -0x18(%ebp),%edx
c00071f7:	8b 45 08             	mov    0x8(%ebp),%eax
c00071fa:	8b 40 08             	mov    0x8(%eax),%eax
c00071fd:	6a 01                	push   $0x1
c00071ff:	ff 75 f0             	pushl  -0x10(%ebp)
c0007202:	52                   	push   %edx
c0007203:	50                   	push   %eax
c0007204:	e8 19 f5 ff ff       	call   c0006722 <ide_read>
c0007209:	83 c4 10             	add    $0x10,%esp
c000720c:	8b 55 ec             	mov    -0x14(%ebp),%edx
c000720f:	8b 45 f0             	mov    -0x10(%ebp),%eax
c0007212:	01 c2                	add    %eax,%edx
c0007214:	83 ec 04             	sub    $0x4,%esp
c0007217:	6a 4c                	push   $0x4c
c0007219:	8d 45 98             	lea    -0x68(%ebp),%eax
c000721c:	50                   	push   %eax
c000721d:	52                   	push   %edx
c000721e:	e8 ad bb ff ff       	call   c0002dd0 <memcpy>
c0007223:	83 c4 10             	add    $0x10,%esp
c0007226:	8b 55 e8             	mov    -0x18(%ebp),%edx
c0007229:	8b 45 08             	mov    0x8(%ebp),%eax
c000722c:	8b 40 08             	mov    0x8(%eax),%eax
c000722f:	6a 01                	push   $0x1
c0007231:	ff 75 f0             	pushl  -0x10(%ebp)
c0007234:	52                   	push   %edx
c0007235:	50                   	push   %eax
c0007236:	e8 29 f6 ff ff       	call   c0006864 <ide_write>
c000723b:	83 c4 10             	add    $0x10,%esp
c000723e:	90                   	nop
c000723f:	8b 5d fc             	mov    -0x4(%ebp),%ebx
c0007242:	c9                   	leave  
c0007243:	c3                   	ret    

c0007244 <inode_open>:
c0007244:	55                   	push   %ebp
c0007245:	89 e5                	mov    %esp,%ebp
c0007247:	53                   	push   %ebx
c0007248:	83 ec 24             	sub    $0x24,%esp
c000724b:	e8 a5 a7 ff ff       	call   c00019f5 <__x86.get_pc_thunk.bx>
c0007250:	81 c3 b0 ad 00 00    	add    $0xadb0,%ebx
c0007256:	8b 45 08             	mov    0x8(%ebp),%eax
c0007259:	8b 40 34             	mov    0x34(%eax),%eax
c000725c:	89 45 f4             	mov    %eax,-0xc(%ebp)
c000725f:	eb 33                	jmp    c0007294 <inode_open+0x50>
c0007261:	8b 45 f4             	mov    -0xc(%ebp),%eax
c0007264:	83 e8 44             	sub    $0x44,%eax
c0007267:	89 45 e4             	mov    %eax,-0x1c(%ebp)
c000726a:	8b 45 e4             	mov    -0x1c(%ebp),%eax
c000726d:	8b 00                	mov    (%eax),%eax
c000726f:	39 45 0c             	cmp    %eax,0xc(%ebp)
c0007272:	75 17                	jne    c000728b <inode_open+0x47>
c0007274:	8b 45 e4             	mov    -0x1c(%ebp),%eax
c0007277:	8b 40 08             	mov    0x8(%eax),%eax
c000727a:	8d 50 01             	lea    0x1(%eax),%edx
c000727d:	8b 45 e4             	mov    -0x1c(%ebp),%eax
c0007280:	89 50 08             	mov    %edx,0x8(%eax)
c0007283:	8b 45 e4             	mov    -0x1c(%ebp),%eax
c0007286:	e9 06 01 00 00       	jmp    c0007391 <inode_open+0x14d>
c000728b:	8b 45 f4             	mov    -0xc(%ebp),%eax
c000728e:	8b 40 04             	mov    0x4(%eax),%eax
c0007291:	89 45 f4             	mov    %eax,-0xc(%ebp)
c0007294:	8b 45 08             	mov    0x8(%ebp),%eax
c0007297:	83 c0 38             	add    $0x38,%eax
c000729a:	39 45 f4             	cmp    %eax,-0xc(%ebp)
c000729d:	75 c2                	jne    c0007261 <inode_open+0x1d>
c000729f:	8d 45 d8             	lea    -0x28(%ebp),%eax
c00072a2:	50                   	push   %eax
c00072a3:	ff 75 0c             	pushl  0xc(%ebp)
c00072a6:	ff 75 08             	pushl  0x8(%ebp)
c00072a9:	e8 ea fd ff ff       	call   c0007098 <inode_locate>
c00072ae:	83 c4 0c             	add    $0xc,%esp
c00072b1:	e8 bd d0 ff ff       	call   c0004373 <running_thread>
c00072b6:	89 45 ec             	mov    %eax,-0x14(%ebp)
c00072b9:	8b 45 ec             	mov    -0x14(%ebp),%eax
c00072bc:	8b 40 54             	mov    0x54(%eax),%eax
c00072bf:	89 45 e8             	mov    %eax,-0x18(%ebp)
c00072c2:	8b 45 ec             	mov    -0x14(%ebp),%eax
c00072c5:	c7 40 54 00 00 00 00 	movl   $0x0,0x54(%eax)
c00072cc:	83 ec 0c             	sub    $0xc,%esp
c00072cf:	6a 4c                	push   $0x4c
c00072d1:	e8 b1 c6 ff ff       	call   c0003987 <sys_malloc>
c00072d6:	83 c4 10             	add    $0x10,%esp
c00072d9:	89 45 e4             	mov    %eax,-0x1c(%ebp)
c00072dc:	8b 45 ec             	mov    -0x14(%ebp),%eax
c00072df:	8b 55 e8             	mov    -0x18(%ebp),%edx
c00072e2:	89 50 54             	mov    %edx,0x54(%eax)
c00072e5:	8b 45 d8             	mov    -0x28(%ebp),%eax
c00072e8:	85 c0                	test   %eax,%eax
c00072ea:	74 2d                	je     c0007319 <inode_open+0xd5>
c00072ec:	83 ec 0c             	sub    $0xc,%esp
c00072ef:	68 00 04 00 00       	push   $0x400
c00072f4:	e8 8e c6 ff ff       	call   c0003987 <sys_malloc>
c00072f9:	83 c4 10             	add    $0x10,%esp
c00072fc:	89 45 f0             	mov    %eax,-0x10(%ebp)
c00072ff:	8b 55 dc             	mov    -0x24(%ebp),%edx
c0007302:	8b 45 08             	mov    0x8(%ebp),%eax
c0007305:	8b 40 08             	mov    0x8(%eax),%eax
c0007308:	6a 02                	push   $0x2
c000730a:	ff 75 f0             	pushl  -0x10(%ebp)
c000730d:	52                   	push   %edx
c000730e:	50                   	push   %eax
c000730f:	e8 0e f4 ff ff       	call   c0006722 <ide_read>
c0007314:	83 c4 10             	add    $0x10,%esp
c0007317:	eb 2b                	jmp    c0007344 <inode_open+0x100>
c0007319:	83 ec 0c             	sub    $0xc,%esp
c000731c:	68 00 02 00 00       	push   $0x200
c0007321:	e8 61 c6 ff ff       	call   c0003987 <sys_malloc>
c0007326:	83 c4 10             	add    $0x10,%esp
c0007329:	89 45 f0             	mov    %eax,-0x10(%ebp)
c000732c:	8b 55 dc             	mov    -0x24(%ebp),%edx
c000732f:	8b 45 08             	mov    0x8(%ebp),%eax
c0007332:	8b 40 08             	mov    0x8(%eax),%eax
c0007335:	6a 01                	push   $0x1
c0007337:	ff 75 f0             	pushl  -0x10(%ebp)
c000733a:	52                   	push   %edx
c000733b:	50                   	push   %eax
c000733c:	e8 e1 f3 ff ff       	call   c0006722 <ide_read>
c0007341:	83 c4 10             	add    $0x10,%esp
c0007344:	8b 55 e0             	mov    -0x20(%ebp),%edx
c0007347:	8b 45 f0             	mov    -0x10(%ebp),%eax
c000734a:	01 d0                	add    %edx,%eax
c000734c:	83 ec 04             	sub    $0x4,%esp
c000734f:	6a 4c                	push   $0x4c
c0007351:	50                   	push   %eax
c0007352:	ff 75 e4             	pushl  -0x1c(%ebp)
c0007355:	e8 76 ba ff ff       	call   c0002dd0 <memcpy>
c000735a:	83 c4 10             	add    $0x10,%esp
c000735d:	8b 45 e4             	mov    -0x1c(%ebp),%eax
c0007360:	8d 50 44             	lea    0x44(%eax),%edx
c0007363:	8b 45 08             	mov    0x8(%ebp),%eax
c0007366:	83 c0 30             	add    $0x30,%eax
c0007369:	83 ec 08             	sub    $0x8,%esp
c000736c:	52                   	push   %edx
c000736d:	50                   	push   %eax
c000736e:	e8 fe b6 ff ff       	call   c0002a71 <list_push>
c0007373:	83 c4 10             	add    $0x10,%esp
c0007376:	8b 45 e4             	mov    -0x1c(%ebp),%eax
c0007379:	c7 40 08 01 00 00 00 	movl   $0x1,0x8(%eax)
c0007380:	83 ec 0c             	sub    $0xc,%esp
c0007383:	ff 75 f0             	pushl  -0x10(%ebp)
c0007386:	e8 82 cb ff ff       	call   c0003f0d <sys_free>
c000738b:	83 c4 10             	add    $0x10,%esp
c000738e:	8b 45 e4             	mov    -0x1c(%ebp),%eax
c0007391:	8b 5d fc             	mov    -0x4(%ebp),%ebx
c0007394:	c9                   	leave  
c0007395:	c3                   	ret    

c0007396 <inode_close>:
c0007396:	55                   	push   %ebp
c0007397:	89 e5                	mov    %esp,%ebp
c0007399:	53                   	push   %ebx
c000739a:	83 ec 14             	sub    $0x14,%esp
c000739d:	e8 53 a6 ff ff       	call   c00019f5 <__x86.get_pc_thunk.bx>
c00073a2:	81 c3 5e ac 00 00    	add    $0xac5e,%ebx
c00073a8:	e8 80 ab ff ff       	call   c0001f2d <intr_disable>
c00073ad:	89 45 f4             	mov    %eax,-0xc(%ebp)
c00073b0:	8b 45 08             	mov    0x8(%ebp),%eax
c00073b3:	8b 40 08             	mov    0x8(%eax),%eax
c00073b6:	8d 50 ff             	lea    -0x1(%eax),%edx
c00073b9:	8b 45 08             	mov    0x8(%ebp),%eax
c00073bc:	89 50 08             	mov    %edx,0x8(%eax)
c00073bf:	8b 45 08             	mov    0x8(%ebp),%eax
c00073c2:	8b 40 08             	mov    0x8(%eax),%eax
c00073c5:	85 c0                	test   %eax,%eax
c00073c7:	75 44                	jne    c000740d <inode_close+0x77>
c00073c9:	8b 45 08             	mov    0x8(%ebp),%eax
c00073cc:	83 c0 44             	add    $0x44,%eax
c00073cf:	83 ec 0c             	sub    $0xc,%esp
c00073d2:	50                   	push   %eax
c00073d3:	e8 e9 b6 ff ff       	call   c0002ac1 <list_remove>
c00073d8:	83 c4 10             	add    $0x10,%esp
c00073db:	e8 93 cf ff ff       	call   c0004373 <running_thread>
c00073e0:	89 45 f0             	mov    %eax,-0x10(%ebp)
c00073e3:	8b 45 f0             	mov    -0x10(%ebp),%eax
c00073e6:	8b 40 54             	mov    0x54(%eax),%eax
c00073e9:	89 45 ec             	mov    %eax,-0x14(%ebp)
c00073ec:	8b 45 f0             	mov    -0x10(%ebp),%eax
c00073ef:	c7 40 54 00 00 00 00 	movl   $0x0,0x54(%eax)
c00073f6:	83 ec 0c             	sub    $0xc,%esp
c00073f9:	ff 75 08             	pushl  0x8(%ebp)
c00073fc:	e8 0c cb ff ff       	call   c0003f0d <sys_free>
c0007401:	83 c4 10             	add    $0x10,%esp
c0007404:	8b 45 f0             	mov    -0x10(%ebp),%eax
c0007407:	8b 55 ec             	mov    -0x14(%ebp),%edx
c000740a:	89 50 54             	mov    %edx,0x54(%eax)
c000740d:	83 ec 0c             	sub    $0xc,%esp
c0007410:	ff 75 f4             	pushl  -0xc(%ebp)
c0007413:	e8 48 ab ff ff       	call   c0001f60 <intr_set_status>
c0007418:	83 c4 10             	add    $0x10,%esp
c000741b:	90                   	nop
c000741c:	8b 5d fc             	mov    -0x4(%ebp),%ebx
c000741f:	c9                   	leave  
c0007420:	c3                   	ret    

c0007421 <inode_delete>:
c0007421:	55                   	push   %ebp
c0007422:	89 e5                	mov    %esp,%ebp
c0007424:	53                   	push   %ebx
c0007425:	83 ec 14             	sub    $0x14,%esp
c0007428:	e8 c8 a5 ff ff       	call   c00019f5 <__x86.get_pc_thunk.bx>
c000742d:	81 c3 d3 ab 00 00    	add    $0xabd3,%ebx
c0007433:	8d 45 e8             	lea    -0x18(%ebp),%eax
c0007436:	50                   	push   %eax
c0007437:	ff 75 0c             	pushl  0xc(%ebp)
c000743a:	ff 75 08             	pushl  0x8(%ebp)
c000743d:	e8 56 fc ff ff       	call   c0007098 <inode_locate>
c0007442:	83 c4 0c             	add    $0xc,%esp
c0007445:	8b 45 10             	mov    0x10(%ebp),%eax
c0007448:	89 45 f4             	mov    %eax,-0xc(%ebp)
c000744b:	8b 45 e8             	mov    -0x18(%ebp),%eax
c000744e:	85 c0                	test   %eax,%eax
c0007450:	74 4a                	je     c000749c <inode_delete+0x7b>
c0007452:	8b 55 ec             	mov    -0x14(%ebp),%edx
c0007455:	8b 45 08             	mov    0x8(%ebp),%eax
c0007458:	8b 40 08             	mov    0x8(%eax),%eax
c000745b:	6a 02                	push   $0x2
c000745d:	ff 75 f4             	pushl  -0xc(%ebp)
c0007460:	52                   	push   %edx
c0007461:	50                   	push   %eax
c0007462:	e8 bb f2 ff ff       	call   c0006722 <ide_read>
c0007467:	83 c4 10             	add    $0x10,%esp
c000746a:	8b 55 f0             	mov    -0x10(%ebp),%edx
c000746d:	8b 45 f4             	mov    -0xc(%ebp),%eax
c0007470:	01 d0                	add    %edx,%eax
c0007472:	83 ec 04             	sub    $0x4,%esp
c0007475:	6a 4c                	push   $0x4c
c0007477:	6a 00                	push   $0x0
c0007479:	50                   	push   %eax
c000747a:	e8 16 b9 ff ff       	call   c0002d95 <memset>
c000747f:	83 c4 10             	add    $0x10,%esp
c0007482:	8b 55 ec             	mov    -0x14(%ebp),%edx
c0007485:	8b 45 08             	mov    0x8(%ebp),%eax
c0007488:	8b 40 08             	mov    0x8(%eax),%eax
c000748b:	6a 02                	push   $0x2
c000748d:	ff 75 f4             	pushl  -0xc(%ebp)
c0007490:	52                   	push   %edx
c0007491:	50                   	push   %eax
c0007492:	e8 cd f3 ff ff       	call   c0006864 <ide_write>
c0007497:	83 c4 10             	add    $0x10,%esp
c000749a:	eb 48                	jmp    c00074e4 <inode_delete+0xc3>
c000749c:	8b 55 ec             	mov    -0x14(%ebp),%edx
c000749f:	8b 45 08             	mov    0x8(%ebp),%eax
c00074a2:	8b 40 08             	mov    0x8(%eax),%eax
c00074a5:	6a 01                	push   $0x1
c00074a7:	ff 75 f4             	pushl  -0xc(%ebp)
c00074aa:	52                   	push   %edx
c00074ab:	50                   	push   %eax
c00074ac:	e8 71 f2 ff ff       	call   c0006722 <ide_read>
c00074b1:	83 c4 10             	add    $0x10,%esp
c00074b4:	8b 55 f0             	mov    -0x10(%ebp),%edx
c00074b7:	8b 45 f4             	mov    -0xc(%ebp),%eax
c00074ba:	01 d0                	add    %edx,%eax
c00074bc:	83 ec 04             	sub    $0x4,%esp
c00074bf:	6a 4c                	push   $0x4c
c00074c1:	6a 00                	push   $0x0
c00074c3:	50                   	push   %eax
c00074c4:	e8 cc b8 ff ff       	call   c0002d95 <memset>
c00074c9:	83 c4 10             	add    $0x10,%esp
c00074cc:	8b 55 ec             	mov    -0x14(%ebp),%edx
c00074cf:	8b 45 08             	mov    0x8(%ebp),%eax
c00074d2:	8b 40 08             	mov    0x8(%eax),%eax
c00074d5:	6a 01                	push   $0x1
c00074d7:	ff 75 f4             	pushl  -0xc(%ebp)
c00074da:	52                   	push   %edx
c00074db:	50                   	push   %eax
c00074dc:	e8 83 f3 ff ff       	call   c0006864 <ide_write>
c00074e1:	83 c4 10             	add    $0x10,%esp
c00074e4:	90                   	nop
c00074e5:	8b 5d fc             	mov    -0x4(%ebp),%ebx
c00074e8:	c9                   	leave  
c00074e9:	c3                   	ret    

c00074ea <inode_release>:
c00074ea:	55                   	push   %ebp
c00074eb:	89 e5                	mov    %esp,%ebp
c00074ed:	57                   	push   %edi
c00074ee:	53                   	push   %ebx
c00074ef:	81 ec 40 02 00 00    	sub    $0x240,%esp
c00074f5:	e8 fb a4 ff ff       	call   c00019f5 <__x86.get_pc_thunk.bx>
c00074fa:	81 c3 06 ab 00 00    	add    $0xab06,%ebx
c0007500:	83 ec 08             	sub    $0x8,%esp
c0007503:	ff 75 0c             	pushl  0xc(%ebp)
c0007506:	ff 75 08             	pushl  0x8(%ebp)
c0007509:	e8 36 fd ff ff       	call   c0007244 <inode_open>
c000750e:	83 c4 10             	add    $0x10,%esp
c0007511:	89 45 f0             	mov    %eax,-0x10(%ebp)
c0007514:	c6 45 f7 00          	movb   $0x0,-0x9(%ebp)
c0007518:	c6 45 f6 0c          	movb   $0xc,-0xa(%ebp)
c000751c:	8d 95 b8 fd ff ff    	lea    -0x248(%ebp),%edx
c0007522:	b8 00 00 00 00       	mov    $0x0,%eax
c0007527:	b9 8c 00 00 00       	mov    $0x8c,%ecx
c000752c:	89 d7                	mov    %edx,%edi
c000752e:	f3 ab                	rep stos %eax,%es:(%edi)
c0007530:	eb 22                	jmp    c0007554 <inode_release+0x6a>
c0007532:	0f b6 4d f7          	movzbl -0x9(%ebp),%ecx
c0007536:	0f b6 45 f7          	movzbl -0x9(%ebp),%eax
c000753a:	8b 55 f0             	mov    -0x10(%ebp),%edx
c000753d:	83 c1 04             	add    $0x4,%ecx
c0007540:	8b 14 8a             	mov    (%edx,%ecx,4),%edx
c0007543:	89 94 85 b8 fd ff ff 	mov    %edx,-0x248(%ebp,%eax,4)
c000754a:	0f b6 45 f7          	movzbl -0x9(%ebp),%eax
c000754e:	83 c0 01             	add    $0x1,%eax
c0007551:	88 45 f7             	mov    %al,-0x9(%ebp)
c0007554:	80 7d f7 0b          	cmpb   $0xb,-0x9(%ebp)
c0007558:	76 d8                	jbe    c0007532 <inode_release+0x48>
c000755a:	8b 45 f0             	mov    -0x10(%ebp),%eax
c000755d:	8b 40 40             	mov    0x40(%eax),%eax
c0007560:	85 c0                	test   %eax,%eax
c0007562:	74 6c                	je     c00075d0 <inode_release+0xe6>
c0007564:	8d 85 b8 fd ff ff    	lea    -0x248(%ebp),%eax
c000756a:	83 c0 30             	add    $0x30,%eax
c000756d:	8b 55 f0             	mov    -0x10(%ebp),%edx
c0007570:	8b 4a 40             	mov    0x40(%edx),%ecx
c0007573:	8b 55 08             	mov    0x8(%ebp),%edx
c0007576:	8b 52 08             	mov    0x8(%edx),%edx
c0007579:	6a 01                	push   $0x1
c000757b:	50                   	push   %eax
c000757c:	51                   	push   %ecx
c000757d:	52                   	push   %edx
c000757e:	e8 9f f1 ff ff       	call   c0006722 <ide_read>
c0007583:	83 c4 10             	add    $0x10,%esp
c0007586:	c6 45 f6 8c          	movb   $0x8c,-0xa(%ebp)
c000758a:	8b 45 f0             	mov    -0x10(%ebp),%eax
c000758d:	8b 50 40             	mov    0x40(%eax),%edx
c0007590:	8b 45 08             	mov    0x8(%ebp),%eax
c0007593:	8b 40 1c             	mov    0x1c(%eax),%eax
c0007596:	8b 40 28             	mov    0x28(%eax),%eax
c0007599:	29 c2                	sub    %eax,%edx
c000759b:	89 d0                	mov    %edx,%eax
c000759d:	89 45 ec             	mov    %eax,-0x14(%ebp)
c00075a0:	8b 45 08             	mov    0x8(%ebp),%eax
c00075a3:	83 c0 20             	add    $0x20,%eax
c00075a6:	83 ec 04             	sub    $0x4,%esp
c00075a9:	6a 00                	push   $0x0
c00075ab:	ff 75 ec             	pushl  -0x14(%ebp)
c00075ae:	50                   	push   %eax
c00075af:	e8 55 bc ff ff       	call   c0003209 <bitmap_set>
c00075b4:	83 c4 10             	add    $0x10,%esp
c00075b7:	c7 c0 40 2c 01 c0    	mov    $0xc0012c40,%eax
c00075bd:	8b 00                	mov    (%eax),%eax
c00075bf:	83 ec 04             	sub    $0x4,%esp
c00075c2:	6a 01                	push   $0x1
c00075c4:	ff 75 ec             	pushl  -0x14(%ebp)
c00075c7:	50                   	push   %eax
c00075c8:	e8 bc 10 00 00       	call   c0008689 <bitmap_sync>
c00075cd:	83 c4 10             	add    $0x10,%esp
c00075d0:	c6 45 f7 00          	movb   $0x0,-0x9(%ebp)
c00075d4:	eb 6b                	jmp    c0007641 <inode_release+0x157>
c00075d6:	0f b6 45 f7          	movzbl -0x9(%ebp),%eax
c00075da:	8b 84 85 b8 fd ff ff 	mov    -0x248(%ebp,%eax,4),%eax
c00075e1:	85 c0                	test   %eax,%eax
c00075e3:	74 52                	je     c0007637 <inode_release+0x14d>
c00075e5:	c7 45 ec 00 00 00 00 	movl   $0x0,-0x14(%ebp)
c00075ec:	0f b6 45 f7          	movzbl -0x9(%ebp),%eax
c00075f0:	8b 94 85 b8 fd ff ff 	mov    -0x248(%ebp,%eax,4),%edx
c00075f7:	8b 45 08             	mov    0x8(%ebp),%eax
c00075fa:	8b 40 1c             	mov    0x1c(%eax),%eax
c00075fd:	8b 40 28             	mov    0x28(%eax),%eax
c0007600:	29 c2                	sub    %eax,%edx
c0007602:	89 d0                	mov    %edx,%eax
c0007604:	89 45 ec             	mov    %eax,-0x14(%ebp)
c0007607:	8b 45 08             	mov    0x8(%ebp),%eax
c000760a:	83 c0 20             	add    $0x20,%eax
c000760d:	83 ec 04             	sub    $0x4,%esp
c0007610:	6a 00                	push   $0x0
c0007612:	ff 75 ec             	pushl  -0x14(%ebp)
c0007615:	50                   	push   %eax
c0007616:	e8 ee bb ff ff       	call   c0003209 <bitmap_set>
c000761b:	83 c4 10             	add    $0x10,%esp
c000761e:	c7 c0 40 2c 01 c0    	mov    $0xc0012c40,%eax
c0007624:	8b 00                	mov    (%eax),%eax
c0007626:	83 ec 04             	sub    $0x4,%esp
c0007629:	6a 01                	push   $0x1
c000762b:	ff 75 ec             	pushl  -0x14(%ebp)
c000762e:	50                   	push   %eax
c000762f:	e8 55 10 00 00       	call   c0008689 <bitmap_sync>
c0007634:	83 c4 10             	add    $0x10,%esp
c0007637:	0f b6 45 f7          	movzbl -0x9(%ebp),%eax
c000763b:	83 c0 01             	add    $0x1,%eax
c000763e:	88 45 f7             	mov    %al,-0x9(%ebp)
c0007641:	0f b6 45 f7          	movzbl -0x9(%ebp),%eax
c0007645:	3a 45 f6             	cmp    -0xa(%ebp),%al
c0007648:	72 8c                	jb     c00075d6 <inode_release+0xec>
c000764a:	8b 45 08             	mov    0x8(%ebp),%eax
c000764d:	83 c0 28             	add    $0x28,%eax
c0007650:	83 ec 04             	sub    $0x4,%esp
c0007653:	6a 00                	push   $0x0
c0007655:	ff 75 0c             	pushl  0xc(%ebp)
c0007658:	50                   	push   %eax
c0007659:	e8 ab bb ff ff       	call   c0003209 <bitmap_set>
c000765e:	83 c4 10             	add    $0x10,%esp
c0007661:	c7 c0 40 2c 01 c0    	mov    $0xc0012c40,%eax
c0007667:	8b 00                	mov    (%eax),%eax
c0007669:	83 ec 04             	sub    $0x4,%esp
c000766c:	6a 00                	push   $0x0
c000766e:	ff 75 0c             	pushl  0xc(%ebp)
c0007671:	50                   	push   %eax
c0007672:	e8 12 10 00 00       	call   c0008689 <bitmap_sync>
c0007677:	83 c4 10             	add    $0x10,%esp
c000767a:	83 ec 0c             	sub    $0xc,%esp
c000767d:	68 00 04 00 00       	push   $0x400
c0007682:	e8 00 c3 ff ff       	call   c0003987 <sys_malloc>
c0007687:	83 c4 10             	add    $0x10,%esp
c000768a:	89 45 e8             	mov    %eax,-0x18(%ebp)
c000768d:	83 ec 04             	sub    $0x4,%esp
c0007690:	ff 75 e8             	pushl  -0x18(%ebp)
c0007693:	ff 75 0c             	pushl  0xc(%ebp)
c0007696:	ff 75 08             	pushl  0x8(%ebp)
c0007699:	e8 83 fd ff ff       	call   c0007421 <inode_delete>
c000769e:	83 c4 10             	add    $0x10,%esp
c00076a1:	83 ec 0c             	sub    $0xc,%esp
c00076a4:	ff 75 e8             	pushl  -0x18(%ebp)
c00076a7:	e8 61 c8 ff ff       	call   c0003f0d <sys_free>
c00076ac:	83 c4 10             	add    $0x10,%esp
c00076af:	83 ec 0c             	sub    $0xc,%esp
c00076b2:	ff 75 f0             	pushl  -0x10(%ebp)
c00076b5:	e8 dc fc ff ff       	call   c0007396 <inode_close>
c00076ba:	83 c4 10             	add    $0x10,%esp
c00076bd:	90                   	nop
c00076be:	8d 65 f8             	lea    -0x8(%ebp),%esp
c00076c1:	5b                   	pop    %ebx
c00076c2:	5f                   	pop    %edi
c00076c3:	5d                   	pop    %ebp
c00076c4:	c3                   	ret    

c00076c5 <inode_init>:
c00076c5:	55                   	push   %ebp
c00076c6:	89 e5                	mov    %esp,%ebp
c00076c8:	83 ec 10             	sub    $0x10,%esp
c00076cb:	e8 08 a9 ff ff       	call   c0001fd8 <__x86.get_pc_thunk.ax>
c00076d0:	05 30 a9 00 00       	add    $0xa930,%eax
c00076d5:	8b 45 0c             	mov    0xc(%ebp),%eax
c00076d8:	8b 55 08             	mov    0x8(%ebp),%edx
c00076db:	89 10                	mov    %edx,(%eax)
c00076dd:	8b 45 0c             	mov    0xc(%ebp),%eax
c00076e0:	c7 40 04 00 00 00 00 	movl   $0x0,0x4(%eax)
c00076e7:	8b 45 0c             	mov    0xc(%ebp),%eax
c00076ea:	c7 40 08 00 00 00 00 	movl   $0x0,0x8(%eax)
c00076f1:	8b 45 0c             	mov    0xc(%ebp),%eax
c00076f4:	c7 40 0c 00 00 00 00 	movl   $0x0,0xc(%eax)
c00076fb:	c6 45 ff 00          	movb   $0x0,-0x1(%ebp)
c00076ff:	eb 1b                	jmp    c000771c <inode_init+0x57>
c0007701:	0f b6 55 ff          	movzbl -0x1(%ebp),%edx
c0007705:	8b 45 0c             	mov    0xc(%ebp),%eax
c0007708:	83 c2 04             	add    $0x4,%edx
c000770b:	c7 04 90 00 00 00 00 	movl   $0x0,(%eax,%edx,4)
c0007712:	0f b6 45 ff          	movzbl -0x1(%ebp),%eax
c0007716:	83 c0 01             	add    $0x1,%eax
c0007719:	88 45 ff             	mov    %al,-0x1(%ebp)
c000771c:	80 7d ff 0c          	cmpb   $0xc,-0x1(%ebp)
c0007720:	76 df                	jbe    c0007701 <inode_init+0x3c>
c0007722:	90                   	nop
c0007723:	c9                   	leave  
c0007724:	c3                   	ret    

c0007725 <open_root_dir>:
c0007725:	55                   	push   %ebp
c0007726:	89 e5                	mov    %esp,%ebp
c0007728:	53                   	push   %ebx
c0007729:	83 ec 04             	sub    $0x4,%esp
c000772c:	e8 c4 a2 ff ff       	call   c00019f5 <__x86.get_pc_thunk.bx>
c0007731:	81 c3 cf a8 00 00    	add    $0xa8cf,%ebx
c0007737:	8b 45 08             	mov    0x8(%ebp),%eax
c000773a:	8b 40 1c             	mov    0x1c(%eax),%eax
c000773d:	8b 40 2c             	mov    0x2c(%eax),%eax
c0007740:	83 ec 08             	sub    $0x8,%esp
c0007743:	50                   	push   %eax
c0007744:	ff 75 08             	pushl  0x8(%ebp)
c0007747:	e8 f8 fa ff ff       	call   c0007244 <inode_open>
c000774c:	83 c4 10             	add    $0x10,%esp
c000774f:	89 c2                	mov    %eax,%edx
c0007751:	c7 c0 20 40 01 c0    	mov    $0xc0014020,%eax
c0007757:	89 10                	mov    %edx,(%eax)
c0007759:	c7 c0 20 40 01 c0    	mov    $0xc0014020,%eax
c000775f:	c7 40 04 00 00 00 00 	movl   $0x0,0x4(%eax)
c0007766:	90                   	nop
c0007767:	8b 5d fc             	mov    -0x4(%ebp),%ebx
c000776a:	c9                   	leave  
c000776b:	c3                   	ret    

c000776c <dir_open>:
c000776c:	55                   	push   %ebp
c000776d:	89 e5                	mov    %esp,%ebp
c000776f:	53                   	push   %ebx
c0007770:	83 ec 14             	sub    $0x14,%esp
c0007773:	e8 7d a2 ff ff       	call   c00019f5 <__x86.get_pc_thunk.bx>
c0007778:	81 c3 88 a8 00 00    	add    $0xa888,%ebx
c000777e:	83 ec 0c             	sub    $0xc,%esp
c0007781:	68 08 02 00 00       	push   $0x208
c0007786:	e8 fc c1 ff ff       	call   c0003987 <sys_malloc>
c000778b:	83 c4 10             	add    $0x10,%esp
c000778e:	89 45 f4             	mov    %eax,-0xc(%ebp)
c0007791:	83 ec 08             	sub    $0x8,%esp
c0007794:	ff 75 0c             	pushl  0xc(%ebp)
c0007797:	ff 75 08             	pushl  0x8(%ebp)
c000779a:	e8 a5 fa ff ff       	call   c0007244 <inode_open>
c000779f:	83 c4 10             	add    $0x10,%esp
c00077a2:	89 c2                	mov    %eax,%edx
c00077a4:	8b 45 f4             	mov    -0xc(%ebp),%eax
c00077a7:	89 10                	mov    %edx,(%eax)
c00077a9:	8b 45 f4             	mov    -0xc(%ebp),%eax
c00077ac:	c7 40 04 00 00 00 00 	movl   $0x0,0x4(%eax)
c00077b3:	8b 45 f4             	mov    -0xc(%ebp),%eax
c00077b6:	8b 5d fc             	mov    -0x4(%ebp),%ebx
c00077b9:	c9                   	leave  
c00077ba:	c3                   	ret    

c00077bb <search_dir_entry>:
c00077bb:	55                   	push   %ebp
c00077bc:	89 e5                	mov    %esp,%ebp
c00077be:	53                   	push   %ebx
c00077bf:	83 ec 24             	sub    $0x24,%esp
c00077c2:	e8 2e a2 ff ff       	call   c00019f5 <__x86.get_pc_thunk.bx>
c00077c7:	81 c3 39 a8 00 00    	add    $0xa839,%ebx
c00077cd:	c7 45 e8 8c 00 00 00 	movl   $0x8c,-0x18(%ebp)
c00077d4:	83 ec 0c             	sub    $0xc,%esp
c00077d7:	68 30 02 00 00       	push   $0x230
c00077dc:	e8 a6 c1 ff ff       	call   c0003987 <sys_malloc>
c00077e1:	83 c4 10             	add    $0x10,%esp
c00077e4:	89 45 e4             	mov    %eax,-0x1c(%ebp)
c00077e7:	83 7d e4 00          	cmpl   $0x0,-0x1c(%ebp)
c00077eb:	75 1c                	jne    c0007809 <search_dir_entry+0x4e>
c00077ed:	83 ec 0c             	sub    $0xc,%esp
c00077f0:	8d 83 60 b8 ff ff    	lea    -0x47a0(%ebx),%eax
c00077f6:	50                   	push   %eax
c00077f7:	e8 75 eb ff ff       	call   c0006371 <printk>
c00077fc:	83 c4 10             	add    $0x10,%esp
c00077ff:	b8 00 00 00 00       	mov    $0x0,%eax
c0007804:	e9 96 01 00 00       	jmp    c000799f <search_dir_entry+0x1e4>
c0007809:	c7 45 f4 00 00 00 00 	movl   $0x0,-0xc(%ebp)
c0007810:	eb 23                	jmp    c0007835 <search_dir_entry+0x7a>
c0007812:	8b 45 0c             	mov    0xc(%ebp),%eax
c0007815:	8b 00                	mov    (%eax),%eax
c0007817:	8b 55 f4             	mov    -0xc(%ebp),%edx
c000781a:	8d 0c 95 00 00 00 00 	lea    0x0(,%edx,4),%ecx
c0007821:	8b 55 e4             	mov    -0x1c(%ebp),%edx
c0007824:	01 ca                	add    %ecx,%edx
c0007826:	8b 4d f4             	mov    -0xc(%ebp),%ecx
c0007829:	83 c1 04             	add    $0x4,%ecx
c000782c:	8b 04 88             	mov    (%eax,%ecx,4),%eax
c000782f:	89 02                	mov    %eax,(%edx)
c0007831:	83 45 f4 01          	addl   $0x1,-0xc(%ebp)
c0007835:	83 7d f4 0b          	cmpl   $0xb,-0xc(%ebp)
c0007839:	76 d7                	jbe    c0007812 <search_dir_entry+0x57>
c000783b:	c7 45 f4 00 00 00 00 	movl   $0x0,-0xc(%ebp)
c0007842:	8b 45 0c             	mov    0xc(%ebp),%eax
c0007845:	8b 00                	mov    (%eax),%eax
c0007847:	8b 40 40             	mov    0x40(%eax),%eax
c000784a:	85 c0                	test   %eax,%eax
c000784c:	74 21                	je     c000786f <search_dir_entry+0xb4>
c000784e:	8b 45 e4             	mov    -0x1c(%ebp),%eax
c0007851:	8d 48 30             	lea    0x30(%eax),%ecx
c0007854:	8b 45 0c             	mov    0xc(%ebp),%eax
c0007857:	8b 00                	mov    (%eax),%eax
c0007859:	8b 50 40             	mov    0x40(%eax),%edx
c000785c:	8b 45 08             	mov    0x8(%ebp),%eax
c000785f:	8b 40 08             	mov    0x8(%eax),%eax
c0007862:	6a 01                	push   $0x1
c0007864:	51                   	push   %ecx
c0007865:	52                   	push   %edx
c0007866:	50                   	push   %eax
c0007867:	e8 b6 ee ff ff       	call   c0006722 <ide_read>
c000786c:	83 c4 10             	add    $0x10,%esp
c000786f:	83 ec 0c             	sub    $0xc,%esp
c0007872:	68 00 02 00 00       	push   $0x200
c0007877:	e8 0b c1 ff ff       	call   c0003987 <sys_malloc>
c000787c:	83 c4 10             	add    $0x10,%esp
c000787f:	89 45 e0             	mov    %eax,-0x20(%ebp)
c0007882:	8b 45 e0             	mov    -0x20(%ebp),%eax
c0007885:	89 45 f0             	mov    %eax,-0x10(%ebp)
c0007888:	8b 45 08             	mov    0x8(%ebp),%eax
c000788b:	8b 40 1c             	mov    0x1c(%eax),%eax
c000788e:	8b 40 30             	mov    0x30(%eax),%eax
c0007891:	89 45 dc             	mov    %eax,-0x24(%ebp)
c0007894:	b8 00 02 00 00       	mov    $0x200,%eax
c0007899:	ba 00 00 00 00       	mov    $0x0,%edx
c000789e:	f7 75 dc             	divl   -0x24(%ebp)
c00078a1:	89 45 d8             	mov    %eax,-0x28(%ebp)
c00078a4:	e9 c9 00 00 00       	jmp    c0007972 <search_dir_entry+0x1b7>
c00078a9:	8b 45 f4             	mov    -0xc(%ebp),%eax
c00078ac:	8d 14 85 00 00 00 00 	lea    0x0(,%eax,4),%edx
c00078b3:	8b 45 e4             	mov    -0x1c(%ebp),%eax
c00078b6:	01 d0                	add    %edx,%eax
c00078b8:	8b 00                	mov    (%eax),%eax
c00078ba:	85 c0                	test   %eax,%eax
c00078bc:	75 09                	jne    c00078c7 <search_dir_entry+0x10c>
c00078be:	83 45 f4 01          	addl   $0x1,-0xc(%ebp)
c00078c2:	e9 ab 00 00 00       	jmp    c0007972 <search_dir_entry+0x1b7>
c00078c7:	8b 45 f4             	mov    -0xc(%ebp),%eax
c00078ca:	8d 14 85 00 00 00 00 	lea    0x0(,%eax,4),%edx
c00078d1:	8b 45 e4             	mov    -0x1c(%ebp),%eax
c00078d4:	01 d0                	add    %edx,%eax
c00078d6:	8b 10                	mov    (%eax),%edx
c00078d8:	8b 45 08             	mov    0x8(%ebp),%eax
c00078db:	8b 40 08             	mov    0x8(%eax),%eax
c00078de:	6a 01                	push   $0x1
c00078e0:	ff 75 e0             	pushl  -0x20(%ebp)
c00078e3:	52                   	push   %edx
c00078e4:	50                   	push   %eax
c00078e5:	e8 38 ee ff ff       	call   c0006722 <ide_read>
c00078ea:	83 c4 10             	add    $0x10,%esp
c00078ed:	c7 45 ec 00 00 00 00 	movl   $0x0,-0x14(%ebp)
c00078f4:	eb 55                	jmp    c000794b <search_dir_entry+0x190>
c00078f6:	8b 45 f0             	mov    -0x10(%ebp),%eax
c00078f9:	83 ec 08             	sub    $0x8,%esp
c00078fc:	ff 75 10             	pushl  0x10(%ebp)
c00078ff:	50                   	push   %eax
c0007900:	e8 e8 b5 ff ff       	call   c0002eed <strcmp>
c0007905:	83 c4 10             	add    $0x10,%esp
c0007908:	84 c0                	test   %al,%al
c000790a:	75 37                	jne    c0007943 <search_dir_entry+0x188>
c000790c:	83 ec 04             	sub    $0x4,%esp
c000790f:	ff 75 dc             	pushl  -0x24(%ebp)
c0007912:	ff 75 f0             	pushl  -0x10(%ebp)
c0007915:	ff 75 14             	pushl  0x14(%ebp)
c0007918:	e8 b3 b4 ff ff       	call   c0002dd0 <memcpy>
c000791d:	83 c4 10             	add    $0x10,%esp
c0007920:	83 ec 0c             	sub    $0xc,%esp
c0007923:	ff 75 e0             	pushl  -0x20(%ebp)
c0007926:	e8 e2 c5 ff ff       	call   c0003f0d <sys_free>
c000792b:	83 c4 10             	add    $0x10,%esp
c000792e:	83 ec 0c             	sub    $0xc,%esp
c0007931:	ff 75 e4             	pushl  -0x1c(%ebp)
c0007934:	e8 d4 c5 ff ff       	call   c0003f0d <sys_free>
c0007939:	83 c4 10             	add    $0x10,%esp
c000793c:	b8 01 00 00 00       	mov    $0x1,%eax
c0007941:	eb 5c                	jmp    c000799f <search_dir_entry+0x1e4>
c0007943:	83 45 ec 01          	addl   $0x1,-0x14(%ebp)
c0007947:	83 45 f0 18          	addl   $0x18,-0x10(%ebp)
c000794b:	8b 45 ec             	mov    -0x14(%ebp),%eax
c000794e:	3b 45 d8             	cmp    -0x28(%ebp),%eax
c0007951:	72 a3                	jb     c00078f6 <search_dir_entry+0x13b>
c0007953:	83 45 f4 01          	addl   $0x1,-0xc(%ebp)
c0007957:	8b 45 e0             	mov    -0x20(%ebp),%eax
c000795a:	89 45 f0             	mov    %eax,-0x10(%ebp)
c000795d:	83 ec 04             	sub    $0x4,%esp
c0007960:	68 00 02 00 00       	push   $0x200
c0007965:	6a 00                	push   $0x0
c0007967:	ff 75 e0             	pushl  -0x20(%ebp)
c000796a:	e8 26 b4 ff ff       	call   c0002d95 <memset>
c000796f:	83 c4 10             	add    $0x10,%esp
c0007972:	8b 45 f4             	mov    -0xc(%ebp),%eax
c0007975:	3b 45 e8             	cmp    -0x18(%ebp),%eax
c0007978:	0f 82 2b ff ff ff    	jb     c00078a9 <search_dir_entry+0xee>
c000797e:	83 ec 0c             	sub    $0xc,%esp
c0007981:	ff 75 e0             	pushl  -0x20(%ebp)
c0007984:	e8 84 c5 ff ff       	call   c0003f0d <sys_free>
c0007989:	83 c4 10             	add    $0x10,%esp
c000798c:	83 ec 0c             	sub    $0xc,%esp
c000798f:	ff 75 e4             	pushl  -0x1c(%ebp)
c0007992:	e8 76 c5 ff ff       	call   c0003f0d <sys_free>
c0007997:	83 c4 10             	add    $0x10,%esp
c000799a:	b8 00 00 00 00       	mov    $0x0,%eax
c000799f:	8b 5d fc             	mov    -0x4(%ebp),%ebx
c00079a2:	c9                   	leave  
c00079a3:	c3                   	ret    

c00079a4 <dir_close>:
c00079a4:	55                   	push   %ebp
c00079a5:	89 e5                	mov    %esp,%ebp
c00079a7:	53                   	push   %ebx
c00079a8:	83 ec 04             	sub    $0x4,%esp
c00079ab:	e8 45 a0 ff ff       	call   c00019f5 <__x86.get_pc_thunk.bx>
c00079b0:	81 c3 50 a6 00 00    	add    $0xa650,%ebx
c00079b6:	c7 c0 20 40 01 c0    	mov    $0xc0014020,%eax
c00079bc:	39 45 08             	cmp    %eax,0x8(%ebp)
c00079bf:	74 21                	je     c00079e2 <dir_close+0x3e>
c00079c1:	8b 45 08             	mov    0x8(%ebp),%eax
c00079c4:	8b 00                	mov    (%eax),%eax
c00079c6:	83 ec 0c             	sub    $0xc,%esp
c00079c9:	50                   	push   %eax
c00079ca:	e8 c7 f9 ff ff       	call   c0007396 <inode_close>
c00079cf:	83 c4 10             	add    $0x10,%esp
c00079d2:	83 ec 0c             	sub    $0xc,%esp
c00079d5:	ff 75 08             	pushl  0x8(%ebp)
c00079d8:	e8 30 c5 ff ff       	call   c0003f0d <sys_free>
c00079dd:	83 c4 10             	add    $0x10,%esp
c00079e0:	eb 01                	jmp    c00079e3 <dir_close+0x3f>
c00079e2:	90                   	nop
c00079e3:	8b 5d fc             	mov    -0x4(%ebp),%ebx
c00079e6:	c9                   	leave  
c00079e7:	c3                   	ret    

c00079e8 <dir_read>:
c00079e8:	55                   	push   %ebp
c00079e9:	89 e5                	mov    %esp,%ebp
c00079eb:	57                   	push   %edi
c00079ec:	53                   	push   %ebx
c00079ed:	81 ec 50 02 00 00    	sub    $0x250,%esp
c00079f3:	e8 fd 9f ff ff       	call   c00019f5 <__x86.get_pc_thunk.bx>
c00079f8:	81 c3 08 a6 00 00    	add    $0xa608,%ebx
c00079fe:	8b 45 08             	mov    0x8(%ebp),%eax
c0007a01:	83 c0 08             	add    $0x8,%eax
c0007a04:	89 45 e8             	mov    %eax,-0x18(%ebp)
c0007a07:	8b 45 08             	mov    0x8(%ebp),%eax
c0007a0a:	8b 00                	mov    (%eax),%eax
c0007a0c:	89 45 e4             	mov    %eax,-0x1c(%ebp)
c0007a0f:	8d 95 a8 fd ff ff    	lea    -0x258(%ebp),%edx
c0007a15:	b8 00 00 00 00       	mov    $0x0,%eax
c0007a1a:	b9 8c 00 00 00       	mov    $0x8c,%ecx
c0007a1f:	89 d7                	mov    %edx,%edi
c0007a21:	f3 ab                	rep stos %eax,%es:(%edi)
c0007a23:	c7 45 e0 0c 00 00 00 	movl   $0xc,-0x20(%ebp)
c0007a2a:	c7 45 f4 00 00 00 00 	movl   $0x0,-0xc(%ebp)
c0007a31:	c7 45 f0 00 00 00 00 	movl   $0x0,-0x10(%ebp)
c0007a38:	eb 1a                	jmp    c0007a54 <dir_read+0x6c>
c0007a3a:	8b 45 e4             	mov    -0x1c(%ebp),%eax
c0007a3d:	8b 55 f4             	mov    -0xc(%ebp),%edx
c0007a40:	83 c2 04             	add    $0x4,%edx
c0007a43:	8b 14 90             	mov    (%eax,%edx,4),%edx
c0007a46:	8b 45 f4             	mov    -0xc(%ebp),%eax
c0007a49:	89 94 85 a8 fd ff ff 	mov    %edx,-0x258(%ebp,%eax,4)
c0007a50:	83 45 f4 01          	addl   $0x1,-0xc(%ebp)
c0007a54:	83 7d f4 0b          	cmpl   $0xb,-0xc(%ebp)
c0007a58:	76 e0                	jbe    c0007a3a <dir_read+0x52>
c0007a5a:	8b 45 e4             	mov    -0x1c(%ebp),%eax
c0007a5d:	8b 40 40             	mov    0x40(%eax),%eax
c0007a60:	85 c0                	test   %eax,%eax
c0007a62:	74 2e                	je     c0007a92 <dir_read+0xaa>
c0007a64:	8d 85 a8 fd ff ff    	lea    -0x258(%ebp),%eax
c0007a6a:	83 c0 30             	add    $0x30,%eax
c0007a6d:	8b 55 e4             	mov    -0x1c(%ebp),%edx
c0007a70:	8b 4a 40             	mov    0x40(%edx),%ecx
c0007a73:	c7 c2 40 2c 01 c0    	mov    $0xc0012c40,%edx
c0007a79:	8b 12                	mov    (%edx),%edx
c0007a7b:	8b 52 08             	mov    0x8(%edx),%edx
c0007a7e:	6a 01                	push   $0x1
c0007a80:	50                   	push   %eax
c0007a81:	51                   	push   %ecx
c0007a82:	52                   	push   %edx
c0007a83:	e8 9a ec ff ff       	call   c0006722 <ide_read>
c0007a88:	83 c4 10             	add    $0x10,%esp
c0007a8b:	c7 45 e0 8c 00 00 00 	movl   $0x8c,-0x20(%ebp)
c0007a92:	c7 45 f4 00 00 00 00 	movl   $0x0,-0xc(%ebp)
c0007a99:	c7 45 ec 00 00 00 00 	movl   $0x0,-0x14(%ebp)
c0007aa0:	c7 c0 40 2c 01 c0    	mov    $0xc0012c40,%eax
c0007aa6:	8b 00                	mov    (%eax),%eax
c0007aa8:	8b 40 1c             	mov    0x1c(%eax),%eax
c0007aab:	8b 40 30             	mov    0x30(%eax),%eax
c0007aae:	89 45 dc             	mov    %eax,-0x24(%ebp)
c0007ab1:	b8 00 02 00 00       	mov    $0x200,%eax
c0007ab6:	ba 00 00 00 00       	mov    $0x0,%edx
c0007abb:	f7 75 dc             	divl   -0x24(%ebp)
c0007abe:	89 45 d8             	mov    %eax,-0x28(%ebp)
c0007ac1:	e9 da 00 00 00       	jmp    c0007ba0 <dir_read+0x1b8>
c0007ac6:	8b 45 08             	mov    0x8(%ebp),%eax
c0007ac9:	8b 50 04             	mov    0x4(%eax),%edx
c0007acc:	8b 45 e4             	mov    -0x1c(%ebp),%eax
c0007acf:	8b 40 04             	mov    0x4(%eax),%eax
c0007ad2:	39 c2                	cmp    %eax,%edx
c0007ad4:	72 0a                	jb     c0007ae0 <dir_read+0xf8>
c0007ad6:	b8 00 00 00 00       	mov    $0x0,%eax
c0007adb:	e9 d9 00 00 00       	jmp    c0007bb9 <dir_read+0x1d1>
c0007ae0:	8b 45 f4             	mov    -0xc(%ebp),%eax
c0007ae3:	8b 84 85 a8 fd ff ff 	mov    -0x258(%ebp,%eax,4),%eax
c0007aea:	85 c0                	test   %eax,%eax
c0007aec:	75 09                	jne    c0007af7 <dir_read+0x10f>
c0007aee:	83 45 f4 01          	addl   $0x1,-0xc(%ebp)
c0007af2:	e9 a9 00 00 00       	jmp    c0007ba0 <dir_read+0x1b8>
c0007af7:	83 ec 04             	sub    $0x4,%esp
c0007afa:	68 00 02 00 00       	push   $0x200
c0007aff:	6a 00                	push   $0x0
c0007b01:	ff 75 e8             	pushl  -0x18(%ebp)
c0007b04:	e8 8c b2 ff ff       	call   c0002d95 <memset>
c0007b09:	83 c4 10             	add    $0x10,%esp
c0007b0c:	8b 45 f4             	mov    -0xc(%ebp),%eax
c0007b0f:	8b 94 85 a8 fd ff ff 	mov    -0x258(%ebp,%eax,4),%edx
c0007b16:	c7 c0 40 2c 01 c0    	mov    $0xc0012c40,%eax
c0007b1c:	8b 00                	mov    (%eax),%eax
c0007b1e:	8b 40 08             	mov    0x8(%eax),%eax
c0007b21:	6a 01                	push   $0x1
c0007b23:	ff 75 e8             	pushl  -0x18(%ebp)
c0007b26:	52                   	push   %edx
c0007b27:	50                   	push   %eax
c0007b28:	e8 f5 eb ff ff       	call   c0006722 <ide_read>
c0007b2d:	83 c4 10             	add    $0x10,%esp
c0007b30:	c7 45 f0 00 00 00 00 	movl   $0x0,-0x10(%ebp)
c0007b37:	eb 5b                	jmp    c0007b94 <dir_read+0x1ac>
c0007b39:	8b 55 f0             	mov    -0x10(%ebp),%edx
c0007b3c:	89 d0                	mov    %edx,%eax
c0007b3e:	01 c0                	add    %eax,%eax
c0007b40:	01 d0                	add    %edx,%eax
c0007b42:	c1 e0 03             	shl    $0x3,%eax
c0007b45:	89 c2                	mov    %eax,%edx
c0007b47:	8b 45 e8             	mov    -0x18(%ebp),%eax
c0007b4a:	01 d0                	add    %edx,%eax
c0007b4c:	8b 40 14             	mov    0x14(%eax),%eax
c0007b4f:	85 c0                	test   %eax,%eax
c0007b51:	74 3d                	je     c0007b90 <dir_read+0x1a8>
c0007b53:	8b 45 08             	mov    0x8(%ebp),%eax
c0007b56:	8b 40 04             	mov    0x4(%eax),%eax
c0007b59:	39 45 ec             	cmp    %eax,-0x14(%ebp)
c0007b5c:	73 0c                	jae    c0007b6a <dir_read+0x182>
c0007b5e:	8b 45 dc             	mov    -0x24(%ebp),%eax
c0007b61:	01 45 ec             	add    %eax,-0x14(%ebp)
c0007b64:	83 45 f0 01          	addl   $0x1,-0x10(%ebp)
c0007b68:	eb 2a                	jmp    c0007b94 <dir_read+0x1ac>
c0007b6a:	8b 45 08             	mov    0x8(%ebp),%eax
c0007b6d:	8b 50 04             	mov    0x4(%eax),%edx
c0007b70:	8b 45 dc             	mov    -0x24(%ebp),%eax
c0007b73:	01 c2                	add    %eax,%edx
c0007b75:	8b 45 08             	mov    0x8(%ebp),%eax
c0007b78:	89 50 04             	mov    %edx,0x4(%eax)
c0007b7b:	8b 55 f0             	mov    -0x10(%ebp),%edx
c0007b7e:	89 d0                	mov    %edx,%eax
c0007b80:	01 c0                	add    %eax,%eax
c0007b82:	01 d0                	add    %edx,%eax
c0007b84:	c1 e0 03             	shl    $0x3,%eax
c0007b87:	89 c2                	mov    %eax,%edx
c0007b89:	8b 45 e8             	mov    -0x18(%ebp),%eax
c0007b8c:	01 d0                	add    %edx,%eax
c0007b8e:	eb 29                	jmp    c0007bb9 <dir_read+0x1d1>
c0007b90:	83 45 f0 01          	addl   $0x1,-0x10(%ebp)
c0007b94:	8b 45 f0             	mov    -0x10(%ebp),%eax
c0007b97:	3b 45 d8             	cmp    -0x28(%ebp),%eax
c0007b9a:	72 9d                	jb     c0007b39 <dir_read+0x151>
c0007b9c:	83 45 f4 01          	addl   $0x1,-0xc(%ebp)
c0007ba0:	8b 45 08             	mov    0x8(%ebp),%eax
c0007ba3:	8b 50 04             	mov    0x4(%eax),%edx
c0007ba6:	8b 45 e4             	mov    -0x1c(%ebp),%eax
c0007ba9:	8b 40 04             	mov    0x4(%eax),%eax
c0007bac:	39 c2                	cmp    %eax,%edx
c0007bae:	0f 82 12 ff ff ff    	jb     c0007ac6 <dir_read+0xde>
c0007bb4:	b8 00 00 00 00       	mov    $0x0,%eax
c0007bb9:	8d 65 f8             	lea    -0x8(%ebp),%esp
c0007bbc:	5b                   	pop    %ebx
c0007bbd:	5f                   	pop    %edi
c0007bbe:	5d                   	pop    %ebp
c0007bbf:	c3                   	ret    

c0007bc0 <create_dir_entry>:
c0007bc0:	55                   	push   %ebp
c0007bc1:	89 e5                	mov    %esp,%ebp
c0007bc3:	53                   	push   %ebx
c0007bc4:	83 ec 14             	sub    $0x14,%esp
c0007bc7:	e8 29 9e ff ff       	call   c00019f5 <__x86.get_pc_thunk.bx>
c0007bcc:	81 c3 34 a4 00 00    	add    $0xa434,%ebx
c0007bd2:	8b 45 10             	mov    0x10(%ebp),%eax
c0007bd5:	88 45 f4             	mov    %al,-0xc(%ebp)
c0007bd8:	83 ec 0c             	sub    $0xc,%esp
c0007bdb:	ff 75 08             	pushl  0x8(%ebp)
c0007bde:	e8 d4 b2 ff ff       	call   c0002eb7 <strlen>
c0007be3:	83 c4 10             	add    $0x10,%esp
c0007be6:	89 c2                	mov    %eax,%edx
c0007be8:	8b 45 14             	mov    0x14(%ebp),%eax
c0007beb:	83 ec 04             	sub    $0x4,%esp
c0007bee:	52                   	push   %edx
c0007bef:	ff 75 08             	pushl  0x8(%ebp)
c0007bf2:	50                   	push   %eax
c0007bf3:	e8 d8 b1 ff ff       	call   c0002dd0 <memcpy>
c0007bf8:	83 c4 10             	add    $0x10,%esp
c0007bfb:	8b 45 14             	mov    0x14(%ebp),%eax
c0007bfe:	8b 55 0c             	mov    0xc(%ebp),%edx
c0007c01:	89 50 10             	mov    %edx,0x10(%eax)
c0007c04:	0f b6 55 f4          	movzbl -0xc(%ebp),%edx
c0007c08:	8b 45 14             	mov    0x14(%ebp),%eax
c0007c0b:	89 50 14             	mov    %edx,0x14(%eax)
c0007c0e:	90                   	nop
c0007c0f:	8b 5d fc             	mov    -0x4(%ebp),%ebx
c0007c12:	c9                   	leave  
c0007c13:	c3                   	ret    

c0007c14 <sync_dir_entry>:
c0007c14:	55                   	push   %ebp
c0007c15:	89 e5                	mov    %esp,%ebp
c0007c17:	57                   	push   %edi
c0007c18:	53                   	push   %ebx
c0007c19:	81 ec 60 02 00 00    	sub    $0x260,%esp
c0007c1f:	e8 d1 9d ff ff       	call   c00019f5 <__x86.get_pc_thunk.bx>
c0007c24:	81 c3 dc a3 00 00    	add    $0xa3dc,%ebx
c0007c2a:	8b 45 08             	mov    0x8(%ebp),%eax
c0007c2d:	8b 00                	mov    (%eax),%eax
c0007c2f:	89 45 ec             	mov    %eax,-0x14(%ebp)
c0007c32:	8b 45 ec             	mov    -0x14(%ebp),%eax
c0007c35:	8b 40 04             	mov    0x4(%eax),%eax
c0007c38:	89 45 e8             	mov    %eax,-0x18(%ebp)
c0007c3b:	c7 c0 40 2c 01 c0    	mov    $0xc0012c40,%eax
c0007c41:	8b 00                	mov    (%eax),%eax
c0007c43:	8b 40 1c             	mov    0x1c(%eax),%eax
c0007c46:	8b 40 30             	mov    0x30(%eax),%eax
c0007c49:	89 45 e4             	mov    %eax,-0x1c(%ebp)
c0007c4c:	b8 00 02 00 00       	mov    $0x200,%eax
c0007c51:	ba 00 00 00 00       	mov    $0x0,%edx
c0007c56:	f7 75 e4             	divl   -0x1c(%ebp)
c0007c59:	89 45 e0             	mov    %eax,-0x20(%ebp)
c0007c5c:	c7 45 dc ff ff ff ff 	movl   $0xffffffff,-0x24(%ebp)
c0007c63:	c7 45 f4 00 00 00 00 	movl   $0x0,-0xc(%ebp)
c0007c6a:	8d 95 a4 fd ff ff    	lea    -0x25c(%ebp),%edx
c0007c70:	b8 00 00 00 00       	mov    $0x0,%eax
c0007c75:	b9 8c 00 00 00       	mov    $0x8c,%ecx
c0007c7a:	89 d7                	mov    %edx,%edi
c0007c7c:	f3 ab                	rep stos %eax,%es:(%edi)
c0007c7e:	eb 1a                	jmp    c0007c9a <sync_dir_entry+0x86>
c0007c80:	8b 45 ec             	mov    -0x14(%ebp),%eax
c0007c83:	8b 55 f4             	mov    -0xc(%ebp),%edx
c0007c86:	83 c2 04             	add    $0x4,%edx
c0007c89:	8b 14 90             	mov    (%eax,%edx,4),%edx
c0007c8c:	8b 45 f4             	mov    -0xc(%ebp),%eax
c0007c8f:	89 94 85 a4 fd ff ff 	mov    %edx,-0x25c(%ebp,%eax,4)
c0007c96:	83 45 f4 01          	addl   $0x1,-0xc(%ebp)
c0007c9a:	83 7d f4 0b          	cmpl   $0xb,-0xc(%ebp)
c0007c9e:	76 e0                	jbe    c0007c80 <sync_dir_entry+0x6c>
c0007ca0:	8b 45 10             	mov    0x10(%ebp),%eax
c0007ca3:	89 45 d8             	mov    %eax,-0x28(%ebp)
c0007ca6:	c7 45 d4 ff ff ff ff 	movl   $0xffffffff,-0x2c(%ebp)
c0007cad:	c7 45 f4 00 00 00 00 	movl   $0x0,-0xc(%ebp)
c0007cb4:	e9 25 03 00 00       	jmp    c0007fde <sync_dir_entry+0x3ca>
c0007cb9:	c7 45 d4 ff ff ff ff 	movl   $0xffffffff,-0x2c(%ebp)
c0007cc0:	8b 45 f4             	mov    -0xc(%ebp),%eax
c0007cc3:	8b 84 85 a4 fd ff ff 	mov    -0x25c(%ebp,%eax,4),%eax
c0007cca:	85 c0                	test   %eax,%eax
c0007ccc:	0f 85 35 02 00 00    	jne    c0007f07 <sync_dir_entry+0x2f3>
c0007cd2:	c7 c0 40 2c 01 c0    	mov    $0xc0012c40,%eax
c0007cd8:	8b 00                	mov    (%eax),%eax
c0007cda:	83 ec 0c             	sub    $0xc,%esp
c0007cdd:	50                   	push   %eax
c0007cde:	e8 45 09 00 00       	call   c0008628 <block_bitmap_alloc>
c0007ce3:	83 c4 10             	add    $0x10,%esp
c0007ce6:	89 45 dc             	mov    %eax,-0x24(%ebp)
c0007ce9:	83 7d dc ff          	cmpl   $0xffffffff,-0x24(%ebp)
c0007ced:	75 1c                	jne    c0007d0b <sync_dir_entry+0xf7>
c0007cef:	83 ec 0c             	sub    $0xc,%esp
c0007cf2:	8d 83 94 b8 ff ff    	lea    -0x476c(%ebx),%eax
c0007cf8:	50                   	push   %eax
c0007cf9:	e8 73 e6 ff ff       	call   c0006371 <printk>
c0007cfe:	83 c4 10             	add    $0x10,%esp
c0007d01:	b8 00 00 00 00       	mov    $0x0,%eax
c0007d06:	e9 f7 02 00 00       	jmp    c0008002 <sync_dir_entry+0x3ee>
c0007d0b:	8b 55 dc             	mov    -0x24(%ebp),%edx
c0007d0e:	c7 c0 40 2c 01 c0    	mov    $0xc0012c40,%eax
c0007d14:	8b 00                	mov    (%eax),%eax
c0007d16:	8b 40 1c             	mov    0x1c(%eax),%eax
c0007d19:	8b 40 28             	mov    0x28(%eax),%eax
c0007d1c:	29 c2                	sub    %eax,%edx
c0007d1e:	89 d0                	mov    %edx,%eax
c0007d20:	89 45 d4             	mov    %eax,-0x2c(%ebp)
c0007d23:	8b 55 d4             	mov    -0x2c(%ebp),%edx
c0007d26:	c7 c0 40 2c 01 c0    	mov    $0xc0012c40,%eax
c0007d2c:	8b 00                	mov    (%eax),%eax
c0007d2e:	83 ec 04             	sub    $0x4,%esp
c0007d31:	6a 01                	push   $0x1
c0007d33:	52                   	push   %edx
c0007d34:	50                   	push   %eax
c0007d35:	e8 4f 09 00 00       	call   c0008689 <bitmap_sync>
c0007d3a:	83 c4 10             	add    $0x10,%esp
c0007d3d:	c7 45 d4 ff ff ff ff 	movl   $0xffffffff,-0x2c(%ebp)
c0007d44:	83 7d f4 0b          	cmpl   $0xb,-0xc(%ebp)
c0007d48:	77 28                	ja     c0007d72 <sync_dir_entry+0x15e>
c0007d4a:	8b 55 dc             	mov    -0x24(%ebp),%edx
c0007d4d:	8b 45 f4             	mov    -0xc(%ebp),%eax
c0007d50:	89 94 85 a4 fd ff ff 	mov    %edx,-0x25c(%ebp,%eax,4)
c0007d57:	8b 45 f4             	mov    -0xc(%ebp),%eax
c0007d5a:	8b 94 85 a4 fd ff ff 	mov    -0x25c(%ebp,%eax,4),%edx
c0007d61:	8b 45 ec             	mov    -0x14(%ebp),%eax
c0007d64:	8b 4d f4             	mov    -0xc(%ebp),%ecx
c0007d67:	83 c1 04             	add    $0x4,%ecx
c0007d6a:	89 14 88             	mov    %edx,(%eax,%ecx,4)
c0007d6d:	e9 2d 01 00 00       	jmp    c0007e9f <sync_dir_entry+0x28b>
c0007d72:	83 7d f4 0c          	cmpl   $0xc,-0xc(%ebp)
c0007d76:	0f 85 ef 00 00 00    	jne    c0007e6b <sync_dir_entry+0x257>
c0007d7c:	8b 55 dc             	mov    -0x24(%ebp),%edx
c0007d7f:	8b 45 ec             	mov    -0x14(%ebp),%eax
c0007d82:	89 50 40             	mov    %edx,0x40(%eax)
c0007d85:	c7 45 dc ff ff ff ff 	movl   $0xffffffff,-0x24(%ebp)
c0007d8c:	c7 c0 40 2c 01 c0    	mov    $0xc0012c40,%eax
c0007d92:	8b 00                	mov    (%eax),%eax
c0007d94:	83 ec 0c             	sub    $0xc,%esp
c0007d97:	50                   	push   %eax
c0007d98:	e8 8b 08 00 00       	call   c0008628 <block_bitmap_alloc>
c0007d9d:	83 c4 10             	add    $0x10,%esp
c0007da0:	89 45 dc             	mov    %eax,-0x24(%ebp)
c0007da3:	83 7d dc ff          	cmpl   $0xffffffff,-0x24(%ebp)
c0007da7:	75 5e                	jne    c0007e07 <sync_dir_entry+0x1f3>
c0007da9:	8b 45 ec             	mov    -0x14(%ebp),%eax
c0007dac:	8b 50 40             	mov    0x40(%eax),%edx
c0007daf:	c7 c0 40 2c 01 c0    	mov    $0xc0012c40,%eax
c0007db5:	8b 00                	mov    (%eax),%eax
c0007db7:	8b 40 1c             	mov    0x1c(%eax),%eax
c0007dba:	8b 40 28             	mov    0x28(%eax),%eax
c0007dbd:	29 c2                	sub    %eax,%edx
c0007dbf:	89 d0                	mov    %edx,%eax
c0007dc1:	89 45 d4             	mov    %eax,-0x2c(%ebp)
c0007dc4:	8b 45 d4             	mov    -0x2c(%ebp),%eax
c0007dc7:	c7 c2 40 2c 01 c0    	mov    $0xc0012c40,%edx
c0007dcd:	8b 12                	mov    (%edx),%edx
c0007dcf:	83 c2 20             	add    $0x20,%edx
c0007dd2:	83 ec 04             	sub    $0x4,%esp
c0007dd5:	6a 00                	push   $0x0
c0007dd7:	50                   	push   %eax
c0007dd8:	52                   	push   %edx
c0007dd9:	e8 2b b4 ff ff       	call   c0003209 <bitmap_set>
c0007dde:	83 c4 10             	add    $0x10,%esp
c0007de1:	8b 45 ec             	mov    -0x14(%ebp),%eax
c0007de4:	c7 40 40 00 00 00 00 	movl   $0x0,0x40(%eax)
c0007deb:	83 ec 0c             	sub    $0xc,%esp
c0007dee:	8d 83 94 b8 ff ff    	lea    -0x476c(%ebx),%eax
c0007df4:	50                   	push   %eax
c0007df5:	e8 77 e5 ff ff       	call   c0006371 <printk>
c0007dfa:	83 c4 10             	add    $0x10,%esp
c0007dfd:	b8 00 00 00 00       	mov    $0x0,%eax
c0007e02:	e9 fb 01 00 00       	jmp    c0008002 <sync_dir_entry+0x3ee>
c0007e07:	8b 55 dc             	mov    -0x24(%ebp),%edx
c0007e0a:	c7 c0 40 2c 01 c0    	mov    $0xc0012c40,%eax
c0007e10:	8b 00                	mov    (%eax),%eax
c0007e12:	8b 40 1c             	mov    0x1c(%eax),%eax
c0007e15:	8b 40 28             	mov    0x28(%eax),%eax
c0007e18:	29 c2                	sub    %eax,%edx
c0007e1a:	89 d0                	mov    %edx,%eax
c0007e1c:	89 45 d4             	mov    %eax,-0x2c(%ebp)
c0007e1f:	8b 55 d4             	mov    -0x2c(%ebp),%edx
c0007e22:	c7 c0 40 2c 01 c0    	mov    $0xc0012c40,%eax
c0007e28:	8b 00                	mov    (%eax),%eax
c0007e2a:	83 ec 04             	sub    $0x4,%esp
c0007e2d:	6a 01                	push   $0x1
c0007e2f:	52                   	push   %edx
c0007e30:	50                   	push   %eax
c0007e31:	e8 53 08 00 00       	call   c0008689 <bitmap_sync>
c0007e36:	83 c4 10             	add    $0x10,%esp
c0007e39:	8b 45 dc             	mov    -0x24(%ebp),%eax
c0007e3c:	89 85 d4 fd ff ff    	mov    %eax,-0x22c(%ebp)
c0007e42:	8d 85 a4 fd ff ff    	lea    -0x25c(%ebp),%eax
c0007e48:	83 c0 30             	add    $0x30,%eax
c0007e4b:	8b 55 ec             	mov    -0x14(%ebp),%edx
c0007e4e:	8b 4a 40             	mov    0x40(%edx),%ecx
c0007e51:	c7 c2 40 2c 01 c0    	mov    $0xc0012c40,%edx
c0007e57:	8b 12                	mov    (%edx),%edx
c0007e59:	8b 52 08             	mov    0x8(%edx),%edx
c0007e5c:	6a 01                	push   $0x1
c0007e5e:	50                   	push   %eax
c0007e5f:	51                   	push   %ecx
c0007e60:	52                   	push   %edx
c0007e61:	e8 fe e9 ff ff       	call   c0006864 <ide_write>
c0007e66:	83 c4 10             	add    $0x10,%esp
c0007e69:	eb 34                	jmp    c0007e9f <sync_dir_entry+0x28b>
c0007e6b:	8b 55 dc             	mov    -0x24(%ebp),%edx
c0007e6e:	8b 45 f4             	mov    -0xc(%ebp),%eax
c0007e71:	89 94 85 a4 fd ff ff 	mov    %edx,-0x25c(%ebp,%eax,4)
c0007e78:	8d 85 a4 fd ff ff    	lea    -0x25c(%ebp),%eax
c0007e7e:	83 c0 30             	add    $0x30,%eax
c0007e81:	8b 55 ec             	mov    -0x14(%ebp),%edx
c0007e84:	8b 4a 40             	mov    0x40(%edx),%ecx
c0007e87:	c7 c2 40 2c 01 c0    	mov    $0xc0012c40,%edx
c0007e8d:	8b 12                	mov    (%edx),%edx
c0007e8f:	8b 52 08             	mov    0x8(%edx),%edx
c0007e92:	6a 01                	push   $0x1
c0007e94:	50                   	push   %eax
c0007e95:	51                   	push   %ecx
c0007e96:	52                   	push   %edx
c0007e97:	e8 c8 e9 ff ff       	call   c0006864 <ide_write>
c0007e9c:	83 c4 10             	add    $0x10,%esp
c0007e9f:	83 ec 04             	sub    $0x4,%esp
c0007ea2:	68 00 02 00 00       	push   $0x200
c0007ea7:	6a 00                	push   $0x0
c0007ea9:	ff 75 10             	pushl  0x10(%ebp)
c0007eac:	e8 e4 ae ff ff       	call   c0002d95 <memset>
c0007eb1:	83 c4 10             	add    $0x10,%esp
c0007eb4:	83 ec 04             	sub    $0x4,%esp
c0007eb7:	ff 75 e4             	pushl  -0x1c(%ebp)
c0007eba:	ff 75 0c             	pushl  0xc(%ebp)
c0007ebd:	ff 75 10             	pushl  0x10(%ebp)
c0007ec0:	e8 0b af ff ff       	call   c0002dd0 <memcpy>
c0007ec5:	83 c4 10             	add    $0x10,%esp
c0007ec8:	8b 45 f4             	mov    -0xc(%ebp),%eax
c0007ecb:	8b 94 85 a4 fd ff ff 	mov    -0x25c(%ebp,%eax,4),%edx
c0007ed2:	c7 c0 40 2c 01 c0    	mov    $0xc0012c40,%eax
c0007ed8:	8b 00                	mov    (%eax),%eax
c0007eda:	8b 40 08             	mov    0x8(%eax),%eax
c0007edd:	6a 01                	push   $0x1
c0007edf:	ff 75 10             	pushl  0x10(%ebp)
c0007ee2:	52                   	push   %edx
c0007ee3:	50                   	push   %eax
c0007ee4:	e8 7b e9 ff ff       	call   c0006864 <ide_write>
c0007ee9:	83 c4 10             	add    $0x10,%esp
c0007eec:	8b 45 ec             	mov    -0x14(%ebp),%eax
c0007eef:	8b 50 04             	mov    0x4(%eax),%edx
c0007ef2:	8b 45 e4             	mov    -0x1c(%ebp),%eax
c0007ef5:	01 c2                	add    %eax,%edx
c0007ef7:	8b 45 ec             	mov    -0x14(%ebp),%eax
c0007efa:	89 50 04             	mov    %edx,0x4(%eax)
c0007efd:	b8 01 00 00 00       	mov    $0x1,%eax
c0007f02:	e9 fb 00 00 00       	jmp    c0008002 <sync_dir_entry+0x3ee>
c0007f07:	83 ec 0c             	sub    $0xc,%esp
c0007f0a:	8d 83 c2 b8 ff ff    	lea    -0x473e(%ebx),%eax
c0007f10:	50                   	push   %eax
c0007f11:	e8 a3 e3 ff ff       	call   c00062b9 <printf>
c0007f16:	83 c4 10             	add    $0x10,%esp
c0007f19:	8b 45 f4             	mov    -0xc(%ebp),%eax
c0007f1c:	8b 94 85 a4 fd ff ff 	mov    -0x25c(%ebp,%eax,4),%edx
c0007f23:	c7 c0 40 2c 01 c0    	mov    $0xc0012c40,%eax
c0007f29:	8b 00                	mov    (%eax),%eax
c0007f2b:	8b 40 08             	mov    0x8(%eax),%eax
c0007f2e:	6a 01                	push   $0x1
c0007f30:	ff 75 10             	pushl  0x10(%ebp)
c0007f33:	52                   	push   %edx
c0007f34:	50                   	push   %eax
c0007f35:	e8 e8 e7 ff ff       	call   c0006722 <ide_read>
c0007f3a:	83 c4 10             	add    $0x10,%esp
c0007f3d:	c6 45 f3 00          	movb   $0x0,-0xd(%ebp)
c0007f41:	e9 87 00 00 00       	jmp    c0007fcd <sync_dir_entry+0x3b9>
c0007f46:	0f b6 55 f3          	movzbl -0xd(%ebp),%edx
c0007f4a:	89 d0                	mov    %edx,%eax
c0007f4c:	01 c0                	add    %eax,%eax
c0007f4e:	01 d0                	add    %edx,%eax
c0007f50:	c1 e0 03             	shl    $0x3,%eax
c0007f53:	89 c2                	mov    %eax,%edx
c0007f55:	8b 45 d8             	mov    -0x28(%ebp),%eax
c0007f58:	01 d0                	add    %edx,%eax
c0007f5a:	8b 40 14             	mov    0x14(%eax),%eax
c0007f5d:	85 c0                	test   %eax,%eax
c0007f5f:	75 62                	jne    c0007fc3 <sync_dir_entry+0x3af>
c0007f61:	0f b6 55 f3          	movzbl -0xd(%ebp),%edx
c0007f65:	89 d0                	mov    %edx,%eax
c0007f67:	01 c0                	add    %eax,%eax
c0007f69:	01 d0                	add    %edx,%eax
c0007f6b:	c1 e0 03             	shl    $0x3,%eax
c0007f6e:	89 c2                	mov    %eax,%edx
c0007f70:	8b 45 d8             	mov    -0x28(%ebp),%eax
c0007f73:	01 d0                	add    %edx,%eax
c0007f75:	83 ec 04             	sub    $0x4,%esp
c0007f78:	ff 75 e4             	pushl  -0x1c(%ebp)
c0007f7b:	ff 75 0c             	pushl  0xc(%ebp)
c0007f7e:	50                   	push   %eax
c0007f7f:	e8 4c ae ff ff       	call   c0002dd0 <memcpy>
c0007f84:	83 c4 10             	add    $0x10,%esp
c0007f87:	8b 45 f4             	mov    -0xc(%ebp),%eax
c0007f8a:	8b 94 85 a4 fd ff ff 	mov    -0x25c(%ebp,%eax,4),%edx
c0007f91:	c7 c0 40 2c 01 c0    	mov    $0xc0012c40,%eax
c0007f97:	8b 00                	mov    (%eax),%eax
c0007f99:	8b 40 08             	mov    0x8(%eax),%eax
c0007f9c:	6a 01                	push   $0x1
c0007f9e:	ff 75 10             	pushl  0x10(%ebp)
c0007fa1:	52                   	push   %edx
c0007fa2:	50                   	push   %eax
c0007fa3:	e8 bc e8 ff ff       	call   c0006864 <ide_write>
c0007fa8:	83 c4 10             	add    $0x10,%esp
c0007fab:	8b 45 ec             	mov    -0x14(%ebp),%eax
c0007fae:	8b 50 04             	mov    0x4(%eax),%edx
c0007fb1:	8b 45 e4             	mov    -0x1c(%ebp),%eax
c0007fb4:	01 c2                	add    %eax,%edx
c0007fb6:	8b 45 ec             	mov    -0x14(%ebp),%eax
c0007fb9:	89 50 04             	mov    %edx,0x4(%eax)
c0007fbc:	b8 01 00 00 00       	mov    $0x1,%eax
c0007fc1:	eb 3f                	jmp    c0008002 <sync_dir_entry+0x3ee>
c0007fc3:	0f b6 45 f3          	movzbl -0xd(%ebp),%eax
c0007fc7:	83 c0 01             	add    $0x1,%eax
c0007fca:	88 45 f3             	mov    %al,-0xd(%ebp)
c0007fcd:	0f b6 45 f3          	movzbl -0xd(%ebp),%eax
c0007fd1:	39 45 e0             	cmp    %eax,-0x20(%ebp)
c0007fd4:	0f 87 6c ff ff ff    	ja     c0007f46 <sync_dir_entry+0x332>
c0007fda:	83 45 f4 01          	addl   $0x1,-0xc(%ebp)
c0007fde:	81 7d f4 8b 00 00 00 	cmpl   $0x8b,-0xc(%ebp)
c0007fe5:	0f 86 ce fc ff ff    	jbe    c0007cb9 <sync_dir_entry+0xa5>
c0007feb:	83 ec 0c             	sub    $0xc,%esp
c0007fee:	8d 83 ca b8 ff ff    	lea    -0x4736(%ebx),%eax
c0007ff4:	50                   	push   %eax
c0007ff5:	e8 77 e3 ff ff       	call   c0006371 <printk>
c0007ffa:	83 c4 10             	add    $0x10,%esp
c0007ffd:	b8 00 00 00 00       	mov    $0x0,%eax
c0008002:	8d 65 f8             	lea    -0x8(%ebp),%esp
c0008005:	5b                   	pop    %ebx
c0008006:	5f                   	pop    %edi
c0008007:	5d                   	pop    %ebp
c0008008:	c3                   	ret    

c0008009 <delete_dir_entry>:
c0008009:	55                   	push   %ebp
c000800a:	89 e5                	mov    %esp,%ebp
c000800c:	57                   	push   %edi
c000800d:	53                   	push   %ebx
c000800e:	81 ec 60 02 00 00    	sub    $0x260,%esp
c0008014:	e8 dc 99 ff ff       	call   c00019f5 <__x86.get_pc_thunk.bx>
c0008019:	81 c3 e7 9f 00 00    	add    $0x9fe7,%ebx
c000801f:	8b 45 0c             	mov    0xc(%ebp),%eax
c0008022:	8b 00                	mov    (%eax),%eax
c0008024:	89 45 e0             	mov    %eax,-0x20(%ebp)
c0008027:	c7 45 f4 00 00 00 00 	movl   $0x0,-0xc(%ebp)
c000802e:	8d 95 9c fd ff ff    	lea    -0x264(%ebp),%edx
c0008034:	b8 00 00 00 00       	mov    $0x0,%eax
c0008039:	b9 8c 00 00 00       	mov    $0x8c,%ecx
c000803e:	89 d7                	mov    %edx,%edi
c0008040:	f3 ab                	rep stos %eax,%es:(%edi)
c0008042:	eb 1a                	jmp    c000805e <delete_dir_entry+0x55>
c0008044:	8b 45 e0             	mov    -0x20(%ebp),%eax
c0008047:	8b 55 f4             	mov    -0xc(%ebp),%edx
c000804a:	83 c2 04             	add    $0x4,%edx
c000804d:	8b 14 90             	mov    (%eax,%edx,4),%edx
c0008050:	8b 45 f4             	mov    -0xc(%ebp),%eax
c0008053:	89 94 85 9c fd ff ff 	mov    %edx,-0x264(%ebp,%eax,4)
c000805a:	83 45 f4 01          	addl   $0x1,-0xc(%ebp)
c000805e:	83 7d f4 0b          	cmpl   $0xb,-0xc(%ebp)
c0008062:	76 e0                	jbe    c0008044 <delete_dir_entry+0x3b>
c0008064:	8b 45 e0             	mov    -0x20(%ebp),%eax
c0008067:	8b 40 40             	mov    0x40(%eax),%eax
c000806a:	85 c0                	test   %eax,%eax
c000806c:	74 22                	je     c0008090 <delete_dir_entry+0x87>
c000806e:	8d 85 9c fd ff ff    	lea    -0x264(%ebp),%eax
c0008074:	83 c0 30             	add    $0x30,%eax
c0008077:	8b 55 e0             	mov    -0x20(%ebp),%edx
c000807a:	8b 4a 40             	mov    0x40(%edx),%ecx
c000807d:	8b 55 08             	mov    0x8(%ebp),%edx
c0008080:	8b 52 08             	mov    0x8(%edx),%edx
c0008083:	6a 01                	push   $0x1
c0008085:	50                   	push   %eax
c0008086:	51                   	push   %ecx
c0008087:	52                   	push   %edx
c0008088:	e8 95 e6 ff ff       	call   c0006722 <ide_read>
c000808d:	83 c4 10             	add    $0x10,%esp
c0008090:	8b 45 08             	mov    0x8(%ebp),%eax
c0008093:	8b 40 1c             	mov    0x1c(%eax),%eax
c0008096:	8b 40 30             	mov    0x30(%eax),%eax
c0008099:	89 45 dc             	mov    %eax,-0x24(%ebp)
c000809c:	b8 00 02 00 00       	mov    $0x200,%eax
c00080a1:	ba 00 00 00 00       	mov    $0x0,%edx
c00080a6:	f7 75 dc             	divl   -0x24(%ebp)
c00080a9:	89 45 d8             	mov    %eax,-0x28(%ebp)
c00080ac:	8b 45 14             	mov    0x14(%ebp),%eax
c00080af:	89 45 d4             	mov    %eax,-0x2c(%ebp)
c00080b2:	c7 45 f0 00 00 00 00 	movl   $0x0,-0x10(%ebp)
c00080b9:	c7 45 e8 00 00 00 00 	movl   $0x0,-0x18(%ebp)
c00080c0:	c7 45 f4 00 00 00 00 	movl   $0x0,-0xc(%ebp)
c00080c7:	e9 1b 03 00 00       	jmp    c00083e7 <delete_dir_entry+0x3de>
c00080cc:	c7 45 e8 00 00 00 00 	movl   $0x0,-0x18(%ebp)
c00080d3:	8b 45 f4             	mov    -0xc(%ebp),%eax
c00080d6:	8b 84 85 9c fd ff ff 	mov    -0x264(%ebp,%eax,4),%eax
c00080dd:	85 c0                	test   %eax,%eax
c00080df:	75 09                	jne    c00080ea <delete_dir_entry+0xe1>
c00080e1:	83 45 f4 01          	addl   $0x1,-0xc(%ebp)
c00080e5:	e9 fd 02 00 00       	jmp    c00083e7 <delete_dir_entry+0x3de>
c00080ea:	c6 45 ee 00          	movb   $0x0,-0x12(%ebp)
c00080ee:	0f b6 45 ee          	movzbl -0x12(%ebp),%eax
c00080f2:	88 45 ef             	mov    %al,-0x11(%ebp)
c00080f5:	83 ec 04             	sub    $0x4,%esp
c00080f8:	68 00 02 00 00       	push   $0x200
c00080fd:	6a 00                	push   $0x0
c00080ff:	ff 75 14             	pushl  0x14(%ebp)
c0008102:	e8 8e ac ff ff       	call   c0002d95 <memset>
c0008107:	83 c4 10             	add    $0x10,%esp
c000810a:	8b 45 f4             	mov    -0xc(%ebp),%eax
c000810d:	8b 94 85 9c fd ff ff 	mov    -0x264(%ebp,%eax,4),%edx
c0008114:	8b 45 08             	mov    0x8(%ebp),%eax
c0008117:	8b 40 08             	mov    0x8(%eax),%eax
c000811a:	6a 01                	push   $0x1
c000811c:	ff 75 14             	pushl  0x14(%ebp)
c000811f:	52                   	push   %edx
c0008120:	50                   	push   %eax
c0008121:	e8 fc e5 ff ff       	call   c0006722 <ide_read>
c0008126:	83 c4 10             	add    $0x10,%esp
c0008129:	e9 f9 00 00 00       	jmp    c0008227 <delete_dir_entry+0x21e>
c000812e:	0f b6 55 ef          	movzbl -0x11(%ebp),%edx
c0008132:	89 d0                	mov    %edx,%eax
c0008134:	01 c0                	add    %eax,%eax
c0008136:	01 d0                	add    %edx,%eax
c0008138:	c1 e0 03             	shl    $0x3,%eax
c000813b:	89 c2                	mov    %eax,%edx
c000813d:	8b 45 d4             	mov    -0x2c(%ebp),%eax
c0008140:	01 d0                	add    %edx,%eax
c0008142:	8b 40 14             	mov    0x14(%eax),%eax
c0008145:	85 c0                	test   %eax,%eax
c0008147:	0f 84 d0 00 00 00    	je     c000821d <delete_dir_entry+0x214>
c000814d:	0f b6 55 ef          	movzbl -0x11(%ebp),%edx
c0008151:	89 d0                	mov    %edx,%eax
c0008153:	01 c0                	add    %eax,%eax
c0008155:	01 d0                	add    %edx,%eax
c0008157:	c1 e0 03             	shl    $0x3,%eax
c000815a:	89 c2                	mov    %eax,%edx
c000815c:	8b 45 d4             	mov    -0x2c(%ebp),%eax
c000815f:	01 d0                	add    %edx,%eax
c0008161:	89 c2                	mov    %eax,%edx
c0008163:	83 ec 08             	sub    $0x8,%esp
c0008166:	8d 83 de b8 ff ff    	lea    -0x4722(%ebx),%eax
c000816c:	50                   	push   %eax
c000816d:	52                   	push   %edx
c000816e:	e8 7a ad ff ff       	call   c0002eed <strcmp>
c0008173:	83 c4 10             	add    $0x10,%esp
c0008176:	84 c0                	test   %al,%al
c0008178:	75 0c                	jne    c0008186 <delete_dir_entry+0x17d>
c000817a:	c7 45 e8 01 00 00 00 	movl   $0x1,-0x18(%ebp)
c0008181:	e9 97 00 00 00       	jmp    c000821d <delete_dir_entry+0x214>
c0008186:	0f b6 55 ef          	movzbl -0x11(%ebp),%edx
c000818a:	89 d0                	mov    %edx,%eax
c000818c:	01 c0                	add    %eax,%eax
c000818e:	01 d0                	add    %edx,%eax
c0008190:	c1 e0 03             	shl    $0x3,%eax
c0008193:	89 c2                	mov    %eax,%edx
c0008195:	8b 45 d4             	mov    -0x2c(%ebp),%eax
c0008198:	01 d0                	add    %edx,%eax
c000819a:	89 c2                	mov    %eax,%edx
c000819c:	83 ec 08             	sub    $0x8,%esp
c000819f:	8d 83 de b8 ff ff    	lea    -0x4722(%ebx),%eax
c00081a5:	50                   	push   %eax
c00081a6:	52                   	push   %edx
c00081a7:	e8 41 ad ff ff       	call   c0002eed <strcmp>
c00081ac:	83 c4 10             	add    $0x10,%esp
c00081af:	84 c0                	test   %al,%al
c00081b1:	74 6a                	je     c000821d <delete_dir_entry+0x214>
c00081b3:	0f b6 55 ef          	movzbl -0x11(%ebp),%edx
c00081b7:	89 d0                	mov    %edx,%eax
c00081b9:	01 c0                	add    %eax,%eax
c00081bb:	01 d0                	add    %edx,%eax
c00081bd:	c1 e0 03             	shl    $0x3,%eax
c00081c0:	89 c2                	mov    %eax,%edx
c00081c2:	8b 45 d4             	mov    -0x2c(%ebp),%eax
c00081c5:	01 d0                	add    %edx,%eax
c00081c7:	89 c2                	mov    %eax,%edx
c00081c9:	83 ec 08             	sub    $0x8,%esp
c00081cc:	8d 83 e0 b8 ff ff    	lea    -0x4720(%ebx),%eax
c00081d2:	50                   	push   %eax
c00081d3:	52                   	push   %edx
c00081d4:	e8 14 ad ff ff       	call   c0002eed <strcmp>
c00081d9:	83 c4 10             	add    $0x10,%esp
c00081dc:	84 c0                	test   %al,%al
c00081de:	74 3d                	je     c000821d <delete_dir_entry+0x214>
c00081e0:	0f b6 45 ee          	movzbl -0x12(%ebp),%eax
c00081e4:	83 c0 01             	add    $0x1,%eax
c00081e7:	88 45 ee             	mov    %al,-0x12(%ebp)
c00081ea:	0f b6 55 ef          	movzbl -0x11(%ebp),%edx
c00081ee:	89 d0                	mov    %edx,%eax
c00081f0:	01 c0                	add    %eax,%eax
c00081f2:	01 d0                	add    %edx,%eax
c00081f4:	c1 e0 03             	shl    $0x3,%eax
c00081f7:	89 c2                	mov    %eax,%edx
c00081f9:	8b 45 d4             	mov    -0x2c(%ebp),%eax
c00081fc:	01 d0                	add    %edx,%eax
c00081fe:	8b 40 10             	mov    0x10(%eax),%eax
c0008201:	39 45 10             	cmp    %eax,0x10(%ebp)
c0008204:	75 17                	jne    c000821d <delete_dir_entry+0x214>
c0008206:	0f b6 55 ef          	movzbl -0x11(%ebp),%edx
c000820a:	89 d0                	mov    %edx,%eax
c000820c:	01 c0                	add    %eax,%eax
c000820e:	01 d0                	add    %edx,%eax
c0008210:	c1 e0 03             	shl    $0x3,%eax
c0008213:	89 c2                	mov    %eax,%edx
c0008215:	8b 45 d4             	mov    -0x2c(%ebp),%eax
c0008218:	01 d0                	add    %edx,%eax
c000821a:	89 45 f0             	mov    %eax,-0x10(%ebp)
c000821d:	0f b6 45 ef          	movzbl -0x11(%ebp),%eax
c0008221:	83 c0 01             	add    $0x1,%eax
c0008224:	88 45 ef             	mov    %al,-0x11(%ebp)
c0008227:	0f b6 45 ef          	movzbl -0x11(%ebp),%eax
c000822b:	39 45 d8             	cmp    %eax,-0x28(%ebp)
c000822e:	0f 87 fa fe ff ff    	ja     c000812e <delete_dir_entry+0x125>
c0008234:	83 7d f0 00          	cmpl   $0x0,-0x10(%ebp)
c0008238:	75 09                	jne    c0008243 <delete_dir_entry+0x23a>
c000823a:	83 45 f4 01          	addl   $0x1,-0xc(%ebp)
c000823e:	e9 a4 01 00 00       	jmp    c00083e7 <delete_dir_entry+0x3de>
c0008243:	80 7d ee 01          	cmpb   $0x1,-0x12(%ebp)
c0008247:	0f 85 27 01 00 00    	jne    c0008374 <delete_dir_entry+0x36b>
c000824d:	83 7d e8 00          	cmpl   $0x0,-0x18(%ebp)
c0008251:	0f 85 1d 01 00 00    	jne    c0008374 <delete_dir_entry+0x36b>
c0008257:	8b 45 f4             	mov    -0xc(%ebp),%eax
c000825a:	8b 94 85 9c fd ff ff 	mov    -0x264(%ebp,%eax,4),%edx
c0008261:	8b 45 08             	mov    0x8(%ebp),%eax
c0008264:	8b 40 1c             	mov    0x1c(%eax),%eax
c0008267:	8b 40 28             	mov    0x28(%eax),%eax
c000826a:	29 c2                	sub    %eax,%edx
c000826c:	89 d0                	mov    %edx,%eax
c000826e:	89 45 d0             	mov    %eax,-0x30(%ebp)
c0008271:	8b 45 08             	mov    0x8(%ebp),%eax
c0008274:	83 c0 20             	add    $0x20,%eax
c0008277:	83 ec 04             	sub    $0x4,%esp
c000827a:	6a 00                	push   $0x0
c000827c:	ff 75 d0             	pushl  -0x30(%ebp)
c000827f:	50                   	push   %eax
c0008280:	e8 84 af ff ff       	call   c0003209 <bitmap_set>
c0008285:	83 c4 10             	add    $0x10,%esp
c0008288:	c7 c0 40 2c 01 c0    	mov    $0xc0012c40,%eax
c000828e:	8b 00                	mov    (%eax),%eax
c0008290:	83 ec 04             	sub    $0x4,%esp
c0008293:	6a 01                	push   $0x1
c0008295:	ff 75 d0             	pushl  -0x30(%ebp)
c0008298:	50                   	push   %eax
c0008299:	e8 eb 03 00 00       	call   c0008689 <bitmap_sync>
c000829e:	83 c4 10             	add    $0x10,%esp
c00082a1:	83 7d f4 0b          	cmpl   $0xb,-0xc(%ebp)
c00082a5:	77 15                	ja     c00082bc <delete_dir_entry+0x2b3>
c00082a7:	8b 45 e0             	mov    -0x20(%ebp),%eax
c00082aa:	8b 55 f4             	mov    -0xc(%ebp),%edx
c00082ad:	83 c2 04             	add    $0x4,%edx
c00082b0:	c7 04 90 00 00 00 00 	movl   $0x0,(%eax,%edx,4)
c00082b7:	e9 ea 00 00 00       	jmp    c00083a6 <delete_dir_entry+0x39d>
c00082bc:	c7 45 cc 00 00 00 00 	movl   $0x0,-0x34(%ebp)
c00082c3:	c7 45 e4 0c 00 00 00 	movl   $0xc,-0x1c(%ebp)
c00082ca:	eb 12                	jmp    c00082de <delete_dir_entry+0x2d5>
c00082cc:	8b 45 e4             	mov    -0x1c(%ebp),%eax
c00082cf:	8b 84 85 9c fd ff ff 	mov    -0x264(%ebp,%eax,4),%eax
c00082d6:	85 c0                	test   %eax,%eax
c00082d8:	74 04                	je     c00082de <delete_dir_entry+0x2d5>
c00082da:	83 45 e4 01          	addl   $0x1,-0x1c(%ebp)
c00082de:	81 7d e4 8b 00 00 00 	cmpl   $0x8b,-0x1c(%ebp)
c00082e5:	76 e5                	jbe    c00082cc <delete_dir_entry+0x2c3>
c00082e7:	83 7d cc 01          	cmpl   $0x1,-0x34(%ebp)
c00082eb:	76 35                	jbe    c0008322 <delete_dir_entry+0x319>
c00082ed:	8b 45 f4             	mov    -0xc(%ebp),%eax
c00082f0:	c7 84 85 9c fd ff ff 	movl   $0x0,-0x264(%ebp,%eax,4)
c00082f7:	00 00 00 00 
c00082fb:	8d 85 9c fd ff ff    	lea    -0x264(%ebp),%eax
c0008301:	83 c0 30             	add    $0x30,%eax
c0008304:	8b 55 e0             	mov    -0x20(%ebp),%edx
c0008307:	8b 4a 40             	mov    0x40(%edx),%ecx
c000830a:	8b 55 08             	mov    0x8(%ebp),%edx
c000830d:	8b 52 08             	mov    0x8(%edx),%edx
c0008310:	6a 01                	push   $0x1
c0008312:	50                   	push   %eax
c0008313:	51                   	push   %ecx
c0008314:	52                   	push   %edx
c0008315:	e8 4a e5 ff ff       	call   c0006864 <ide_write>
c000831a:	83 c4 10             	add    $0x10,%esp
c000831d:	e9 84 00 00 00       	jmp    c00083a6 <delete_dir_entry+0x39d>
c0008322:	8b 45 e0             	mov    -0x20(%ebp),%eax
c0008325:	8b 50 40             	mov    0x40(%eax),%edx
c0008328:	8b 45 08             	mov    0x8(%ebp),%eax
c000832b:	8b 40 1c             	mov    0x1c(%eax),%eax
c000832e:	8b 40 28             	mov    0x28(%eax),%eax
c0008331:	29 c2                	sub    %eax,%edx
c0008333:	89 d0                	mov    %edx,%eax
c0008335:	89 45 d0             	mov    %eax,-0x30(%ebp)
c0008338:	8b 45 08             	mov    0x8(%ebp),%eax
c000833b:	83 c0 20             	add    $0x20,%eax
c000833e:	83 ec 04             	sub    $0x4,%esp
c0008341:	6a 00                	push   $0x0
c0008343:	ff 75 d0             	pushl  -0x30(%ebp)
c0008346:	50                   	push   %eax
c0008347:	e8 bd ae ff ff       	call   c0003209 <bitmap_set>
c000834c:	83 c4 10             	add    $0x10,%esp
c000834f:	c7 c0 40 2c 01 c0    	mov    $0xc0012c40,%eax
c0008355:	8b 00                	mov    (%eax),%eax
c0008357:	83 ec 04             	sub    $0x4,%esp
c000835a:	6a 01                	push   $0x1
c000835c:	ff 75 d0             	pushl  -0x30(%ebp)
c000835f:	50                   	push   %eax
c0008360:	e8 24 03 00 00       	call   c0008689 <bitmap_sync>
c0008365:	83 c4 10             	add    $0x10,%esp
c0008368:	8b 45 e0             	mov    -0x20(%ebp),%eax
c000836b:	c7 40 40 00 00 00 00 	movl   $0x0,0x40(%eax)
c0008372:	eb 32                	jmp    c00083a6 <delete_dir_entry+0x39d>
c0008374:	83 ec 04             	sub    $0x4,%esp
c0008377:	ff 75 dc             	pushl  -0x24(%ebp)
c000837a:	6a 00                	push   $0x0
c000837c:	ff 75 f0             	pushl  -0x10(%ebp)
c000837f:	e8 11 aa ff ff       	call   c0002d95 <memset>
c0008384:	83 c4 10             	add    $0x10,%esp
c0008387:	8b 45 f4             	mov    -0xc(%ebp),%eax
c000838a:	8b 94 85 9c fd ff ff 	mov    -0x264(%ebp,%eax,4),%edx
c0008391:	8b 45 08             	mov    0x8(%ebp),%eax
c0008394:	8b 40 08             	mov    0x8(%eax),%eax
c0008397:	6a 01                	push   $0x1
c0008399:	ff 75 14             	pushl  0x14(%ebp)
c000839c:	52                   	push   %edx
c000839d:	50                   	push   %eax
c000839e:	e8 c1 e4 ff ff       	call   c0006864 <ide_write>
c00083a3:	83 c4 10             	add    $0x10,%esp
c00083a6:	8b 45 e0             	mov    -0x20(%ebp),%eax
c00083a9:	8b 40 04             	mov    0x4(%eax),%eax
c00083ac:	2b 45 dc             	sub    -0x24(%ebp),%eax
c00083af:	89 c2                	mov    %eax,%edx
c00083b1:	8b 45 e0             	mov    -0x20(%ebp),%eax
c00083b4:	89 50 04             	mov    %edx,0x4(%eax)
c00083b7:	83 ec 04             	sub    $0x4,%esp
c00083ba:	68 00 04 00 00       	push   $0x400
c00083bf:	6a 00                	push   $0x0
c00083c1:	ff 75 14             	pushl  0x14(%ebp)
c00083c4:	e8 cc a9 ff ff       	call   c0002d95 <memset>
c00083c9:	83 c4 10             	add    $0x10,%esp
c00083cc:	83 ec 04             	sub    $0x4,%esp
c00083cf:	ff 75 14             	pushl  0x14(%ebp)
c00083d2:	ff 75 e0             	pushl  -0x20(%ebp)
c00083d5:	ff 75 08             	pushl  0x8(%ebp)
c00083d8:	e8 3d ed ff ff       	call   c000711a <inode_sync>
c00083dd:	83 c4 10             	add    $0x10,%esp
c00083e0:	b8 01 00 00 00       	mov    $0x1,%eax
c00083e5:	eb 12                	jmp    c00083f9 <delete_dir_entry+0x3f0>
c00083e7:	81 7d f4 8b 00 00 00 	cmpl   $0x8b,-0xc(%ebp)
c00083ee:	0f 86 d8 fc ff ff    	jbe    c00080cc <delete_dir_entry+0xc3>
c00083f4:	b8 00 00 00 00       	mov    $0x0,%eax
c00083f9:	8d 65 f8             	lea    -0x8(%ebp),%esp
c00083fc:	5b                   	pop    %ebx
c00083fd:	5f                   	pop    %edi
c00083fe:	5d                   	pop    %ebp
c00083ff:	c3                   	ret    

c0008400 <dir_is_empty>:
c0008400:	55                   	push   %ebp
c0008401:	89 e5                	mov    %esp,%ebp
c0008403:	83 ec 10             	sub    $0x10,%esp
c0008406:	e8 cd 9b ff ff       	call   c0001fd8 <__x86.get_pc_thunk.ax>
c000840b:	05 f5 9b 00 00       	add    $0x9bf5,%eax
c0008410:	8b 55 08             	mov    0x8(%ebp),%edx
c0008413:	8b 12                	mov    (%edx),%edx
c0008415:	89 55 fc             	mov    %edx,-0x4(%ebp)
c0008418:	8b 55 fc             	mov    -0x4(%ebp),%edx
c000841b:	8b 52 04             	mov    0x4(%edx),%edx
c000841e:	c7 c0 40 2c 01 c0    	mov    $0xc0012c40,%eax
c0008424:	8b 00                	mov    (%eax),%eax
c0008426:	8b 40 1c             	mov    0x1c(%eax),%eax
c0008429:	8b 40 30             	mov    0x30(%eax),%eax
c000842c:	01 c0                	add    %eax,%eax
c000842e:	39 c2                	cmp    %eax,%edx
c0008430:	0f 94 c0             	sete   %al
c0008433:	0f b6 c0             	movzbl %al,%eax
c0008436:	c9                   	leave  
c0008437:	c3                   	ret    

c0008438 <dir_remove>:
c0008438:	55                   	push   %ebp
c0008439:	89 e5                	mov    %esp,%ebp
c000843b:	53                   	push   %ebx
c000843c:	83 ec 14             	sub    $0x14,%esp
c000843f:	e8 b1 95 ff ff       	call   c00019f5 <__x86.get_pc_thunk.bx>
c0008444:	81 c3 bc 9b 00 00    	add    $0x9bbc,%ebx
c000844a:	8b 45 0c             	mov    0xc(%ebp),%eax
c000844d:	8b 00                	mov    (%eax),%eax
c000844f:	89 45 f0             	mov    %eax,-0x10(%ebp)
c0008452:	c7 45 f4 01 00 00 00 	movl   $0x1,-0xc(%ebp)
c0008459:	eb 04                	jmp    c000845f <dir_remove+0x27>
c000845b:	83 45 f4 01          	addl   $0x1,-0xc(%ebp)
c000845f:	83 7d f4 0c          	cmpl   $0xc,-0xc(%ebp)
c0008463:	7e f6                	jle    c000845b <dir_remove+0x23>
c0008465:	83 ec 0c             	sub    $0xc,%esp
c0008468:	68 00 04 00 00       	push   $0x400
c000846d:	e8 15 b5 ff ff       	call   c0003987 <sys_malloc>
c0008472:	83 c4 10             	add    $0x10,%esp
c0008475:	89 45 ec             	mov    %eax,-0x14(%ebp)
c0008478:	83 7d ec 00          	cmpl   $0x0,-0x14(%ebp)
c000847c:	75 19                	jne    c0008497 <dir_remove+0x5f>
c000847e:	83 ec 0c             	sub    $0xc,%esp
c0008481:	8d 83 e4 b8 ff ff    	lea    -0x471c(%ebx),%eax
c0008487:	50                   	push   %eax
c0008488:	e8 e4 de ff ff       	call   c0006371 <printk>
c000848d:	83 c4 10             	add    $0x10,%esp
c0008490:	b8 ff ff ff ff       	mov    $0xffffffff,%eax
c0008495:	eb 4a                	jmp    c00084e1 <dir_remove+0xa9>
c0008497:	8b 45 f0             	mov    -0x10(%ebp),%eax
c000849a:	8b 10                	mov    (%eax),%edx
c000849c:	c7 c0 40 2c 01 c0    	mov    $0xc0012c40,%eax
c00084a2:	8b 00                	mov    (%eax),%eax
c00084a4:	ff 75 ec             	pushl  -0x14(%ebp)
c00084a7:	52                   	push   %edx
c00084a8:	ff 75 08             	pushl  0x8(%ebp)
c00084ab:	50                   	push   %eax
c00084ac:	e8 58 fb ff ff       	call   c0008009 <delete_dir_entry>
c00084b1:	83 c4 10             	add    $0x10,%esp
c00084b4:	8b 45 f0             	mov    -0x10(%ebp),%eax
c00084b7:	8b 10                	mov    (%eax),%edx
c00084b9:	c7 c0 40 2c 01 c0    	mov    $0xc0012c40,%eax
c00084bf:	8b 00                	mov    (%eax),%eax
c00084c1:	83 ec 08             	sub    $0x8,%esp
c00084c4:	52                   	push   %edx
c00084c5:	50                   	push   %eax
c00084c6:	e8 1f f0 ff ff       	call   c00074ea <inode_release>
c00084cb:	83 c4 10             	add    $0x10,%esp
c00084ce:	83 ec 0c             	sub    $0xc,%esp
c00084d1:	ff 75 ec             	pushl  -0x14(%ebp)
c00084d4:	e8 34 ba ff ff       	call   c0003f0d <sys_free>
c00084d9:	83 c4 10             	add    $0x10,%esp
c00084dc:	b8 00 00 00 00       	mov    $0x0,%eax
c00084e1:	8b 5d fc             	mov    -0x4(%ebp),%ebx
c00084e4:	c9                   	leave  
c00084e5:	c3                   	ret    

c00084e6 <get_free_slot_in_global>:
c00084e6:	55                   	push   %ebp
c00084e7:	89 e5                	mov    %esp,%ebp
c00084e9:	53                   	push   %ebx
c00084ea:	83 ec 14             	sub    $0x14,%esp
c00084ed:	e8 4d c8 ff ff       	call   c0004d3f <__x86.get_pc_thunk.dx>
c00084f2:	81 c2 0e 9b 00 00    	add    $0x9b0e,%edx
c00084f8:	c7 45 f4 03 00 00 00 	movl   $0x3,-0xc(%ebp)
c00084ff:	eb 21                	jmp    c0008522 <get_free_slot_in_global+0x3c>
c0008501:	c7 c3 40 42 01 c0    	mov    $0xc0014240,%ebx
c0008507:	8b 4d f4             	mov    -0xc(%ebp),%ecx
c000850a:	89 c8                	mov    %ecx,%eax
c000850c:	01 c0                	add    %eax,%eax
c000850e:	01 c8                	add    %ecx,%eax
c0008510:	c1 e0 02             	shl    $0x2,%eax
c0008513:	01 d8                	add    %ebx,%eax
c0008515:	83 c0 08             	add    $0x8,%eax
c0008518:	8b 00                	mov    (%eax),%eax
c000851a:	85 c0                	test   %eax,%eax
c000851c:	74 0c                	je     c000852a <get_free_slot_in_global+0x44>
c000851e:	83 45 f4 01          	addl   $0x1,-0xc(%ebp)
c0008522:	83 7d f4 1f          	cmpl   $0x1f,-0xc(%ebp)
c0008526:	76 d9                	jbe    c0008501 <get_free_slot_in_global+0x1b>
c0008528:	eb 01                	jmp    c000852b <get_free_slot_in_global+0x45>
c000852a:	90                   	nop
c000852b:	83 7d f4 20          	cmpl   $0x20,-0xc(%ebp)
c000852f:	75 1b                	jne    c000854c <get_free_slot_in_global+0x66>
c0008531:	83 ec 0c             	sub    $0xc,%esp
c0008534:	8d 82 0c b9 ff ff    	lea    -0x46f4(%edx),%eax
c000853a:	50                   	push   %eax
c000853b:	89 d3                	mov    %edx,%ebx
c000853d:	e8 2f de ff ff       	call   c0006371 <printk>
c0008542:	83 c4 10             	add    $0x10,%esp
c0008545:	b8 ff ff ff ff       	mov    $0xffffffff,%eax
c000854a:	eb 03                	jmp    c000854f <get_free_slot_in_global+0x69>
c000854c:	8b 45 f4             	mov    -0xc(%ebp),%eax
c000854f:	8b 5d fc             	mov    -0x4(%ebp),%ebx
c0008552:	c9                   	leave  
c0008553:	c3                   	ret    

c0008554 <pcb_fd_install>:
c0008554:	55                   	push   %ebp
c0008555:	89 e5                	mov    %esp,%ebp
c0008557:	53                   	push   %ebx
c0008558:	83 ec 14             	sub    $0x14,%esp
c000855b:	e8 95 94 ff ff       	call   c00019f5 <__x86.get_pc_thunk.bx>
c0008560:	81 c3 a0 9a 00 00    	add    $0x9aa0,%ebx
c0008566:	e8 08 be ff ff       	call   c0004373 <running_thread>
c000856b:	89 45 f0             	mov    %eax,-0x10(%ebp)
c000856e:	c6 45 f7 03          	movb   $0x3,-0x9(%ebp)
c0008572:	eb 30                	jmp    c00085a4 <pcb_fd_install+0x50>
c0008574:	0f b6 55 f7          	movzbl -0x9(%ebp),%edx
c0008578:	8b 45 f0             	mov    -0x10(%ebp),%eax
c000857b:	83 c2 08             	add    $0x8,%edx
c000857e:	8b 44 90 04          	mov    0x4(%eax,%edx,4),%eax
c0008582:	83 f8 ff             	cmp    $0xffffffff,%eax
c0008585:	75 13                	jne    c000859a <pcb_fd_install+0x46>
c0008587:	0f b6 55 f7          	movzbl -0x9(%ebp),%edx
c000858b:	8b 45 f0             	mov    -0x10(%ebp),%eax
c000858e:	8d 4a 08             	lea    0x8(%edx),%ecx
c0008591:	8b 55 08             	mov    0x8(%ebp),%edx
c0008594:	89 54 88 04          	mov    %edx,0x4(%eax,%ecx,4)
c0008598:	eb 10                	jmp    c00085aa <pcb_fd_install+0x56>
c000859a:	0f b6 45 f7          	movzbl -0x9(%ebp),%eax
c000859e:	83 c0 01             	add    $0x1,%eax
c00085a1:	88 45 f7             	mov    %al,-0x9(%ebp)
c00085a4:	80 7d f7 07          	cmpb   $0x7,-0x9(%ebp)
c00085a8:	76 ca                	jbe    c0008574 <pcb_fd_install+0x20>
c00085aa:	80 7d f7 08          	cmpb   $0x8,-0x9(%ebp)
c00085ae:	75 19                	jne    c00085c9 <pcb_fd_install+0x75>
c00085b0:	83 ec 0c             	sub    $0xc,%esp
c00085b3:	8d 83 24 b9 ff ff    	lea    -0x46dc(%ebx),%eax
c00085b9:	50                   	push   %eax
c00085ba:	e8 b2 dd ff ff       	call   c0006371 <printk>
c00085bf:	83 c4 10             	add    $0x10,%esp
c00085c2:	b8 ff ff ff ff       	mov    $0xffffffff,%eax
c00085c7:	eb 04                	jmp    c00085cd <pcb_fd_install+0x79>
c00085c9:	0f b6 45 f7          	movzbl -0x9(%ebp),%eax
c00085cd:	8b 5d fc             	mov    -0x4(%ebp),%ebx
c00085d0:	c9                   	leave  
c00085d1:	c3                   	ret    

c00085d2 <inode_bitmap_alloc>:
c00085d2:	55                   	push   %ebp
c00085d3:	89 e5                	mov    %esp,%ebp
c00085d5:	53                   	push   %ebx
c00085d6:	83 ec 14             	sub    $0x14,%esp
c00085d9:	e8 17 94 ff ff       	call   c00019f5 <__x86.get_pc_thunk.bx>
c00085de:	81 c3 22 9a 00 00    	add    $0x9a22,%ebx
c00085e4:	8b 45 08             	mov    0x8(%ebp),%eax
c00085e7:	83 c0 28             	add    $0x28,%eax
c00085ea:	83 ec 08             	sub    $0x8,%esp
c00085ed:	6a 01                	push   $0x1
c00085ef:	50                   	push   %eax
c00085f0:	e8 ff aa ff ff       	call   c00030f4 <bitmap_scan>
c00085f5:	83 c4 10             	add    $0x10,%esp
c00085f8:	89 45 f4             	mov    %eax,-0xc(%ebp)
c00085fb:	83 7d f4 ff          	cmpl   $0xffffffff,-0xc(%ebp)
c00085ff:	75 07                	jne    c0008608 <inode_bitmap_alloc+0x36>
c0008601:	b8 ff ff ff ff       	mov    $0xffffffff,%eax
c0008606:	eb 1b                	jmp    c0008623 <inode_bitmap_alloc+0x51>
c0008608:	8b 45 f4             	mov    -0xc(%ebp),%eax
c000860b:	8b 55 08             	mov    0x8(%ebp),%edx
c000860e:	83 c2 28             	add    $0x28,%edx
c0008611:	83 ec 04             	sub    $0x4,%esp
c0008614:	6a 01                	push   $0x1
c0008616:	50                   	push   %eax
c0008617:	52                   	push   %edx
c0008618:	e8 ec ab ff ff       	call   c0003209 <bitmap_set>
c000861d:	83 c4 10             	add    $0x10,%esp
c0008620:	8b 45 f4             	mov    -0xc(%ebp),%eax
c0008623:	8b 5d fc             	mov    -0x4(%ebp),%ebx
c0008626:	c9                   	leave  
c0008627:	c3                   	ret    

c0008628 <block_bitmap_alloc>:
c0008628:	55                   	push   %ebp
c0008629:	89 e5                	mov    %esp,%ebp
c000862b:	53                   	push   %ebx
c000862c:	83 ec 14             	sub    $0x14,%esp
c000862f:	e8 c1 93 ff ff       	call   c00019f5 <__x86.get_pc_thunk.bx>
c0008634:	81 c3 cc 99 00 00    	add    $0x99cc,%ebx
c000863a:	8b 45 08             	mov    0x8(%ebp),%eax
c000863d:	83 c0 20             	add    $0x20,%eax
c0008640:	83 ec 08             	sub    $0x8,%esp
c0008643:	6a 01                	push   $0x1
c0008645:	50                   	push   %eax
c0008646:	e8 a9 aa ff ff       	call   c00030f4 <bitmap_scan>
c000864b:	83 c4 10             	add    $0x10,%esp
c000864e:	89 45 f4             	mov    %eax,-0xc(%ebp)
c0008651:	83 7d f4 ff          	cmpl   $0xffffffff,-0xc(%ebp)
c0008655:	75 07                	jne    c000865e <block_bitmap_alloc+0x36>
c0008657:	b8 ff ff ff ff       	mov    $0xffffffff,%eax
c000865c:	eb 26                	jmp    c0008684 <block_bitmap_alloc+0x5c>
c000865e:	8b 45 f4             	mov    -0xc(%ebp),%eax
c0008661:	8b 55 08             	mov    0x8(%ebp),%edx
c0008664:	83 c2 20             	add    $0x20,%edx
c0008667:	83 ec 04             	sub    $0x4,%esp
c000866a:	6a 01                	push   $0x1
c000866c:	50                   	push   %eax
c000866d:	52                   	push   %edx
c000866e:	e8 96 ab ff ff       	call   c0003209 <bitmap_set>
c0008673:	83 c4 10             	add    $0x10,%esp
c0008676:	8b 45 08             	mov    0x8(%ebp),%eax
c0008679:	8b 40 1c             	mov    0x1c(%eax),%eax
c000867c:	8b 50 28             	mov    0x28(%eax),%edx
c000867f:	8b 45 f4             	mov    -0xc(%ebp),%eax
c0008682:	01 d0                	add    %edx,%eax
c0008684:	8b 5d fc             	mov    -0x4(%ebp),%ebx
c0008687:	c9                   	leave  
c0008688:	c3                   	ret    

c0008689 <bitmap_sync>:
c0008689:	55                   	push   %ebp
c000868a:	89 e5                	mov    %esp,%ebp
c000868c:	53                   	push   %ebx
c000868d:	83 ec 24             	sub    $0x24,%esp
c0008690:	e8 aa c6 ff ff       	call   c0004d3f <__x86.get_pc_thunk.dx>
c0008695:	81 c2 6b 99 00 00    	add    $0x996b,%edx
c000869b:	8b 45 10             	mov    0x10(%ebp),%eax
c000869e:	88 45 e4             	mov    %al,-0x1c(%ebp)
c00086a1:	8b 45 0c             	mov    0xc(%ebp),%eax
c00086a4:	c1 e8 0c             	shr    $0xc,%eax
c00086a7:	89 45 ec             	mov    %eax,-0x14(%ebp)
c00086aa:	8b 45 ec             	mov    -0x14(%ebp),%eax
c00086ad:	c1 e0 09             	shl    $0x9,%eax
c00086b0:	89 45 e8             	mov    %eax,-0x18(%ebp)
c00086b3:	0f b6 45 e4          	movzbl -0x1c(%ebp),%eax
c00086b7:	85 c0                	test   %eax,%eax
c00086b9:	74 07                	je     c00086c2 <bitmap_sync+0x39>
c00086bb:	83 f8 01             	cmp    $0x1,%eax
c00086be:	74 23                	je     c00086e3 <bitmap_sync+0x5a>
c00086c0:	eb 41                	jmp    c0008703 <bitmap_sync+0x7a>
c00086c2:	8b 45 08             	mov    0x8(%ebp),%eax
c00086c5:	8b 40 1c             	mov    0x1c(%eax),%eax
c00086c8:	8b 48 18             	mov    0x18(%eax),%ecx
c00086cb:	8b 45 ec             	mov    -0x14(%ebp),%eax
c00086ce:	01 c8                	add    %ecx,%eax
c00086d0:	89 45 f4             	mov    %eax,-0xc(%ebp)
c00086d3:	8b 45 08             	mov    0x8(%ebp),%eax
c00086d6:	8b 48 2c             	mov    0x2c(%eax),%ecx
c00086d9:	8b 45 e8             	mov    -0x18(%ebp),%eax
c00086dc:	01 c8                	add    %ecx,%eax
c00086de:	89 45 f0             	mov    %eax,-0x10(%ebp)
c00086e1:	eb 20                	jmp    c0008703 <bitmap_sync+0x7a>
c00086e3:	8b 45 08             	mov    0x8(%ebp),%eax
c00086e6:	8b 40 1c             	mov    0x1c(%eax),%eax
c00086e9:	8b 48 10             	mov    0x10(%eax),%ecx
c00086ec:	8b 45 ec             	mov    -0x14(%ebp),%eax
c00086ef:	01 c8                	add    %ecx,%eax
c00086f1:	89 45 f4             	mov    %eax,-0xc(%ebp)
c00086f4:	8b 45 08             	mov    0x8(%ebp),%eax
c00086f7:	8b 48 24             	mov    0x24(%eax),%ecx
c00086fa:	8b 45 e8             	mov    -0x18(%ebp),%eax
c00086fd:	01 c8                	add    %ecx,%eax
c00086ff:	89 45 f0             	mov    %eax,-0x10(%ebp)
c0008702:	90                   	nop
c0008703:	8b 45 08             	mov    0x8(%ebp),%eax
c0008706:	8b 40 08             	mov    0x8(%eax),%eax
c0008709:	6a 01                	push   $0x1
c000870b:	ff 75 f0             	pushl  -0x10(%ebp)
c000870e:	ff 75 f4             	pushl  -0xc(%ebp)
c0008711:	50                   	push   %eax
c0008712:	89 d3                	mov    %edx,%ebx
c0008714:	e8 4b e1 ff ff       	call   c0006864 <ide_write>
c0008719:	83 c4 10             	add    $0x10,%esp
c000871c:	90                   	nop
c000871d:	8b 5d fc             	mov    -0x4(%ebp),%ebx
c0008720:	c9                   	leave  
c0008721:	c3                   	ret    

c0008722 <file_create>:
c0008722:	55                   	push   %ebp
c0008723:	89 e5                	mov    %esp,%ebp
c0008725:	56                   	push   %esi
c0008726:	53                   	push   %ebx
c0008727:	83 ec 40             	sub    $0x40,%esp
c000872a:	e8 c6 92 ff ff       	call   c00019f5 <__x86.get_pc_thunk.bx>
c000872f:	81 c3 d1 98 00 00    	add    $0x98d1,%ebx
c0008735:	8b 45 10             	mov    0x10(%ebp),%eax
c0008738:	88 45 c4             	mov    %al,-0x3c(%ebp)
c000873b:	83 ec 0c             	sub    $0xc,%esp
c000873e:	68 00 04 00 00       	push   $0x400
c0008743:	e8 3f b2 ff ff       	call   c0003987 <sys_malloc>
c0008748:	83 c4 10             	add    $0x10,%esp
c000874b:	89 45 ec             	mov    %eax,-0x14(%ebp)
c000874e:	83 7d ec 00          	cmpl   $0x0,-0x14(%ebp)
c0008752:	75 1c                	jne    c0008770 <file_create+0x4e>
c0008754:	83 ec 0c             	sub    $0xc,%esp
c0008757:	8d 83 44 b9 ff ff    	lea    -0x46bc(%ebx),%eax
c000875d:	50                   	push   %eax
c000875e:	e8 0e dc ff ff       	call   c0006371 <printk>
c0008763:	83 c4 10             	add    $0x10,%esp
c0008766:	b8 ff ff ff ff       	mov    $0xffffffff,%eax
c000876b:	e9 b1 02 00 00       	jmp    c0008a21 <file_create+0x2ff>
c0008770:	c6 45 f7 00          	movb   $0x0,-0x9(%ebp)
c0008774:	c7 c0 40 2c 01 c0    	mov    $0xc0012c40,%eax
c000877a:	8b 00                	mov    (%eax),%eax
c000877c:	83 ec 0c             	sub    $0xc,%esp
c000877f:	50                   	push   %eax
c0008780:	e8 4d fe ff ff       	call   c00085d2 <inode_bitmap_alloc>
c0008785:	83 c4 10             	add    $0x10,%esp
c0008788:	89 45 e8             	mov    %eax,-0x18(%ebp)
c000878b:	83 7d e8 ff          	cmpl   $0xffffffff,-0x18(%ebp)
c000878f:	75 1c                	jne    c00087ad <file_create+0x8b>
c0008791:	83 ec 0c             	sub    $0xc,%esp
c0008794:	8d 83 74 b9 ff ff    	lea    -0x468c(%ebx),%eax
c000879a:	50                   	push   %eax
c000879b:	e8 d1 db ff ff       	call   c0006371 <printk>
c00087a0:	83 c4 10             	add    $0x10,%esp
c00087a3:	b8 ff ff ff ff       	mov    $0xffffffff,%eax
c00087a8:	e9 74 02 00 00       	jmp    c0008a21 <file_create+0x2ff>
c00087ad:	83 ec 0c             	sub    $0xc,%esp
c00087b0:	6a 4c                	push   $0x4c
c00087b2:	e8 d0 b1 ff ff       	call   c0003987 <sys_malloc>
c00087b7:	83 c4 10             	add    $0x10,%esp
c00087ba:	89 45 e4             	mov    %eax,-0x1c(%ebp)
c00087bd:	83 7d e4 00          	cmpl   $0x0,-0x1c(%ebp)
c00087c1:	75 1b                	jne    c00087de <file_create+0xbc>
c00087c3:	83 ec 0c             	sub    $0xc,%esp
c00087c6:	8d 83 9c b9 ff ff    	lea    -0x4664(%ebx),%eax
c00087cc:	50                   	push   %eax
c00087cd:	e8 9f db ff ff       	call   c0006371 <printk>
c00087d2:	83 c4 10             	add    $0x10,%esp
c00087d5:	c6 45 f7 01          	movb   $0x1,-0x9(%ebp)
c00087d9:	e9 cb 01 00 00       	jmp    c00089a9 <file_create+0x287>
c00087de:	8b 45 e8             	mov    -0x18(%ebp),%eax
c00087e1:	83 ec 08             	sub    $0x8,%esp
c00087e4:	ff 75 e4             	pushl  -0x1c(%ebp)
c00087e7:	50                   	push   %eax
c00087e8:	e8 d8 ee ff ff       	call   c00076c5 <inode_init>
c00087ed:	83 c4 10             	add    $0x10,%esp
c00087f0:	e8 f1 fc ff ff       	call   c00084e6 <get_free_slot_in_global>
c00087f5:	89 45 f0             	mov    %eax,-0x10(%ebp)
c00087f8:	83 7d f0 ff          	cmpl   $0xffffffff,-0x10(%ebp)
c00087fc:	75 1b                	jne    c0008819 <file_create+0xf7>
c00087fe:	83 ec 0c             	sub    $0xc,%esp
c0008801:	8d 83 c5 b9 ff ff    	lea    -0x463b(%ebx),%eax
c0008807:	50                   	push   %eax
c0008808:	e8 64 db ff ff       	call   c0006371 <printk>
c000880d:	83 c4 10             	add    $0x10,%esp
c0008810:	c6 45 f7 02          	movb   $0x2,-0x9(%ebp)
c0008814:	e9 90 01 00 00       	jmp    c00089a9 <file_create+0x287>
c0008819:	c7 c1 40 42 01 c0    	mov    $0xc0014240,%ecx
c000881f:	8b 55 f0             	mov    -0x10(%ebp),%edx
c0008822:	89 d0                	mov    %edx,%eax
c0008824:	01 c0                	add    %eax,%eax
c0008826:	01 d0                	add    %edx,%eax
c0008828:	c1 e0 02             	shl    $0x2,%eax
c000882b:	01 c8                	add    %ecx,%eax
c000882d:	8d 50 08             	lea    0x8(%eax),%edx
c0008830:	8b 45 e4             	mov    -0x1c(%ebp),%eax
c0008833:	89 02                	mov    %eax,(%edx)
c0008835:	c7 c1 40 42 01 c0    	mov    $0xc0014240,%ecx
c000883b:	8b 55 f0             	mov    -0x10(%ebp),%edx
c000883e:	89 d0                	mov    %edx,%eax
c0008840:	01 c0                	add    %eax,%eax
c0008842:	01 d0                	add    %edx,%eax
c0008844:	c1 e0 02             	shl    $0x2,%eax
c0008847:	01 c8                	add    %ecx,%eax
c0008849:	c7 00 00 00 00 00    	movl   $0x0,(%eax)
c000884f:	0f b6 4d c4          	movzbl -0x3c(%ebp),%ecx
c0008853:	c7 c6 40 42 01 c0    	mov    $0xc0014240,%esi
c0008859:	8b 55 f0             	mov    -0x10(%ebp),%edx
c000885c:	89 d0                	mov    %edx,%eax
c000885e:	01 c0                	add    %eax,%eax
c0008860:	01 d0                	add    %edx,%eax
c0008862:	c1 e0 02             	shl    $0x2,%eax
c0008865:	01 f0                	add    %esi,%eax
c0008867:	83 c0 04             	add    $0x4,%eax
c000886a:	89 08                	mov    %ecx,(%eax)
c000886c:	c7 c1 40 42 01 c0    	mov    $0xc0014240,%ecx
c0008872:	8b 55 f0             	mov    -0x10(%ebp),%edx
c0008875:	89 d0                	mov    %edx,%eax
c0008877:	01 c0                	add    %eax,%eax
c0008879:	01 d0                	add    %edx,%eax
c000887b:	c1 e0 02             	shl    $0x2,%eax
c000887e:	01 c8                	add    %ecx,%eax
c0008880:	83 c0 08             	add    $0x8,%eax
c0008883:	8b 00                	mov    (%eax),%eax
c0008885:	c7 40 0c 00 00 00 00 	movl   $0x0,0xc(%eax)
c000888c:	83 ec 04             	sub    $0x4,%esp
c000888f:	6a 18                	push   $0x18
c0008891:	6a 00                	push   $0x0
c0008893:	8d 45 cc             	lea    -0x34(%ebp),%eax
c0008896:	50                   	push   %eax
c0008897:	e8 f9 a4 ff ff       	call   c0002d95 <memset>
c000889c:	83 c4 10             	add    $0x10,%esp
c000889f:	8b 45 e8             	mov    -0x18(%ebp),%eax
c00088a2:	8d 55 cc             	lea    -0x34(%ebp),%edx
c00088a5:	52                   	push   %edx
c00088a6:	6a 01                	push   $0x1
c00088a8:	50                   	push   %eax
c00088a9:	ff 75 0c             	pushl  0xc(%ebp)
c00088ac:	e8 0f f3 ff ff       	call   c0007bc0 <create_dir_entry>
c00088b1:	83 c4 10             	add    $0x10,%esp
c00088b4:	83 ec 04             	sub    $0x4,%esp
c00088b7:	ff 75 ec             	pushl  -0x14(%ebp)
c00088ba:	8d 45 cc             	lea    -0x34(%ebp),%eax
c00088bd:	50                   	push   %eax
c00088be:	ff 75 08             	pushl  0x8(%ebp)
c00088c1:	e8 4e f3 ff ff       	call   c0007c14 <sync_dir_entry>
c00088c6:	83 c4 10             	add    $0x10,%esp
c00088c9:	85 c0                	test   %eax,%eax
c00088cb:	75 1b                	jne    c00088e8 <file_create+0x1c6>
c00088cd:	83 ec 0c             	sub    $0xc,%esp
c00088d0:	8d 83 e0 b9 ff ff    	lea    -0x4620(%ebx),%eax
c00088d6:	50                   	push   %eax
c00088d7:	e8 95 da ff ff       	call   c0006371 <printk>
c00088dc:	83 c4 10             	add    $0x10,%esp
c00088df:	c6 45 f7 03          	movb   $0x3,-0x9(%ebp)
c00088e3:	e9 c1 00 00 00       	jmp    c00089a9 <file_create+0x287>
c00088e8:	83 ec 04             	sub    $0x4,%esp
c00088eb:	68 00 04 00 00       	push   $0x400
c00088f0:	6a 00                	push   $0x0
c00088f2:	ff 75 ec             	pushl  -0x14(%ebp)
c00088f5:	e8 9b a4 ff ff       	call   c0002d95 <memset>
c00088fa:	83 c4 10             	add    $0x10,%esp
c00088fd:	8b 45 08             	mov    0x8(%ebp),%eax
c0008900:	8b 10                	mov    (%eax),%edx
c0008902:	c7 c0 40 2c 01 c0    	mov    $0xc0012c40,%eax
c0008908:	8b 00                	mov    (%eax),%eax
c000890a:	83 ec 04             	sub    $0x4,%esp
c000890d:	ff 75 ec             	pushl  -0x14(%ebp)
c0008910:	52                   	push   %edx
c0008911:	50                   	push   %eax
c0008912:	e8 03 e8 ff ff       	call   c000711a <inode_sync>
c0008917:	83 c4 10             	add    $0x10,%esp
c000891a:	83 ec 04             	sub    $0x4,%esp
c000891d:	68 00 04 00 00       	push   $0x400
c0008922:	6a 00                	push   $0x0
c0008924:	ff 75 ec             	pushl  -0x14(%ebp)
c0008927:	e8 69 a4 ff ff       	call   c0002d95 <memset>
c000892c:	83 c4 10             	add    $0x10,%esp
c000892f:	c7 c0 40 2c 01 c0    	mov    $0xc0012c40,%eax
c0008935:	8b 00                	mov    (%eax),%eax
c0008937:	83 ec 04             	sub    $0x4,%esp
c000893a:	ff 75 ec             	pushl  -0x14(%ebp)
c000893d:	ff 75 e4             	pushl  -0x1c(%ebp)
c0008940:	50                   	push   %eax
c0008941:	e8 d4 e7 ff ff       	call   c000711a <inode_sync>
c0008946:	83 c4 10             	add    $0x10,%esp
c0008949:	8b 55 e8             	mov    -0x18(%ebp),%edx
c000894c:	c7 c0 40 2c 01 c0    	mov    $0xc0012c40,%eax
c0008952:	8b 00                	mov    (%eax),%eax
c0008954:	83 ec 04             	sub    $0x4,%esp
c0008957:	6a 00                	push   $0x0
c0008959:	52                   	push   %edx
c000895a:	50                   	push   %eax
c000895b:	e8 29 fd ff ff       	call   c0008689 <bitmap_sync>
c0008960:	83 c4 10             	add    $0x10,%esp
c0008963:	8b 45 e4             	mov    -0x1c(%ebp),%eax
c0008966:	8d 50 44             	lea    0x44(%eax),%edx
c0008969:	c7 c0 40 2c 01 c0    	mov    $0xc0012c40,%eax
c000896f:	8b 00                	mov    (%eax),%eax
c0008971:	83 c0 30             	add    $0x30,%eax
c0008974:	83 ec 08             	sub    $0x8,%esp
c0008977:	52                   	push   %edx
c0008978:	50                   	push   %eax
c0008979:	e8 f3 a0 ff ff       	call   c0002a71 <list_push>
c000897e:	83 c4 10             	add    $0x10,%esp
c0008981:	8b 45 e4             	mov    -0x1c(%ebp),%eax
c0008984:	c7 40 08 01 00 00 00 	movl   $0x1,0x8(%eax)
c000898b:	83 ec 0c             	sub    $0xc,%esp
c000898e:	ff 75 ec             	pushl  -0x14(%ebp)
c0008991:	e8 77 b5 ff ff       	call   c0003f0d <sys_free>
c0008996:	83 c4 10             	add    $0x10,%esp
c0008999:	83 ec 0c             	sub    $0xc,%esp
c000899c:	ff 75 f0             	pushl  -0x10(%ebp)
c000899f:	e8 b0 fb ff ff       	call   c0008554 <pcb_fd_install>
c00089a4:	83 c4 10             	add    $0x10,%esp
c00089a7:	eb 78                	jmp    c0008a21 <file_create+0x2ff>
c00089a9:	0f b6 45 f7          	movzbl -0x9(%ebp),%eax
c00089ad:	83 f8 02             	cmp    $0x2,%eax
c00089b0:	74 30                	je     c00089e2 <file_create+0x2c0>
c00089b2:	83 f8 03             	cmp    $0x3,%eax
c00089b5:	74 07                	je     c00089be <file_create+0x29c>
c00089b7:	83 f8 01             	cmp    $0x1,%eax
c00089ba:	74 34                	je     c00089f0 <file_create+0x2ce>
c00089bc:	eb 50                	jmp    c0008a0e <file_create+0x2ec>
c00089be:	8b 55 f0             	mov    -0x10(%ebp),%edx
c00089c1:	89 d0                	mov    %edx,%eax
c00089c3:	01 c0                	add    %eax,%eax
c00089c5:	01 d0                	add    %edx,%eax
c00089c7:	c1 e0 02             	shl    $0x2,%eax
c00089ca:	c7 c2 40 42 01 c0    	mov    $0xc0014240,%edx
c00089d0:	01 d0                	add    %edx,%eax
c00089d2:	83 ec 04             	sub    $0x4,%esp
c00089d5:	6a 0c                	push   $0xc
c00089d7:	6a 00                	push   $0x0
c00089d9:	50                   	push   %eax
c00089da:	e8 b6 a3 ff ff       	call   c0002d95 <memset>
c00089df:	83 c4 10             	add    $0x10,%esp
c00089e2:	83 ec 0c             	sub    $0xc,%esp
c00089e5:	ff 75 e4             	pushl  -0x1c(%ebp)
c00089e8:	e8 20 b5 ff ff       	call   c0003f0d <sys_free>
c00089ed:	83 c4 10             	add    $0x10,%esp
c00089f0:	8b 45 e8             	mov    -0x18(%ebp),%eax
c00089f3:	c7 c2 40 2c 01 c0    	mov    $0xc0012c40,%edx
c00089f9:	8b 12                	mov    (%edx),%edx
c00089fb:	83 c2 28             	add    $0x28,%edx
c00089fe:	83 ec 04             	sub    $0x4,%esp
c0008a01:	6a 00                	push   $0x0
c0008a03:	50                   	push   %eax
c0008a04:	52                   	push   %edx
c0008a05:	e8 ff a7 ff ff       	call   c0003209 <bitmap_set>
c0008a0a:	83 c4 10             	add    $0x10,%esp
c0008a0d:	90                   	nop
c0008a0e:	83 ec 0c             	sub    $0xc,%esp
c0008a11:	ff 75 ec             	pushl  -0x14(%ebp)
c0008a14:	e8 f4 b4 ff ff       	call   c0003f0d <sys_free>
c0008a19:	83 c4 10             	add    $0x10,%esp
c0008a1c:	b8 ff ff ff ff       	mov    $0xffffffff,%eax
c0008a21:	8d 65 f8             	lea    -0x8(%ebp),%esp
c0008a24:	5b                   	pop    %ebx
c0008a25:	5e                   	pop    %esi
c0008a26:	5d                   	pop    %ebp
c0008a27:	c3                   	ret    

c0008a28 <file_open>:
c0008a28:	55                   	push   %ebp
c0008a29:	89 e5                	mov    %esp,%ebp
c0008a2b:	56                   	push   %esi
c0008a2c:	53                   	push   %ebx
c0008a2d:	83 ec 20             	sub    $0x20,%esp
c0008a30:	e8 c0 8f ff ff       	call   c00019f5 <__x86.get_pc_thunk.bx>
c0008a35:	81 c3 cb 95 00 00    	add    $0x95cb,%ebx
c0008a3b:	8b 45 0c             	mov    0xc(%ebp),%eax
c0008a3e:	88 45 e4             	mov    %al,-0x1c(%ebp)
c0008a41:	e8 a0 fa ff ff       	call   c00084e6 <get_free_slot_in_global>
c0008a46:	89 45 f4             	mov    %eax,-0xc(%ebp)
c0008a49:	83 7d f4 ff          	cmpl   $0xffffffff,-0xc(%ebp)
c0008a4d:	75 1c                	jne    c0008a6b <file_open+0x43>
c0008a4f:	83 ec 0c             	sub    $0xc,%esp
c0008a52:	8d 83 ff b9 ff ff    	lea    -0x4601(%ebx),%eax
c0008a58:	50                   	push   %eax
c0008a59:	e8 13 d9 ff ff       	call   c0006371 <printk>
c0008a5e:	83 c4 10             	add    $0x10,%esp
c0008a61:	b8 ff ff ff ff       	mov    $0xffffffff,%eax
c0008a66:	e9 fd 00 00 00       	jmp    c0008b68 <file_open+0x140>
c0008a6b:	c7 c0 40 2c 01 c0    	mov    $0xc0012c40,%eax
c0008a71:	8b 00                	mov    (%eax),%eax
c0008a73:	83 ec 08             	sub    $0x8,%esp
c0008a76:	ff 75 08             	pushl  0x8(%ebp)
c0008a79:	50                   	push   %eax
c0008a7a:	e8 c5 e7 ff ff       	call   c0007244 <inode_open>
c0008a7f:	83 c4 10             	add    $0x10,%esp
c0008a82:	89 c6                	mov    %eax,%esi
c0008a84:	c7 c1 40 42 01 c0    	mov    $0xc0014240,%ecx
c0008a8a:	8b 55 f4             	mov    -0xc(%ebp),%edx
c0008a8d:	89 d0                	mov    %edx,%eax
c0008a8f:	01 c0                	add    %eax,%eax
c0008a91:	01 d0                	add    %edx,%eax
c0008a93:	c1 e0 02             	shl    $0x2,%eax
c0008a96:	01 c8                	add    %ecx,%eax
c0008a98:	83 c0 08             	add    $0x8,%eax
c0008a9b:	89 30                	mov    %esi,(%eax)
c0008a9d:	c7 c1 40 42 01 c0    	mov    $0xc0014240,%ecx
c0008aa3:	8b 55 f4             	mov    -0xc(%ebp),%edx
c0008aa6:	89 d0                	mov    %edx,%eax
c0008aa8:	01 c0                	add    %eax,%eax
c0008aaa:	01 d0                	add    %edx,%eax
c0008aac:	c1 e0 02             	shl    $0x2,%eax
c0008aaf:	01 c8                	add    %ecx,%eax
c0008ab1:	c7 00 00 00 00 00    	movl   $0x0,(%eax)
c0008ab7:	0f b6 4d e4          	movzbl -0x1c(%ebp),%ecx
c0008abb:	c7 c6 40 42 01 c0    	mov    $0xc0014240,%esi
c0008ac1:	8b 55 f4             	mov    -0xc(%ebp),%edx
c0008ac4:	89 d0                	mov    %edx,%eax
c0008ac6:	01 c0                	add    %eax,%eax
c0008ac8:	01 d0                	add    %edx,%eax
c0008aca:	c1 e0 02             	shl    $0x2,%eax
c0008acd:	01 f0                	add    %esi,%eax
c0008acf:	83 c0 04             	add    $0x4,%eax
c0008ad2:	89 08                	mov    %ecx,(%eax)
c0008ad4:	c7 c1 40 42 01 c0    	mov    $0xc0014240,%ecx
c0008ada:	8b 55 f4             	mov    -0xc(%ebp),%edx
c0008add:	89 d0                	mov    %edx,%eax
c0008adf:	01 c0                	add    %eax,%eax
c0008ae1:	01 d0                	add    %edx,%eax
c0008ae3:	c1 e0 02             	shl    $0x2,%eax
c0008ae6:	01 c8                	add    %ecx,%eax
c0008ae8:	83 c0 08             	add    $0x8,%eax
c0008aeb:	8b 00                	mov    (%eax),%eax
c0008aed:	83 c0 0c             	add    $0xc,%eax
c0008af0:	89 45 f0             	mov    %eax,-0x10(%ebp)
c0008af3:	0f b6 45 e4          	movzbl -0x1c(%ebp),%eax
c0008af7:	83 e0 01             	and    $0x1,%eax
c0008afa:	85 c0                	test   %eax,%eax
c0008afc:	75 0b                	jne    c0008b09 <file_open+0xe1>
c0008afe:	0f b6 45 e4          	movzbl -0x1c(%ebp),%eax
c0008b02:	83 e0 02             	and    $0x2,%eax
c0008b05:	85 c0                	test   %eax,%eax
c0008b07:	74 51                	je     c0008b5a <file_open+0x132>
c0008b09:	e8 1f 94 ff ff       	call   c0001f2d <intr_disable>
c0008b0e:	89 45 ec             	mov    %eax,-0x14(%ebp)
c0008b11:	8b 45 f0             	mov    -0x10(%ebp),%eax
c0008b14:	8b 00                	mov    (%eax),%eax
c0008b16:	85 c0                	test   %eax,%eax
c0008b18:	75 19                	jne    c0008b33 <file_open+0x10b>
c0008b1a:	8b 45 f0             	mov    -0x10(%ebp),%eax
c0008b1d:	c7 00 01 00 00 00    	movl   $0x1,(%eax)
c0008b23:	83 ec 0c             	sub    $0xc,%esp
c0008b26:	ff 75 ec             	pushl  -0x14(%ebp)
c0008b29:	e8 32 94 ff ff       	call   c0001f60 <intr_set_status>
c0008b2e:	83 c4 10             	add    $0x10,%esp
c0008b31:	eb 27                	jmp    c0008b5a <file_open+0x132>
c0008b33:	83 ec 0c             	sub    $0xc,%esp
c0008b36:	ff 75 ec             	pushl  -0x14(%ebp)
c0008b39:	e8 22 94 ff ff       	call   c0001f60 <intr_set_status>
c0008b3e:	83 c4 10             	add    $0x10,%esp
c0008b41:	83 ec 0c             	sub    $0xc,%esp
c0008b44:	8d 83 18 ba ff ff    	lea    -0x45e8(%ebx),%eax
c0008b4a:	50                   	push   %eax
c0008b4b:	e8 21 d8 ff ff       	call   c0006371 <printk>
c0008b50:	83 c4 10             	add    $0x10,%esp
c0008b53:	b8 ff ff ff ff       	mov    $0xffffffff,%eax
c0008b58:	eb 0e                	jmp    c0008b68 <file_open+0x140>
c0008b5a:	83 ec 0c             	sub    $0xc,%esp
c0008b5d:	ff 75 f4             	pushl  -0xc(%ebp)
c0008b60:	e8 ef f9 ff ff       	call   c0008554 <pcb_fd_install>
c0008b65:	83 c4 10             	add    $0x10,%esp
c0008b68:	8d 65 f8             	lea    -0x8(%ebp),%esp
c0008b6b:	5b                   	pop    %ebx
c0008b6c:	5e                   	pop    %esi
c0008b6d:	5d                   	pop    %ebp
c0008b6e:	c3                   	ret    

c0008b6f <file_write>:
c0008b6f:	55                   	push   %ebp
c0008b70:	89 e5                	mov    %esp,%ebp
c0008b72:	53                   	push   %ebx
c0008b73:	83 ec 54             	sub    $0x54,%esp
c0008b76:	e8 7a 8e ff ff       	call   c00019f5 <__x86.get_pc_thunk.bx>
c0008b7b:	81 c3 85 94 00 00    	add    $0x9485,%ebx
c0008b81:	8b 45 08             	mov    0x8(%ebp),%eax
c0008b84:	8b 40 08             	mov    0x8(%eax),%eax
c0008b87:	8b 50 04             	mov    0x4(%eax),%edx
c0008b8a:	8b 45 10             	mov    0x10(%ebp),%eax
c0008b8d:	01 d0                	add    %edx,%eax
c0008b8f:	3d 00 18 01 00       	cmp    $0x11800,%eax
c0008b94:	76 1c                	jbe    c0008bb2 <file_write+0x43>
c0008b96:	83 ec 0c             	sub    $0xc,%esp
c0008b99:	8d 83 44 ba ff ff    	lea    -0x45bc(%ebx),%eax
c0008b9f:	50                   	push   %eax
c0008ba0:	e8 cc d7 ff ff       	call   c0006371 <printk>
c0008ba5:	83 c4 10             	add    $0x10,%esp
c0008ba8:	b8 ff ff ff ff       	mov    $0xffffffff,%eax
c0008bad:	e9 5e 06 00 00       	jmp    c0009210 <file_write+0x6a1>
c0008bb2:	83 ec 0c             	sub    $0xc,%esp
c0008bb5:	68 00 02 00 00       	push   $0x200
c0008bba:	e8 c8 ad ff ff       	call   c0003987 <sys_malloc>
c0008bbf:	83 c4 10             	add    $0x10,%esp
c0008bc2:	89 45 e0             	mov    %eax,-0x20(%ebp)
c0008bc5:	83 7d e0 00          	cmpl   $0x0,-0x20(%ebp)
c0008bc9:	75 1c                	jne    c0008be7 <file_write+0x78>
c0008bcb:	83 ec 0c             	sub    $0xc,%esp
c0008bce:	8d 83 7c ba ff ff    	lea    -0x4584(%ebx),%eax
c0008bd4:	50                   	push   %eax
c0008bd5:	e8 97 d7 ff ff       	call   c0006371 <printk>
c0008bda:	83 c4 10             	add    $0x10,%esp
c0008bdd:	b8 ff ff ff ff       	mov    $0xffffffff,%eax
c0008be2:	e9 29 06 00 00       	jmp    c0009210 <file_write+0x6a1>
c0008be7:	83 ec 0c             	sub    $0xc,%esp
c0008bea:	68 30 02 00 00       	push   $0x230
c0008bef:	e8 93 ad ff ff       	call   c0003987 <sys_malloc>
c0008bf4:	83 c4 10             	add    $0x10,%esp
c0008bf7:	89 45 dc             	mov    %eax,-0x24(%ebp)
c0008bfa:	83 7d dc 00          	cmpl   $0x0,-0x24(%ebp)
c0008bfe:	75 1c                	jne    c0008c1c <file_write+0xad>
c0008c00:	83 ec 0c             	sub    $0xc,%esp
c0008c03:	8d 83 a8 ba ff ff    	lea    -0x4558(%ebx),%eax
c0008c09:	50                   	push   %eax
c0008c0a:	e8 62 d7 ff ff       	call   c0006371 <printk>
c0008c0f:	83 c4 10             	add    $0x10,%esp
c0008c12:	b8 ff ff ff ff       	mov    $0xffffffff,%eax
c0008c17:	e9 f4 05 00 00       	jmp    c0009210 <file_write+0x6a1>
c0008c1c:	8b 45 0c             	mov    0xc(%ebp),%eax
c0008c1f:	89 45 f4             	mov    %eax,-0xc(%ebp)
c0008c22:	c7 45 f0 00 00 00 00 	movl   $0x0,-0x10(%ebp)
c0008c29:	8b 45 10             	mov    0x10(%ebp),%eax
c0008c2c:	89 45 ec             	mov    %eax,-0x14(%ebp)
c0008c2f:	c7 45 d8 ff ff ff ff 	movl   $0xffffffff,-0x28(%ebp)
c0008c36:	c7 45 d4 00 00 00 00 	movl   $0x0,-0x2c(%ebp)
c0008c3d:	8b 45 08             	mov    0x8(%ebp),%eax
c0008c40:	8b 40 08             	mov    0x8(%eax),%eax
c0008c43:	8b 40 10             	mov    0x10(%eax),%eax
c0008c46:	85 c0                	test   %eax,%eax
c0008c48:	75 76                	jne    c0008cc0 <file_write+0x151>
c0008c4a:	c7 c0 40 2c 01 c0    	mov    $0xc0012c40,%eax
c0008c50:	8b 00                	mov    (%eax),%eax
c0008c52:	83 ec 0c             	sub    $0xc,%esp
c0008c55:	50                   	push   %eax
c0008c56:	e8 cd f9 ff ff       	call   c0008628 <block_bitmap_alloc>
c0008c5b:	83 c4 10             	add    $0x10,%esp
c0008c5e:	89 45 d8             	mov    %eax,-0x28(%ebp)
c0008c61:	83 7d d8 ff          	cmpl   $0xffffffff,-0x28(%ebp)
c0008c65:	75 1c                	jne    c0008c83 <file_write+0x114>
c0008c67:	83 ec 0c             	sub    $0xc,%esp
c0008c6a:	8d 83 d8 ba ff ff    	lea    -0x4528(%ebx),%eax
c0008c70:	50                   	push   %eax
c0008c71:	e8 fb d6 ff ff       	call   c0006371 <printk>
c0008c76:	83 c4 10             	add    $0x10,%esp
c0008c79:	b8 ff ff ff ff       	mov    $0xffffffff,%eax
c0008c7e:	e9 8d 05 00 00       	jmp    c0009210 <file_write+0x6a1>
c0008c83:	8b 45 08             	mov    0x8(%ebp),%eax
c0008c86:	8b 40 08             	mov    0x8(%eax),%eax
c0008c89:	8b 55 d8             	mov    -0x28(%ebp),%edx
c0008c8c:	89 50 10             	mov    %edx,0x10(%eax)
c0008c8f:	8b 55 d8             	mov    -0x28(%ebp),%edx
c0008c92:	c7 c0 40 2c 01 c0    	mov    $0xc0012c40,%eax
c0008c98:	8b 00                	mov    (%eax),%eax
c0008c9a:	8b 40 1c             	mov    0x1c(%eax),%eax
c0008c9d:	8b 40 28             	mov    0x28(%eax),%eax
c0008ca0:	29 c2                	sub    %eax,%edx
c0008ca2:	89 d0                	mov    %edx,%eax
c0008ca4:	89 45 d4             	mov    %eax,-0x2c(%ebp)
c0008ca7:	c7 c0 40 2c 01 c0    	mov    $0xc0012c40,%eax
c0008cad:	8b 00                	mov    (%eax),%eax
c0008caf:	83 ec 04             	sub    $0x4,%esp
c0008cb2:	6a 01                	push   $0x1
c0008cb4:	ff 75 d4             	pushl  -0x2c(%ebp)
c0008cb7:	50                   	push   %eax
c0008cb8:	e8 cc f9 ff ff       	call   c0008689 <bitmap_sync>
c0008cbd:	83 c4 10             	add    $0x10,%esp
c0008cc0:	8b 45 08             	mov    0x8(%ebp),%eax
c0008cc3:	8b 40 08             	mov    0x8(%eax),%eax
c0008cc6:	8b 40 04             	mov    0x4(%eax),%eax
c0008cc9:	c1 e8 09             	shr    $0x9,%eax
c0008ccc:	83 c0 01             	add    $0x1,%eax
c0008ccf:	89 45 d0             	mov    %eax,-0x30(%ebp)
c0008cd2:	8b 45 08             	mov    0x8(%ebp),%eax
c0008cd5:	8b 40 08             	mov    0x8(%eax),%eax
c0008cd8:	8b 50 04             	mov    0x4(%eax),%edx
c0008cdb:	8b 45 10             	mov    0x10(%ebp),%eax
c0008cde:	01 d0                	add    %edx,%eax
c0008ce0:	c1 e8 09             	shr    $0x9,%eax
c0008ce3:	83 c0 01             	add    $0x1,%eax
c0008ce6:	89 45 cc             	mov    %eax,-0x34(%ebp)
c0008ce9:	8b 45 cc             	mov    -0x34(%ebp),%eax
c0008cec:	2b 45 d0             	sub    -0x30(%ebp),%eax
c0008cef:	89 45 c8             	mov    %eax,-0x38(%ebp)
c0008cf2:	83 7d c8 00          	cmpl   $0x0,-0x38(%ebp)
c0008cf6:	75 66                	jne    c0008d5e <file_write+0x1ef>
c0008cf8:	83 7d cc 0c          	cmpl   $0xc,-0x34(%ebp)
c0008cfc:	77 2e                	ja     c0008d2c <file_write+0x1bd>
c0008cfe:	8b 45 d0             	mov    -0x30(%ebp),%eax
c0008d01:	83 e8 01             	sub    $0x1,%eax
c0008d04:	89 45 e8             	mov    %eax,-0x18(%ebp)
c0008d07:	8b 45 08             	mov    0x8(%ebp),%eax
c0008d0a:	8b 40 08             	mov    0x8(%eax),%eax
c0008d0d:	8b 55 e8             	mov    -0x18(%ebp),%edx
c0008d10:	8d 0c 95 00 00 00 00 	lea    0x0(,%edx,4),%ecx
c0008d17:	8b 55 dc             	mov    -0x24(%ebp),%edx
c0008d1a:	01 ca                	add    %ecx,%edx
c0008d1c:	8b 4d e8             	mov    -0x18(%ebp),%ecx
c0008d1f:	83 c1 04             	add    $0x4,%ecx
c0008d22:	8b 04 88             	mov    (%eax,%ecx,4),%eax
c0008d25:	89 02                	mov    %eax,(%edx)
c0008d27:	e9 71 03 00 00       	jmp    c000909d <file_write+0x52e>
c0008d2c:	8b 45 08             	mov    0x8(%ebp),%eax
c0008d2f:	8b 40 08             	mov    0x8(%eax),%eax
c0008d32:	8b 40 40             	mov    0x40(%eax),%eax
c0008d35:	89 45 c4             	mov    %eax,-0x3c(%ebp)
c0008d38:	8b 45 dc             	mov    -0x24(%ebp),%eax
c0008d3b:	8d 48 30             	lea    0x30(%eax),%ecx
c0008d3e:	8b 55 c4             	mov    -0x3c(%ebp),%edx
c0008d41:	c7 c0 40 2c 01 c0    	mov    $0xc0012c40,%eax
c0008d47:	8b 00                	mov    (%eax),%eax
c0008d49:	8b 40 08             	mov    0x8(%eax),%eax
c0008d4c:	6a 01                	push   $0x1
c0008d4e:	51                   	push   %ecx
c0008d4f:	52                   	push   %edx
c0008d50:	50                   	push   %eax
c0008d51:	e8 cc d9 ff ff       	call   c0006722 <ide_read>
c0008d56:	83 c4 10             	add    $0x10,%esp
c0008d59:	e9 3f 03 00 00       	jmp    c000909d <file_write+0x52e>
c0008d5e:	83 7d cc 0c          	cmpl   $0xc,-0x34(%ebp)
c0008d62:	0f 87 d8 00 00 00    	ja     c0008e40 <file_write+0x2d1>
c0008d68:	8b 45 d0             	mov    -0x30(%ebp),%eax
c0008d6b:	83 e8 01             	sub    $0x1,%eax
c0008d6e:	89 45 e8             	mov    %eax,-0x18(%ebp)
c0008d71:	8b 45 08             	mov    0x8(%ebp),%eax
c0008d74:	8b 40 08             	mov    0x8(%eax),%eax
c0008d77:	8b 55 e8             	mov    -0x18(%ebp),%edx
c0008d7a:	8d 0c 95 00 00 00 00 	lea    0x0(,%edx,4),%ecx
c0008d81:	8b 55 dc             	mov    -0x24(%ebp),%edx
c0008d84:	01 ca                	add    %ecx,%edx
c0008d86:	8b 4d e8             	mov    -0x18(%ebp),%ecx
c0008d89:	83 c1 04             	add    $0x4,%ecx
c0008d8c:	8b 04 88             	mov    (%eax,%ecx,4),%eax
c0008d8f:	89 02                	mov    %eax,(%edx)
c0008d91:	8b 45 d0             	mov    -0x30(%ebp),%eax
c0008d94:	89 45 e8             	mov    %eax,-0x18(%ebp)
c0008d97:	e9 93 00 00 00       	jmp    c0008e2f <file_write+0x2c0>
c0008d9c:	c7 c0 40 2c 01 c0    	mov    $0xc0012c40,%eax
c0008da2:	8b 00                	mov    (%eax),%eax
c0008da4:	83 ec 0c             	sub    $0xc,%esp
c0008da7:	50                   	push   %eax
c0008da8:	e8 7b f8 ff ff       	call   c0008628 <block_bitmap_alloc>
c0008dad:	83 c4 10             	add    $0x10,%esp
c0008db0:	89 45 d8             	mov    %eax,-0x28(%ebp)
c0008db3:	83 7d d8 ff          	cmpl   $0xffffffff,-0x28(%ebp)
c0008db7:	75 1c                	jne    c0008dd5 <file_write+0x266>
c0008db9:	83 ec 0c             	sub    $0xc,%esp
c0008dbc:	8d 83 00 bb ff ff    	lea    -0x4500(%ebx),%eax
c0008dc2:	50                   	push   %eax
c0008dc3:	e8 a9 d5 ff ff       	call   c0006371 <printk>
c0008dc8:	83 c4 10             	add    $0x10,%esp
c0008dcb:	b8 ff ff ff ff       	mov    $0xffffffff,%eax
c0008dd0:	e9 3b 04 00 00       	jmp    c0009210 <file_write+0x6a1>
c0008dd5:	8b 45 e8             	mov    -0x18(%ebp),%eax
c0008dd8:	8d 14 85 00 00 00 00 	lea    0x0(,%eax,4),%edx
c0008ddf:	8b 45 dc             	mov    -0x24(%ebp),%eax
c0008de2:	01 d0                	add    %edx,%eax
c0008de4:	8b 55 d8             	mov    -0x28(%ebp),%edx
c0008de7:	89 10                	mov    %edx,(%eax)
c0008de9:	8b 55 08             	mov    0x8(%ebp),%edx
c0008dec:	8b 52 08             	mov    0x8(%edx),%edx
c0008def:	8b 00                	mov    (%eax),%eax
c0008df1:	8b 4d e8             	mov    -0x18(%ebp),%ecx
c0008df4:	83 c1 04             	add    $0x4,%ecx
c0008df7:	89 04 8a             	mov    %eax,(%edx,%ecx,4)
c0008dfa:	8b 55 d8             	mov    -0x28(%ebp),%edx
c0008dfd:	c7 c0 40 2c 01 c0    	mov    $0xc0012c40,%eax
c0008e03:	8b 00                	mov    (%eax),%eax
c0008e05:	8b 40 1c             	mov    0x1c(%eax),%eax
c0008e08:	8b 40 28             	mov    0x28(%eax),%eax
c0008e0b:	29 c2                	sub    %eax,%edx
c0008e0d:	89 d0                	mov    %edx,%eax
c0008e0f:	89 45 d4             	mov    %eax,-0x2c(%ebp)
c0008e12:	c7 c0 40 2c 01 c0    	mov    $0xc0012c40,%eax
c0008e18:	8b 00                	mov    (%eax),%eax
c0008e1a:	83 ec 04             	sub    $0x4,%esp
c0008e1d:	6a 01                	push   $0x1
c0008e1f:	ff 75 d4             	pushl  -0x2c(%ebp)
c0008e22:	50                   	push   %eax
c0008e23:	e8 61 f8 ff ff       	call   c0008689 <bitmap_sync>
c0008e28:	83 c4 10             	add    $0x10,%esp
c0008e2b:	83 45 e8 01          	addl   $0x1,-0x18(%ebp)
c0008e2f:	8b 45 e8             	mov    -0x18(%ebp),%eax
c0008e32:	3b 45 cc             	cmp    -0x34(%ebp),%eax
c0008e35:	0f 82 61 ff ff ff    	jb     c0008d9c <file_write+0x22d>
c0008e3b:	e9 5d 02 00 00       	jmp    c000909d <file_write+0x52e>
c0008e40:	83 7d d0 0c          	cmpl   $0xc,-0x30(%ebp)
c0008e44:	0f 87 6a 01 00 00    	ja     c0008fb4 <file_write+0x445>
c0008e4a:	83 7d cc 0c          	cmpl   $0xc,-0x34(%ebp)
c0008e4e:	0f 86 60 01 00 00    	jbe    c0008fb4 <file_write+0x445>
c0008e54:	8b 45 d0             	mov    -0x30(%ebp),%eax
c0008e57:	83 e8 01             	sub    $0x1,%eax
c0008e5a:	89 45 e8             	mov    %eax,-0x18(%ebp)
c0008e5d:	8b 45 08             	mov    0x8(%ebp),%eax
c0008e60:	8b 40 08             	mov    0x8(%eax),%eax
c0008e63:	8b 55 e8             	mov    -0x18(%ebp),%edx
c0008e66:	8d 0c 95 00 00 00 00 	lea    0x0(,%edx,4),%ecx
c0008e6d:	8b 55 dc             	mov    -0x24(%ebp),%edx
c0008e70:	01 ca                	add    %ecx,%edx
c0008e72:	8b 4d e8             	mov    -0x18(%ebp),%ecx
c0008e75:	83 c1 04             	add    $0x4,%ecx
c0008e78:	8b 04 88             	mov    (%eax,%ecx,4),%eax
c0008e7b:	89 02                	mov    %eax,(%edx)
c0008e7d:	c7 c0 40 2c 01 c0    	mov    $0xc0012c40,%eax
c0008e83:	8b 00                	mov    (%eax),%eax
c0008e85:	83 ec 0c             	sub    $0xc,%esp
c0008e88:	50                   	push   %eax
c0008e89:	e8 9a f7 ff ff       	call   c0008628 <block_bitmap_alloc>
c0008e8e:	83 c4 10             	add    $0x10,%esp
c0008e91:	89 45 d8             	mov    %eax,-0x28(%ebp)
c0008e94:	83 7d d8 ff          	cmpl   $0xffffffff,-0x28(%ebp)
c0008e98:	75 1c                	jne    c0008eb6 <file_write+0x347>
c0008e9a:	83 ec 0c             	sub    $0xc,%esp
c0008e9d:	8d 83 38 bb ff ff    	lea    -0x44c8(%ebx),%eax
c0008ea3:	50                   	push   %eax
c0008ea4:	e8 c8 d4 ff ff       	call   c0006371 <printk>
c0008ea9:	83 c4 10             	add    $0x10,%esp
c0008eac:	b8 ff ff ff ff       	mov    $0xffffffff,%eax
c0008eb1:	e9 5a 03 00 00       	jmp    c0009210 <file_write+0x6a1>
c0008eb6:	8b 45 08             	mov    0x8(%ebp),%eax
c0008eb9:	8b 40 08             	mov    0x8(%eax),%eax
c0008ebc:	8b 55 d8             	mov    -0x28(%ebp),%edx
c0008ebf:	89 50 40             	mov    %edx,0x40(%eax)
c0008ec2:	8b 40 40             	mov    0x40(%eax),%eax
c0008ec5:	89 45 c4             	mov    %eax,-0x3c(%ebp)
c0008ec8:	8b 45 d0             	mov    -0x30(%ebp),%eax
c0008ecb:	89 45 e8             	mov    %eax,-0x18(%ebp)
c0008ece:	e9 af 00 00 00       	jmp    c0008f82 <file_write+0x413>
c0008ed3:	c7 c0 40 2c 01 c0    	mov    $0xc0012c40,%eax
c0008ed9:	8b 00                	mov    (%eax),%eax
c0008edb:	83 ec 0c             	sub    $0xc,%esp
c0008ede:	50                   	push   %eax
c0008edf:	e8 44 f7 ff ff       	call   c0008628 <block_bitmap_alloc>
c0008ee4:	83 c4 10             	add    $0x10,%esp
c0008ee7:	89 45 d8             	mov    %eax,-0x28(%ebp)
c0008eea:	83 7d d8 ff          	cmpl   $0xffffffff,-0x28(%ebp)
c0008eee:	75 1c                	jne    c0008f0c <file_write+0x39d>
c0008ef0:	83 ec 0c             	sub    $0xc,%esp
c0008ef3:	8d 83 38 bb ff ff    	lea    -0x44c8(%ebx),%eax
c0008ef9:	50                   	push   %eax
c0008efa:	e8 72 d4 ff ff       	call   c0006371 <printk>
c0008eff:	83 c4 10             	add    $0x10,%esp
c0008f02:	b8 ff ff ff ff       	mov    $0xffffffff,%eax
c0008f07:	e9 04 03 00 00       	jmp    c0009210 <file_write+0x6a1>
c0008f0c:	83 7d e8 0b          	cmpl   $0xb,-0x18(%ebp)
c0008f10:	77 27                	ja     c0008f39 <file_write+0x3ca>
c0008f12:	8b 45 e8             	mov    -0x18(%ebp),%eax
c0008f15:	8d 14 85 00 00 00 00 	lea    0x0(,%eax,4),%edx
c0008f1c:	8b 45 dc             	mov    -0x24(%ebp),%eax
c0008f1f:	01 d0                	add    %edx,%eax
c0008f21:	8b 55 d8             	mov    -0x28(%ebp),%edx
c0008f24:	89 10                	mov    %edx,(%eax)
c0008f26:	8b 55 08             	mov    0x8(%ebp),%edx
c0008f29:	8b 52 08             	mov    0x8(%edx),%edx
c0008f2c:	8b 00                	mov    (%eax),%eax
c0008f2e:	8b 4d e8             	mov    -0x18(%ebp),%ecx
c0008f31:	83 c1 04             	add    $0x4,%ecx
c0008f34:	89 04 8a             	mov    %eax,(%edx,%ecx,4)
c0008f37:	eb 14                	jmp    c0008f4d <file_write+0x3de>
c0008f39:	8b 45 e8             	mov    -0x18(%ebp),%eax
c0008f3c:	8d 14 85 00 00 00 00 	lea    0x0(,%eax,4),%edx
c0008f43:	8b 45 dc             	mov    -0x24(%ebp),%eax
c0008f46:	01 c2                	add    %eax,%edx
c0008f48:	8b 45 d8             	mov    -0x28(%ebp),%eax
c0008f4b:	89 02                	mov    %eax,(%edx)
c0008f4d:	8b 55 d8             	mov    -0x28(%ebp),%edx
c0008f50:	c7 c0 40 2c 01 c0    	mov    $0xc0012c40,%eax
c0008f56:	8b 00                	mov    (%eax),%eax
c0008f58:	8b 40 1c             	mov    0x1c(%eax),%eax
c0008f5b:	8b 40 28             	mov    0x28(%eax),%eax
c0008f5e:	29 c2                	sub    %eax,%edx
c0008f60:	89 d0                	mov    %edx,%eax
c0008f62:	89 45 d4             	mov    %eax,-0x2c(%ebp)
c0008f65:	c7 c0 40 2c 01 c0    	mov    $0xc0012c40,%eax
c0008f6b:	8b 00                	mov    (%eax),%eax
c0008f6d:	83 ec 04             	sub    $0x4,%esp
c0008f70:	6a 01                	push   $0x1
c0008f72:	ff 75 d4             	pushl  -0x2c(%ebp)
c0008f75:	50                   	push   %eax
c0008f76:	e8 0e f7 ff ff       	call   c0008689 <bitmap_sync>
c0008f7b:	83 c4 10             	add    $0x10,%esp
c0008f7e:	83 45 e8 01          	addl   $0x1,-0x18(%ebp)
c0008f82:	8b 45 e8             	mov    -0x18(%ebp),%eax
c0008f85:	3b 45 cc             	cmp    -0x34(%ebp),%eax
c0008f88:	0f 82 45 ff ff ff    	jb     c0008ed3 <file_write+0x364>
c0008f8e:	8b 45 dc             	mov    -0x24(%ebp),%eax
c0008f91:	8d 48 30             	lea    0x30(%eax),%ecx
c0008f94:	8b 55 c4             	mov    -0x3c(%ebp),%edx
c0008f97:	c7 c0 40 2c 01 c0    	mov    $0xc0012c40,%eax
c0008f9d:	8b 00                	mov    (%eax),%eax
c0008f9f:	8b 40 08             	mov    0x8(%eax),%eax
c0008fa2:	6a 01                	push   $0x1
c0008fa4:	51                   	push   %ecx
c0008fa5:	52                   	push   %edx
c0008fa6:	50                   	push   %eax
c0008fa7:	e8 b8 d8 ff ff       	call   c0006864 <ide_write>
c0008fac:	83 c4 10             	add    $0x10,%esp
c0008faf:	e9 e9 00 00 00       	jmp    c000909d <file_write+0x52e>
c0008fb4:	8b 45 08             	mov    0x8(%ebp),%eax
c0008fb7:	8b 40 08             	mov    0x8(%eax),%eax
c0008fba:	8b 40 40             	mov    0x40(%eax),%eax
c0008fbd:	89 45 c4             	mov    %eax,-0x3c(%ebp)
c0008fc0:	8b 45 dc             	mov    -0x24(%ebp),%eax
c0008fc3:	8d 48 30             	lea    0x30(%eax),%ecx
c0008fc6:	8b 55 c4             	mov    -0x3c(%ebp),%edx
c0008fc9:	c7 c0 40 2c 01 c0    	mov    $0xc0012c40,%eax
c0008fcf:	8b 00                	mov    (%eax),%eax
c0008fd1:	8b 40 08             	mov    0x8(%eax),%eax
c0008fd4:	6a 01                	push   $0x1
c0008fd6:	51                   	push   %ecx
c0008fd7:	52                   	push   %edx
c0008fd8:	50                   	push   %eax
c0008fd9:	e8 44 d7 ff ff       	call   c0006722 <ide_read>
c0008fde:	83 c4 10             	add    $0x10,%esp
c0008fe1:	8b 45 d0             	mov    -0x30(%ebp),%eax
c0008fe4:	89 45 e8             	mov    %eax,-0x18(%ebp)
c0008fe7:	e9 84 00 00 00       	jmp    c0009070 <file_write+0x501>
c0008fec:	c7 c0 40 2c 01 c0    	mov    $0xc0012c40,%eax
c0008ff2:	8b 00                	mov    (%eax),%eax
c0008ff4:	83 ec 0c             	sub    $0xc,%esp
c0008ff7:	50                   	push   %eax
c0008ff8:	e8 2b f6 ff ff       	call   c0008628 <block_bitmap_alloc>
c0008ffd:	83 c4 10             	add    $0x10,%esp
c0009000:	89 45 d8             	mov    %eax,-0x28(%ebp)
c0009003:	83 7d d8 ff          	cmpl   $0xffffffff,-0x28(%ebp)
c0009007:	75 1c                	jne    c0009025 <file_write+0x4b6>
c0009009:	83 ec 0c             	sub    $0xc,%esp
c000900c:	8d 83 70 bb ff ff    	lea    -0x4490(%ebx),%eax
c0009012:	50                   	push   %eax
c0009013:	e8 59 d3 ff ff       	call   c0006371 <printk>
c0009018:	83 c4 10             	add    $0x10,%esp
c000901b:	b8 ff ff ff ff       	mov    $0xffffffff,%eax
c0009020:	e9 eb 01 00 00       	jmp    c0009210 <file_write+0x6a1>
c0009025:	8b 45 e8             	mov    -0x18(%ebp),%eax
c0009028:	8d 50 01             	lea    0x1(%eax),%edx
c000902b:	89 55 e8             	mov    %edx,-0x18(%ebp)
c000902e:	8d 14 85 00 00 00 00 	lea    0x0(,%eax,4),%edx
c0009035:	8b 45 dc             	mov    -0x24(%ebp),%eax
c0009038:	01 c2                	add    %eax,%edx
c000903a:	8b 45 d8             	mov    -0x28(%ebp),%eax
c000903d:	89 02                	mov    %eax,(%edx)
c000903f:	8b 55 d8             	mov    -0x28(%ebp),%edx
c0009042:	c7 c0 40 2c 01 c0    	mov    $0xc0012c40,%eax
c0009048:	8b 00                	mov    (%eax),%eax
c000904a:	8b 40 1c             	mov    0x1c(%eax),%eax
c000904d:	8b 40 28             	mov    0x28(%eax),%eax
c0009050:	29 c2                	sub    %eax,%edx
c0009052:	89 d0                	mov    %edx,%eax
c0009054:	89 45 d4             	mov    %eax,-0x2c(%ebp)
c0009057:	c7 c0 40 2c 01 c0    	mov    $0xc0012c40,%eax
c000905d:	8b 00                	mov    (%eax),%eax
c000905f:	83 ec 04             	sub    $0x4,%esp
c0009062:	6a 01                	push   $0x1
c0009064:	ff 75 d4             	pushl  -0x2c(%ebp)
c0009067:	50                   	push   %eax
c0009068:	e8 1c f6 ff ff       	call   c0008689 <bitmap_sync>
c000906d:	83 c4 10             	add    $0x10,%esp
c0009070:	8b 45 e8             	mov    -0x18(%ebp),%eax
c0009073:	3b 45 cc             	cmp    -0x34(%ebp),%eax
c0009076:	0f 82 70 ff ff ff    	jb     c0008fec <file_write+0x47d>
c000907c:	8b 45 dc             	mov    -0x24(%ebp),%eax
c000907f:	8d 48 30             	lea    0x30(%eax),%ecx
c0009082:	8b 55 c4             	mov    -0x3c(%ebp),%edx
c0009085:	c7 c0 40 2c 01 c0    	mov    $0xc0012c40,%eax
c000908b:	8b 00                	mov    (%eax),%eax
c000908d:	8b 40 08             	mov    0x8(%eax),%eax
c0009090:	6a 01                	push   $0x1
c0009092:	51                   	push   %ecx
c0009093:	52                   	push   %edx
c0009094:	50                   	push   %eax
c0009095:	e8 ca d7 ff ff       	call   c0006864 <ide_write>
c000909a:	83 c4 10             	add    $0x10,%esp
c000909d:	c7 45 e4 01 00 00 00 	movl   $0x1,-0x1c(%ebp)
c00090a4:	8b 45 08             	mov    0x8(%ebp),%eax
c00090a7:	8b 40 08             	mov    0x8(%eax),%eax
c00090aa:	8b 40 04             	mov    0x4(%eax),%eax
c00090ad:	8d 50 ff             	lea    -0x1(%eax),%edx
c00090b0:	8b 45 08             	mov    0x8(%ebp),%eax
c00090b3:	89 10                	mov    %edx,(%eax)
c00090b5:	e9 0d 01 00 00       	jmp    c00091c7 <file_write+0x658>
c00090ba:	83 ec 04             	sub    $0x4,%esp
c00090bd:	68 00 02 00 00       	push   $0x200
c00090c2:	6a 00                	push   $0x0
c00090c4:	ff 75 e0             	pushl  -0x20(%ebp)
c00090c7:	e8 c9 9c ff ff       	call   c0002d95 <memset>
c00090cc:	83 c4 10             	add    $0x10,%esp
c00090cf:	8b 45 08             	mov    0x8(%ebp),%eax
c00090d2:	8b 40 08             	mov    0x8(%eax),%eax
c00090d5:	8b 40 04             	mov    0x4(%eax),%eax
c00090d8:	c1 e8 09             	shr    $0x9,%eax
c00090db:	89 45 c0             	mov    %eax,-0x40(%ebp)
c00090de:	8b 45 c0             	mov    -0x40(%ebp),%eax
c00090e1:	8d 14 85 00 00 00 00 	lea    0x0(,%eax,4),%edx
c00090e8:	8b 45 dc             	mov    -0x24(%ebp),%eax
c00090eb:	01 d0                	add    %edx,%eax
c00090ed:	8b 00                	mov    (%eax),%eax
c00090ef:	89 45 bc             	mov    %eax,-0x44(%ebp)
c00090f2:	8b 45 08             	mov    0x8(%ebp),%eax
c00090f5:	8b 40 08             	mov    0x8(%eax),%eax
c00090f8:	8b 40 04             	mov    0x4(%eax),%eax
c00090fb:	25 ff 01 00 00       	and    $0x1ff,%eax
c0009100:	89 45 b8             	mov    %eax,-0x48(%ebp)
c0009103:	b8 00 02 00 00       	mov    $0x200,%eax
c0009108:	2b 45 b8             	sub    -0x48(%ebp),%eax
c000910b:	89 45 b4             	mov    %eax,-0x4c(%ebp)
c000910e:	8b 45 ec             	mov    -0x14(%ebp),%eax
c0009111:	39 45 b4             	cmp    %eax,-0x4c(%ebp)
c0009114:	0f 46 45 b4          	cmovbe -0x4c(%ebp),%eax
c0009118:	89 45 b0             	mov    %eax,-0x50(%ebp)
c000911b:	83 7d e4 00          	cmpl   $0x0,-0x1c(%ebp)
c000911f:	74 23                	je     c0009144 <file_write+0x5d5>
c0009121:	c7 c0 40 2c 01 c0    	mov    $0xc0012c40,%eax
c0009127:	8b 00                	mov    (%eax),%eax
c0009129:	8b 40 08             	mov    0x8(%eax),%eax
c000912c:	6a 01                	push   $0x1
c000912e:	ff 75 e0             	pushl  -0x20(%ebp)
c0009131:	ff 75 bc             	pushl  -0x44(%ebp)
c0009134:	50                   	push   %eax
c0009135:	e8 e8 d5 ff ff       	call   c0006722 <ide_read>
c000913a:	83 c4 10             	add    $0x10,%esp
c000913d:	c7 45 e4 00 00 00 00 	movl   $0x0,-0x1c(%ebp)
c0009144:	8b 55 e0             	mov    -0x20(%ebp),%edx
c0009147:	8b 45 b8             	mov    -0x48(%ebp),%eax
c000914a:	01 d0                	add    %edx,%eax
c000914c:	83 ec 04             	sub    $0x4,%esp
c000914f:	ff 75 b0             	pushl  -0x50(%ebp)
c0009152:	ff 75 f4             	pushl  -0xc(%ebp)
c0009155:	50                   	push   %eax
c0009156:	e8 75 9c ff ff       	call   c0002dd0 <memcpy>
c000915b:	83 c4 10             	add    $0x10,%esp
c000915e:	c7 c0 40 2c 01 c0    	mov    $0xc0012c40,%eax
c0009164:	8b 00                	mov    (%eax),%eax
c0009166:	8b 40 08             	mov    0x8(%eax),%eax
c0009169:	6a 01                	push   $0x1
c000916b:	ff 75 e0             	pushl  -0x20(%ebp)
c000916e:	ff 75 bc             	pushl  -0x44(%ebp)
c0009171:	50                   	push   %eax
c0009172:	e8 ed d6 ff ff       	call   c0006864 <ide_write>
c0009177:	83 c4 10             	add    $0x10,%esp
c000917a:	83 ec 08             	sub    $0x8,%esp
c000917d:	ff 75 bc             	pushl  -0x44(%ebp)
c0009180:	8d 83 a7 bb ff ff    	lea    -0x4459(%ebx),%eax
c0009186:	50                   	push   %eax
c0009187:	e8 e5 d1 ff ff       	call   c0006371 <printk>
c000918c:	83 c4 10             	add    $0x10,%esp
c000918f:	8b 45 b0             	mov    -0x50(%ebp),%eax
c0009192:	01 45 f4             	add    %eax,-0xc(%ebp)
c0009195:	8b 45 08             	mov    0x8(%ebp),%eax
c0009198:	8b 40 08             	mov    0x8(%eax),%eax
c000919b:	8b 48 04             	mov    0x4(%eax),%ecx
c000919e:	8b 45 08             	mov    0x8(%ebp),%eax
c00091a1:	8b 40 08             	mov    0x8(%eax),%eax
c00091a4:	8b 55 b0             	mov    -0x50(%ebp),%edx
c00091a7:	01 ca                	add    %ecx,%edx
c00091a9:	89 50 04             	mov    %edx,0x4(%eax)
c00091ac:	8b 45 08             	mov    0x8(%ebp),%eax
c00091af:	8b 10                	mov    (%eax),%edx
c00091b1:	8b 45 b0             	mov    -0x50(%ebp),%eax
c00091b4:	01 c2                	add    %eax,%edx
c00091b6:	8b 45 08             	mov    0x8(%ebp),%eax
c00091b9:	89 10                	mov    %edx,(%eax)
c00091bb:	8b 45 b0             	mov    -0x50(%ebp),%eax
c00091be:	01 45 f0             	add    %eax,-0x10(%ebp)
c00091c1:	8b 45 b0             	mov    -0x50(%ebp),%eax
c00091c4:	29 45 ec             	sub    %eax,-0x14(%ebp)
c00091c7:	8b 45 f0             	mov    -0x10(%ebp),%eax
c00091ca:	3b 45 10             	cmp    0x10(%ebp),%eax
c00091cd:	0f 82 e7 fe ff ff    	jb     c00090ba <file_write+0x54b>
c00091d3:	8b 45 08             	mov    0x8(%ebp),%eax
c00091d6:	8b 50 08             	mov    0x8(%eax),%edx
c00091d9:	c7 c0 40 2c 01 c0    	mov    $0xc0012c40,%eax
c00091df:	8b 00                	mov    (%eax),%eax
c00091e1:	83 ec 04             	sub    $0x4,%esp
c00091e4:	ff 75 e0             	pushl  -0x20(%ebp)
c00091e7:	52                   	push   %edx
c00091e8:	50                   	push   %eax
c00091e9:	e8 2c df ff ff       	call   c000711a <inode_sync>
c00091ee:	83 c4 10             	add    $0x10,%esp
c00091f1:	83 ec 0c             	sub    $0xc,%esp
c00091f4:	ff 75 dc             	pushl  -0x24(%ebp)
c00091f7:	e8 11 ad ff ff       	call   c0003f0d <sys_free>
c00091fc:	83 c4 10             	add    $0x10,%esp
c00091ff:	83 ec 0c             	sub    $0xc,%esp
c0009202:	ff 75 e0             	pushl  -0x20(%ebp)
c0009205:	e8 03 ad ff ff       	call   c0003f0d <sys_free>
c000920a:	83 c4 10             	add    $0x10,%esp
c000920d:	8b 45 f0             	mov    -0x10(%ebp),%eax
c0009210:	8b 5d fc             	mov    -0x4(%ebp),%ebx
c0009213:	c9                   	leave  
c0009214:	c3                   	ret    

c0009215 <file_close>:
c0009215:	55                   	push   %ebp
c0009216:	89 e5                	mov    %esp,%ebp
c0009218:	53                   	push   %ebx
c0009219:	83 ec 04             	sub    $0x4,%esp
c000921c:	e8 b7 8d ff ff       	call   c0001fd8 <__x86.get_pc_thunk.ax>
c0009221:	05 df 8d 00 00       	add    $0x8ddf,%eax
c0009226:	83 7d 08 00          	cmpl   $0x0,0x8(%ebp)
c000922a:	75 07                	jne    c0009233 <file_close+0x1e>
c000922c:	b8 ff ff ff ff       	mov    $0xffffffff,%eax
c0009231:	eb 30                	jmp    c0009263 <file_close+0x4e>
c0009233:	8b 55 08             	mov    0x8(%ebp),%edx
c0009236:	8b 52 08             	mov    0x8(%edx),%edx
c0009239:	c7 42 0c 00 00 00 00 	movl   $0x0,0xc(%edx)
c0009240:	8b 55 08             	mov    0x8(%ebp),%edx
c0009243:	8b 52 08             	mov    0x8(%edx),%edx
c0009246:	83 ec 0c             	sub    $0xc,%esp
c0009249:	52                   	push   %edx
c000924a:	89 c3                	mov    %eax,%ebx
c000924c:	e8 45 e1 ff ff       	call   c0007396 <inode_close>
c0009251:	83 c4 10             	add    $0x10,%esp
c0009254:	8b 45 08             	mov    0x8(%ebp),%eax
c0009257:	c7 40 08 00 00 00 00 	movl   $0x0,0x8(%eax)
c000925e:	b8 00 00 00 00       	mov    $0x0,%eax
c0009263:	8b 5d fc             	mov    -0x4(%ebp),%ebx
c0009266:	c9                   	leave  
c0009267:	c3                   	ret    

c0009268 <file_read>:
c0009268:	55                   	push   %ebp
c0009269:	89 e5                	mov    %esp,%ebp
c000926b:	53                   	push   %ebx
c000926c:	83 ec 54             	sub    $0x54,%esp
c000926f:	e8 81 87 ff ff       	call   c00019f5 <__x86.get_pc_thunk.bx>
c0009274:	81 c3 8c 8d 00 00    	add    $0x8d8c,%ebx
c000927a:	8b 45 0c             	mov    0xc(%ebp),%eax
c000927d:	89 45 f4             	mov    %eax,-0xc(%ebp)
c0009280:	8b 45 10             	mov    0x10(%ebp),%eax
c0009283:	89 45 f0             	mov    %eax,-0x10(%ebp)
c0009286:	8b 45 f0             	mov    -0x10(%ebp),%eax
c0009289:	89 45 ec             	mov    %eax,-0x14(%ebp)
c000928c:	8b 45 08             	mov    0x8(%ebp),%eax
c000928f:	8b 10                	mov    (%eax),%edx
c0009291:	8b 45 10             	mov    0x10(%ebp),%eax
c0009294:	01 c2                	add    %eax,%edx
c0009296:	8b 45 08             	mov    0x8(%ebp),%eax
c0009299:	8b 40 08             	mov    0x8(%eax),%eax
c000929c:	8b 40 04             	mov    0x4(%eax),%eax
c000929f:	39 c2                	cmp    %eax,%edx
c00092a1:	76 2b                	jbe    c00092ce <file_read+0x66>
c00092a3:	8b 45 08             	mov    0x8(%ebp),%eax
c00092a6:	8b 40 08             	mov    0x8(%eax),%eax
c00092a9:	8b 50 04             	mov    0x4(%eax),%edx
c00092ac:	8b 45 08             	mov    0x8(%ebp),%eax
c00092af:	8b 00                	mov    (%eax),%eax
c00092b1:	29 c2                	sub    %eax,%edx
c00092b3:	89 d0                	mov    %edx,%eax
c00092b5:	89 45 f0             	mov    %eax,-0x10(%ebp)
c00092b8:	8b 45 f0             	mov    -0x10(%ebp),%eax
c00092bb:	89 45 ec             	mov    %eax,-0x14(%ebp)
c00092be:	83 7d f0 00          	cmpl   $0x0,-0x10(%ebp)
c00092c2:	75 0a                	jne    c00092ce <file_read+0x66>
c00092c4:	b8 ff ff ff ff       	mov    $0xffffffff,%eax
c00092c9:	e9 ed 03 00 00       	jmp    c00096bb <file_read+0x453>
c00092ce:	83 ec 0c             	sub    $0xc,%esp
c00092d1:	68 00 02 00 00       	push   $0x200
c00092d6:	e8 ac a6 ff ff       	call   c0003987 <sys_malloc>
c00092db:	83 c4 10             	add    $0x10,%esp
c00092de:	89 45 e0             	mov    %eax,-0x20(%ebp)
c00092e1:	83 7d e0 00          	cmpl   $0x0,-0x20(%ebp)
c00092e5:	75 1c                	jne    c0009303 <file_read+0x9b>
c00092e7:	83 ec 0c             	sub    $0xc,%esp
c00092ea:	8d 83 c0 bb ff ff    	lea    -0x4440(%ebx),%eax
c00092f0:	50                   	push   %eax
c00092f1:	e8 7b d0 ff ff       	call   c0006371 <printk>
c00092f6:	83 c4 10             	add    $0x10,%esp
c00092f9:	b8 ff ff ff ff       	mov    $0xffffffff,%eax
c00092fe:	e9 b8 03 00 00       	jmp    c00096bb <file_read+0x453>
c0009303:	83 ec 0c             	sub    $0xc,%esp
c0009306:	ff 75 e0             	pushl  -0x20(%ebp)
c0009309:	e8 62 a6 ff ff       	call   c0003970 <block2arena>
c000930e:	83 c4 10             	add    $0x10,%esp
c0009311:	89 45 dc             	mov    %eax,-0x24(%ebp)
c0009314:	8b 45 dc             	mov    -0x24(%ebp),%eax
c0009317:	8b 50 04             	mov    0x4(%eax),%edx
c000931a:	8b 45 dc             	mov    -0x24(%ebp),%eax
c000931d:	8b 00                	mov    (%eax),%eax
c000931f:	8b 40 04             	mov    0x4(%eax),%eax
c0009322:	83 ec 04             	sub    $0x4,%esp
c0009325:	52                   	push   %edx
c0009326:	50                   	push   %eax
c0009327:	8d 83 ec bb ff ff    	lea    -0x4414(%ebx),%eax
c000932d:	50                   	push   %eax
c000932e:	e8 86 cf ff ff       	call   c00062b9 <printf>
c0009333:	83 c4 10             	add    $0x10,%esp
c0009336:	83 ec 0c             	sub    $0xc,%esp
c0009339:	68 30 02 00 00       	push   $0x230
c000933e:	e8 44 a6 ff ff       	call   c0003987 <sys_malloc>
c0009343:	83 c4 10             	add    $0x10,%esp
c0009346:	89 45 d8             	mov    %eax,-0x28(%ebp)
c0009349:	83 7d d8 00          	cmpl   $0x0,-0x28(%ebp)
c000934d:	75 1c                	jne    c000936b <file_read+0x103>
c000934f:	83 ec 0c             	sub    $0xc,%esp
c0009352:	8d 83 1c bc ff ff    	lea    -0x43e4(%ebx),%eax
c0009358:	50                   	push   %eax
c0009359:	e8 13 d0 ff ff       	call   c0006371 <printk>
c000935e:	83 c4 10             	add    $0x10,%esp
c0009361:	b8 ff ff ff ff       	mov    $0xffffffff,%eax
c0009366:	e9 50 03 00 00       	jmp    c00096bb <file_read+0x453>
c000936b:	8b 45 08             	mov    0x8(%ebp),%eax
c000936e:	8b 00                	mov    (%eax),%eax
c0009370:	c1 e8 09             	shr    $0x9,%eax
c0009373:	89 45 d4             	mov    %eax,-0x2c(%ebp)
c0009376:	8b 45 08             	mov    0x8(%ebp),%eax
c0009379:	8b 10                	mov    (%eax),%edx
c000937b:	8b 45 f0             	mov    -0x10(%ebp),%eax
c000937e:	01 d0                	add    %edx,%eax
c0009380:	c1 e8 09             	shr    $0x9,%eax
c0009383:	89 45 d0             	mov    %eax,-0x30(%ebp)
c0009386:	8b 45 d4             	mov    -0x2c(%ebp),%eax
c0009389:	2b 45 d0             	sub    -0x30(%ebp),%eax
c000938c:	89 45 cc             	mov    %eax,-0x34(%ebp)
c000938f:	83 ec 0c             	sub    $0xc,%esp
c0009392:	68 f4 0f 00 00       	push   $0xff4
c0009397:	e8 eb a5 ff ff       	call   c0003987 <sys_malloc>
c000939c:	83 c4 10             	add    $0x10,%esp
c000939f:	89 45 c8             	mov    %eax,-0x38(%ebp)
c00093a2:	8b 45 c8             	mov    -0x38(%ebp),%eax
c00093a5:	83 e8 0c             	sub    $0xc,%eax
c00093a8:	89 45 c4             	mov    %eax,-0x3c(%ebp)
c00093ab:	83 7d cc 00          	cmpl   $0x0,-0x34(%ebp)
c00093af:	0f 85 8f 00 00 00    	jne    c0009444 <file_read+0x1dc>
c00093b5:	83 7d d0 0b          	cmpl   $0xb,-0x30(%ebp)
c00093b9:	77 2b                	ja     c00093e6 <file_read+0x17e>
c00093bb:	8b 45 d0             	mov    -0x30(%ebp),%eax
c00093be:	89 45 e8             	mov    %eax,-0x18(%ebp)
c00093c1:	8b 45 08             	mov    0x8(%ebp),%eax
c00093c4:	8b 40 08             	mov    0x8(%eax),%eax
c00093c7:	8b 55 e8             	mov    -0x18(%ebp),%edx
c00093ca:	8d 0c 95 00 00 00 00 	lea    0x0(,%edx,4),%ecx
c00093d1:	8b 55 d8             	mov    -0x28(%ebp),%edx
c00093d4:	01 ca                	add    %ecx,%edx
c00093d6:	8b 4d e8             	mov    -0x18(%ebp),%ecx
c00093d9:	83 c1 04             	add    $0x4,%ecx
c00093dc:	8b 04 88             	mov    (%eax,%ecx,4),%eax
c00093df:	89 02                	mov    %eax,(%edx)
c00093e1:	e9 97 01 00 00       	jmp    c000957d <file_read+0x315>
c00093e6:	8b 45 08             	mov    0x8(%ebp),%eax
c00093e9:	8b 40 08             	mov    0x8(%eax),%eax
c00093ec:	8b 40 40             	mov    0x40(%eax),%eax
c00093ef:	89 45 c0             	mov    %eax,-0x40(%ebp)
c00093f2:	83 ec 04             	sub    $0x4,%esp
c00093f5:	68 00 10 00 00       	push   $0x1000
c00093fa:	ff 75 dc             	pushl  -0x24(%ebp)
c00093fd:	ff 75 c4             	pushl  -0x3c(%ebp)
c0009400:	e8 cb 99 ff ff       	call   c0002dd0 <memcpy>
c0009405:	83 c4 10             	add    $0x10,%esp
c0009408:	8b 45 d8             	mov    -0x28(%ebp),%eax
c000940b:	8d 48 30             	lea    0x30(%eax),%ecx
c000940e:	8b 55 c0             	mov    -0x40(%ebp),%edx
c0009411:	c7 c0 40 2c 01 c0    	mov    $0xc0012c40,%eax
c0009417:	8b 00                	mov    (%eax),%eax
c0009419:	8b 40 08             	mov    0x8(%eax),%eax
c000941c:	6a 01                	push   $0x1
c000941e:	51                   	push   %ecx
c000941f:	52                   	push   %edx
c0009420:	50                   	push   %eax
c0009421:	e8 fc d2 ff ff       	call   c0006722 <ide_read>
c0009426:	83 c4 10             	add    $0x10,%esp
c0009429:	83 ec 04             	sub    $0x4,%esp
c000942c:	68 00 10 00 00       	push   $0x1000
c0009431:	ff 75 c4             	pushl  -0x3c(%ebp)
c0009434:	ff 75 dc             	pushl  -0x24(%ebp)
c0009437:	e8 94 99 ff ff       	call   c0002dd0 <memcpy>
c000943c:	83 c4 10             	add    $0x10,%esp
c000943f:	e9 39 01 00 00       	jmp    c000957d <file_read+0x315>
c0009444:	83 7d d0 0b          	cmpl   $0xb,-0x30(%ebp)
c0009448:	77 39                	ja     c0009483 <file_read+0x21b>
c000944a:	8b 45 d4             	mov    -0x2c(%ebp),%eax
c000944d:	89 45 e8             	mov    %eax,-0x18(%ebp)
c0009450:	eb 24                	jmp    c0009476 <file_read+0x20e>
c0009452:	8b 45 08             	mov    0x8(%ebp),%eax
c0009455:	8b 40 08             	mov    0x8(%eax),%eax
c0009458:	8b 55 e8             	mov    -0x18(%ebp),%edx
c000945b:	8d 0c 95 00 00 00 00 	lea    0x0(,%edx,4),%ecx
c0009462:	8b 55 d8             	mov    -0x28(%ebp),%edx
c0009465:	01 ca                	add    %ecx,%edx
c0009467:	8b 4d e8             	mov    -0x18(%ebp),%ecx
c000946a:	83 c1 04             	add    $0x4,%ecx
c000946d:	8b 04 88             	mov    (%eax,%ecx,4),%eax
c0009470:	89 02                	mov    %eax,(%edx)
c0009472:	83 45 e8 01          	addl   $0x1,-0x18(%ebp)
c0009476:	8b 45 e8             	mov    -0x18(%ebp),%eax
c0009479:	3b 45 d0             	cmp    -0x30(%ebp),%eax
c000947c:	76 d4                	jbe    c0009452 <file_read+0x1ea>
c000947e:	e9 fa 00 00 00       	jmp    c000957d <file_read+0x315>
c0009483:	83 7d d4 0b          	cmpl   $0xb,-0x2c(%ebp)
c0009487:	0f 87 97 00 00 00    	ja     c0009524 <file_read+0x2bc>
c000948d:	83 7d d0 0b          	cmpl   $0xb,-0x30(%ebp)
c0009491:	0f 86 8d 00 00 00    	jbe    c0009524 <file_read+0x2bc>
c0009497:	8b 45 d4             	mov    -0x2c(%ebp),%eax
c000949a:	89 45 e8             	mov    %eax,-0x18(%ebp)
c000949d:	eb 24                	jmp    c00094c3 <file_read+0x25b>
c000949f:	8b 45 08             	mov    0x8(%ebp),%eax
c00094a2:	8b 40 08             	mov    0x8(%eax),%eax
c00094a5:	8b 55 e8             	mov    -0x18(%ebp),%edx
c00094a8:	8d 0c 95 00 00 00 00 	lea    0x0(,%edx,4),%ecx
c00094af:	8b 55 d8             	mov    -0x28(%ebp),%edx
c00094b2:	01 ca                	add    %ecx,%edx
c00094b4:	8b 4d e8             	mov    -0x18(%ebp),%ecx
c00094b7:	83 c1 04             	add    $0x4,%ecx
c00094ba:	8b 04 88             	mov    (%eax,%ecx,4),%eax
c00094bd:	89 02                	mov    %eax,(%edx)
c00094bf:	83 45 e8 01          	addl   $0x1,-0x18(%ebp)
c00094c3:	83 7d e8 0b          	cmpl   $0xb,-0x18(%ebp)
c00094c7:	76 d6                	jbe    c000949f <file_read+0x237>
c00094c9:	8b 45 08             	mov    0x8(%ebp),%eax
c00094cc:	8b 40 08             	mov    0x8(%eax),%eax
c00094cf:	8b 40 40             	mov    0x40(%eax),%eax
c00094d2:	89 45 c0             	mov    %eax,-0x40(%ebp)
c00094d5:	83 ec 04             	sub    $0x4,%esp
c00094d8:	68 00 10 00 00       	push   $0x1000
c00094dd:	ff 75 dc             	pushl  -0x24(%ebp)
c00094e0:	ff 75 c4             	pushl  -0x3c(%ebp)
c00094e3:	e8 e8 98 ff ff       	call   c0002dd0 <memcpy>
c00094e8:	83 c4 10             	add    $0x10,%esp
c00094eb:	8b 45 d8             	mov    -0x28(%ebp),%eax
c00094ee:	8d 48 30             	lea    0x30(%eax),%ecx
c00094f1:	8b 55 c0             	mov    -0x40(%ebp),%edx
c00094f4:	c7 c0 40 2c 01 c0    	mov    $0xc0012c40,%eax
c00094fa:	8b 00                	mov    (%eax),%eax
c00094fc:	8b 40 08             	mov    0x8(%eax),%eax
c00094ff:	6a 01                	push   $0x1
c0009501:	51                   	push   %ecx
c0009502:	52                   	push   %edx
c0009503:	50                   	push   %eax
c0009504:	e8 19 d2 ff ff       	call   c0006722 <ide_read>
c0009509:	83 c4 10             	add    $0x10,%esp
c000950c:	83 ec 04             	sub    $0x4,%esp
c000950f:	68 00 10 00 00       	push   $0x1000
c0009514:	ff 75 c4             	pushl  -0x3c(%ebp)
c0009517:	ff 75 dc             	pushl  -0x24(%ebp)
c000951a:	e8 b1 98 ff ff       	call   c0002dd0 <memcpy>
c000951f:	83 c4 10             	add    $0x10,%esp
c0009522:	eb 59                	jmp    c000957d <file_read+0x315>
c0009524:	8b 45 08             	mov    0x8(%ebp),%eax
c0009527:	8b 40 08             	mov    0x8(%eax),%eax
c000952a:	8b 40 40             	mov    0x40(%eax),%eax
c000952d:	89 45 c0             	mov    %eax,-0x40(%ebp)
c0009530:	83 ec 04             	sub    $0x4,%esp
c0009533:	68 00 10 00 00       	push   $0x1000
c0009538:	ff 75 dc             	pushl  -0x24(%ebp)
c000953b:	ff 75 c4             	pushl  -0x3c(%ebp)
c000953e:	e8 8d 98 ff ff       	call   c0002dd0 <memcpy>
c0009543:	83 c4 10             	add    $0x10,%esp
c0009546:	8b 45 d8             	mov    -0x28(%ebp),%eax
c0009549:	8d 48 30             	lea    0x30(%eax),%ecx
c000954c:	8b 55 c0             	mov    -0x40(%ebp),%edx
c000954f:	c7 c0 40 2c 01 c0    	mov    $0xc0012c40,%eax
c0009555:	8b 00                	mov    (%eax),%eax
c0009557:	8b 40 08             	mov    0x8(%eax),%eax
c000955a:	6a 01                	push   $0x1
c000955c:	51                   	push   %ecx
c000955d:	52                   	push   %edx
c000955e:	50                   	push   %eax
c000955f:	e8 be d1 ff ff       	call   c0006722 <ide_read>
c0009564:	83 c4 10             	add    $0x10,%esp
c0009567:	83 ec 04             	sub    $0x4,%esp
c000956a:	68 00 10 00 00       	push   $0x1000
c000956f:	ff 75 c4             	pushl  -0x3c(%ebp)
c0009572:	ff 75 dc             	pushl  -0x24(%ebp)
c0009575:	e8 56 98 ff ff       	call   c0002dd0 <memcpy>
c000957a:	83 c4 10             	add    $0x10,%esp
c000957d:	c7 45 e4 00 00 00 00 	movl   $0x0,-0x1c(%ebp)
c0009584:	e9 dc 00 00 00       	jmp    c0009665 <file_read+0x3fd>
c0009589:	8b 45 08             	mov    0x8(%ebp),%eax
c000958c:	8b 00                	mov    (%eax),%eax
c000958e:	c1 e8 09             	shr    $0x9,%eax
c0009591:	89 45 bc             	mov    %eax,-0x44(%ebp)
c0009594:	8b 45 bc             	mov    -0x44(%ebp),%eax
c0009597:	8d 14 85 00 00 00 00 	lea    0x0(,%eax,4),%edx
c000959e:	8b 45 d8             	mov    -0x28(%ebp),%eax
c00095a1:	01 d0                	add    %edx,%eax
c00095a3:	8b 00                	mov    (%eax),%eax
c00095a5:	89 45 b8             	mov    %eax,-0x48(%ebp)
c00095a8:	8b 45 08             	mov    0x8(%ebp),%eax
c00095ab:	8b 00                	mov    (%eax),%eax
c00095ad:	25 ff 01 00 00       	and    $0x1ff,%eax
c00095b2:	89 45 b4             	mov    %eax,-0x4c(%ebp)
c00095b5:	b8 00 02 00 00       	mov    $0x200,%eax
c00095ba:	2b 45 b4             	sub    -0x4c(%ebp),%eax
c00095bd:	89 45 b0             	mov    %eax,-0x50(%ebp)
c00095c0:	8b 45 ec             	mov    -0x14(%ebp),%eax
c00095c3:	39 45 b0             	cmp    %eax,-0x50(%ebp)
c00095c6:	0f 46 45 b0          	cmovbe -0x50(%ebp),%eax
c00095ca:	89 45 ac             	mov    %eax,-0x54(%ebp)
c00095cd:	83 ec 04             	sub    $0x4,%esp
c00095d0:	68 00 02 00 00       	push   $0x200
c00095d5:	6a 00                	push   $0x0
c00095d7:	ff 75 e0             	pushl  -0x20(%ebp)
c00095da:	e8 b6 97 ff ff       	call   c0002d95 <memset>
c00095df:	83 c4 10             	add    $0x10,%esp
c00095e2:	83 ec 04             	sub    $0x4,%esp
c00095e5:	68 00 10 00 00       	push   $0x1000
c00095ea:	ff 75 dc             	pushl  -0x24(%ebp)
c00095ed:	ff 75 c4             	pushl  -0x3c(%ebp)
c00095f0:	e8 db 97 ff ff       	call   c0002dd0 <memcpy>
c00095f5:	83 c4 10             	add    $0x10,%esp
c00095f8:	c7 c0 40 2c 01 c0    	mov    $0xc0012c40,%eax
c00095fe:	8b 00                	mov    (%eax),%eax
c0009600:	8b 40 08             	mov    0x8(%eax),%eax
c0009603:	6a 01                	push   $0x1
c0009605:	ff 75 e0             	pushl  -0x20(%ebp)
c0009608:	ff 75 b8             	pushl  -0x48(%ebp)
c000960b:	50                   	push   %eax
c000960c:	e8 11 d1 ff ff       	call   c0006722 <ide_read>
c0009611:	83 c4 10             	add    $0x10,%esp
c0009614:	8b 55 e0             	mov    -0x20(%ebp),%edx
c0009617:	8b 45 b4             	mov    -0x4c(%ebp),%eax
c000961a:	01 d0                	add    %edx,%eax
c000961c:	83 ec 04             	sub    $0x4,%esp
c000961f:	ff 75 ac             	pushl  -0x54(%ebp)
c0009622:	50                   	push   %eax
c0009623:	ff 75 f4             	pushl  -0xc(%ebp)
c0009626:	e8 a5 97 ff ff       	call   c0002dd0 <memcpy>
c000962b:	83 c4 10             	add    $0x10,%esp
c000962e:	83 ec 04             	sub    $0x4,%esp
c0009631:	68 00 10 00 00       	push   $0x1000
c0009636:	ff 75 c4             	pushl  -0x3c(%ebp)
c0009639:	ff 75 dc             	pushl  -0x24(%ebp)
c000963c:	e8 8f 97 ff ff       	call   c0002dd0 <memcpy>
c0009641:	83 c4 10             	add    $0x10,%esp
c0009644:	8b 45 ac             	mov    -0x54(%ebp),%eax
c0009647:	01 45 f4             	add    %eax,-0xc(%ebp)
c000964a:	8b 45 08             	mov    0x8(%ebp),%eax
c000964d:	8b 10                	mov    (%eax),%edx
c000964f:	8b 45 ac             	mov    -0x54(%ebp),%eax
c0009652:	01 c2                	add    %eax,%edx
c0009654:	8b 45 08             	mov    0x8(%ebp),%eax
c0009657:	89 10                	mov    %edx,(%eax)
c0009659:	8b 45 ac             	mov    -0x54(%ebp),%eax
c000965c:	01 45 e4             	add    %eax,-0x1c(%ebp)
c000965f:	8b 45 ac             	mov    -0x54(%ebp),%eax
c0009662:	29 45 ec             	sub    %eax,-0x14(%ebp)
c0009665:	8b 45 e4             	mov    -0x1c(%ebp),%eax
c0009668:	3b 45 f0             	cmp    -0x10(%ebp),%eax
c000966b:	0f 82 18 ff ff ff    	jb     c0009589 <file_read+0x321>
c0009671:	8b 45 c4             	mov    -0x3c(%ebp),%eax
c0009674:	c7 00 00 00 00 00    	movl   $0x0,(%eax)
c000967a:	8b 45 c4             	mov    -0x3c(%ebp),%eax
c000967d:	c7 40 04 01 00 00 00 	movl   $0x1,0x4(%eax)
c0009684:	8b 45 c4             	mov    -0x3c(%ebp),%eax
c0009687:	c7 40 08 01 00 00 00 	movl   $0x1,0x8(%eax)
c000968e:	83 ec 0c             	sub    $0xc,%esp
c0009691:	ff 75 c8             	pushl  -0x38(%ebp)
c0009694:	e8 74 a8 ff ff       	call   c0003f0d <sys_free>
c0009699:	83 c4 10             	add    $0x10,%esp
c000969c:	83 ec 0c             	sub    $0xc,%esp
c000969f:	ff 75 d8             	pushl  -0x28(%ebp)
c00096a2:	e8 66 a8 ff ff       	call   c0003f0d <sys_free>
c00096a7:	83 c4 10             	add    $0x10,%esp
c00096aa:	83 ec 0c             	sub    $0xc,%esp
c00096ad:	ff 75 e0             	pushl  -0x20(%ebp)
c00096b0:	e8 58 a8 ff ff       	call   c0003f0d <sys_free>
c00096b5:	83 c4 10             	add    $0x10,%esp
c00096b8:	8b 45 e4             	mov    -0x1c(%ebp),%eax
c00096bb:	8b 5d fc             	mov    -0x4(%ebp),%ebx
c00096be:	c9                   	leave  
c00096bf:	c3                   	ret    

c00096c0 <mount_partition>:
c00096c0:	55                   	push   %ebp
c00096c1:	89 e5                	mov    %esp,%ebp
c00096c3:	56                   	push   %esi
c00096c4:	53                   	push   %ebx
c00096c5:	83 ec 10             	sub    $0x10,%esp
c00096c8:	e8 28 83 ff ff       	call   c00019f5 <__x86.get_pc_thunk.bx>
c00096cd:	81 c3 33 89 00 00    	add    $0x8933,%ebx
c00096d3:	8b 45 0c             	mov    0xc(%ebp),%eax
c00096d6:	89 45 f4             	mov    %eax,-0xc(%ebp)
c00096d9:	8b 45 08             	mov    0x8(%ebp),%eax
c00096dc:	83 e8 0c             	sub    $0xc,%eax
c00096df:	89 45 f0             	mov    %eax,-0x10(%ebp)
c00096e2:	8b 45 f0             	mov    -0x10(%ebp),%eax
c00096e5:	83 c0 14             	add    $0x14,%eax
c00096e8:	83 ec 08             	sub    $0x8,%esp
c00096eb:	ff 75 f4             	pushl  -0xc(%ebp)
c00096ee:	50                   	push   %eax
c00096ef:	e8 f9 97 ff ff       	call   c0002eed <strcmp>
c00096f4:	83 c4 10             	add    $0x10,%esp
c00096f7:	84 c0                	test   %al,%al
c00096f9:	0f 85 29 02 00 00    	jne    c0009928 <mount_partition+0x268>
c00096ff:	c7 c0 40 2c 01 c0    	mov    $0xc0012c40,%eax
c0009705:	8b 55 f0             	mov    -0x10(%ebp),%edx
c0009708:	89 10                	mov    %edx,(%eax)
c000970a:	c7 c0 40 2c 01 c0    	mov    $0xc0012c40,%eax
c0009710:	8b 00                	mov    (%eax),%eax
c0009712:	8b 40 08             	mov    0x8(%eax),%eax
c0009715:	89 45 ec             	mov    %eax,-0x14(%ebp)
c0009718:	83 ec 0c             	sub    $0xc,%esp
c000971b:	68 00 02 00 00       	push   $0x200
c0009720:	e8 62 a2 ff ff       	call   c0003987 <sys_malloc>
c0009725:	83 c4 10             	add    $0x10,%esp
c0009728:	89 45 e8             	mov    %eax,-0x18(%ebp)
c000972b:	c7 c0 40 2c 01 c0    	mov    $0xc0012c40,%eax
c0009731:	8b 30                	mov    (%eax),%esi
c0009733:	83 ec 0c             	sub    $0xc,%esp
c0009736:	68 00 02 00 00       	push   $0x200
c000973b:	e8 47 a2 ff ff       	call   c0003987 <sys_malloc>
c0009740:	83 c4 10             	add    $0x10,%esp
c0009743:	89 46 1c             	mov    %eax,0x1c(%esi)
c0009746:	c7 c0 40 2c 01 c0    	mov    $0xc0012c40,%eax
c000974c:	8b 00                	mov    (%eax),%eax
c000974e:	8b 40 1c             	mov    0x1c(%eax),%eax
c0009751:	85 c0                	test   %eax,%eax
c0009753:	75 1f                	jne    c0009774 <mount_partition+0xb4>
c0009755:	8d 83 4c bc ff ff    	lea    -0x43b4(%ebx),%eax
c000975b:	50                   	push   %eax
c000975c:	8d 83 70 c2 ff ff    	lea    -0x3d90(%ebx),%eax
c0009762:	50                   	push   %eax
c0009763:	6a 21                	push   $0x21
c0009765:	8d 83 63 bc ff ff    	lea    -0x439d(%ebx),%eax
c000976b:	50                   	push   %eax
c000976c:	e8 80 91 ff ff       	call   c00028f1 <panic_spin>
c0009771:	83 c4 10             	add    $0x10,%esp
c0009774:	83 ec 04             	sub    $0x4,%esp
c0009777:	68 00 02 00 00       	push   $0x200
c000977c:	6a 00                	push   $0x0
c000977e:	ff 75 e8             	pushl  -0x18(%ebp)
c0009781:	e8 0f 96 ff ff       	call   c0002d95 <memset>
c0009786:	83 c4 10             	add    $0x10,%esp
c0009789:	c7 c0 40 2c 01 c0    	mov    $0xc0012c40,%eax
c000978f:	8b 00                	mov    (%eax),%eax
c0009791:	8b 00                	mov    (%eax),%eax
c0009793:	83 c0 01             	add    $0x1,%eax
c0009796:	6a 01                	push   $0x1
c0009798:	ff 75 e8             	pushl  -0x18(%ebp)
c000979b:	50                   	push   %eax
c000979c:	ff 75 ec             	pushl  -0x14(%ebp)
c000979f:	e8 7e cf ff ff       	call   c0006722 <ide_read>
c00097a4:	83 c4 10             	add    $0x10,%esp
c00097a7:	c7 c0 40 2c 01 c0    	mov    $0xc0012c40,%eax
c00097ad:	8b 00                	mov    (%eax),%eax
c00097af:	8b 40 1c             	mov    0x1c(%eax),%eax
c00097b2:	83 ec 04             	sub    $0x4,%esp
c00097b5:	68 00 02 00 00       	push   $0x200
c00097ba:	ff 75 e8             	pushl  -0x18(%ebp)
c00097bd:	50                   	push   %eax
c00097be:	e8 0d 96 ff ff       	call   c0002dd0 <memcpy>
c00097c3:	83 c4 10             	add    $0x10,%esp
c00097c6:	8b 45 e8             	mov    -0x18(%ebp),%eax
c00097c9:	8b 40 14             	mov    0x14(%eax),%eax
c00097cc:	c1 e0 09             	shl    $0x9,%eax
c00097cf:	89 c2                	mov    %eax,%edx
c00097d1:	c7 c0 40 2c 01 c0    	mov    $0xc0012c40,%eax
c00097d7:	8b 30                	mov    (%eax),%esi
c00097d9:	83 ec 0c             	sub    $0xc,%esp
c00097dc:	52                   	push   %edx
c00097dd:	e8 a5 a1 ff ff       	call   c0003987 <sys_malloc>
c00097e2:	83 c4 10             	add    $0x10,%esp
c00097e5:	89 46 24             	mov    %eax,0x24(%esi)
c00097e8:	c7 c0 40 2c 01 c0    	mov    $0xc0012c40,%eax
c00097ee:	8b 00                	mov    (%eax),%eax
c00097f0:	8b 40 24             	mov    0x24(%eax),%eax
c00097f3:	85 c0                	test   %eax,%eax
c00097f5:	75 1f                	jne    c0009816 <mount_partition+0x156>
c00097f7:	8d 83 6b bc ff ff    	lea    -0x4395(%ebx),%eax
c00097fd:	50                   	push   %eax
c00097fe:	8d 83 70 c2 ff ff    	lea    -0x3d90(%ebx),%eax
c0009804:	50                   	push   %eax
c0009805:	6a 2a                	push   $0x2a
c0009807:	8d 83 63 bc ff ff    	lea    -0x439d(%ebx),%eax
c000980d:	50                   	push   %eax
c000980e:	e8 de 90 ff ff       	call   c00028f1 <panic_spin>
c0009813:	83 c4 10             	add    $0x10,%esp
c0009816:	8b 45 e8             	mov    -0x18(%ebp),%eax
c0009819:	8b 50 14             	mov    0x14(%eax),%edx
c000981c:	c7 c0 40 2c 01 c0    	mov    $0xc0012c40,%eax
c0009822:	8b 00                	mov    (%eax),%eax
c0009824:	c1 e2 09             	shl    $0x9,%edx
c0009827:	89 50 20             	mov    %edx,0x20(%eax)
c000982a:	8b 45 e8             	mov    -0x18(%ebp),%eax
c000982d:	8b 48 14             	mov    0x14(%eax),%ecx
c0009830:	c7 c0 40 2c 01 c0    	mov    $0xc0012c40,%eax
c0009836:	8b 00                	mov    (%eax),%eax
c0009838:	8b 50 24             	mov    0x24(%eax),%edx
c000983b:	8b 45 e8             	mov    -0x18(%ebp),%eax
c000983e:	8b 40 10             	mov    0x10(%eax),%eax
c0009841:	51                   	push   %ecx
c0009842:	52                   	push   %edx
c0009843:	50                   	push   %eax
c0009844:	ff 75 ec             	pushl  -0x14(%ebp)
c0009847:	e8 d6 ce ff ff       	call   c0006722 <ide_read>
c000984c:	83 c4 10             	add    $0x10,%esp
c000984f:	8b 45 e8             	mov    -0x18(%ebp),%eax
c0009852:	8b 40 1c             	mov    0x1c(%eax),%eax
c0009855:	83 ec 08             	sub    $0x8,%esp
c0009858:	50                   	push   %eax
c0009859:	8d 83 81 bc ff ff    	lea    -0x437f(%ebx),%eax
c000985f:	50                   	push   %eax
c0009860:	e8 0c cb ff ff       	call   c0006371 <printk>
c0009865:	83 c4 10             	add    $0x10,%esp
c0009868:	8b 45 e8             	mov    -0x18(%ebp),%eax
c000986b:	8b 40 1c             	mov    0x1c(%eax),%eax
c000986e:	c1 e0 09             	shl    $0x9,%eax
c0009871:	89 c2                	mov    %eax,%edx
c0009873:	c7 c0 40 2c 01 c0    	mov    $0xc0012c40,%eax
c0009879:	8b 30                	mov    (%eax),%esi
c000987b:	83 ec 0c             	sub    $0xc,%esp
c000987e:	52                   	push   %edx
c000987f:	e8 03 a1 ff ff       	call   c0003987 <sys_malloc>
c0009884:	83 c4 10             	add    $0x10,%esp
c0009887:	89 46 2c             	mov    %eax,0x2c(%esi)
c000988a:	c7 c0 40 2c 01 c0    	mov    $0xc0012c40,%eax
c0009890:	8b 00                	mov    (%eax),%eax
c0009892:	8b 40 2c             	mov    0x2c(%eax),%eax
c0009895:	85 c0                	test   %eax,%eax
c0009897:	75 1f                	jne    c00098b8 <mount_partition+0x1f8>
c0009899:	8d 83 84 bc ff ff    	lea    -0x437c(%ebx),%eax
c000989f:	50                   	push   %eax
c00098a0:	8d 83 70 c2 ff ff    	lea    -0x3d90(%ebx),%eax
c00098a6:	50                   	push   %eax
c00098a7:	6a 33                	push   $0x33
c00098a9:	8d 83 63 bc ff ff    	lea    -0x439d(%ebx),%eax
c00098af:	50                   	push   %eax
c00098b0:	e8 3c 90 ff ff       	call   c00028f1 <panic_spin>
c00098b5:	83 c4 10             	add    $0x10,%esp
c00098b8:	8b 45 e8             	mov    -0x18(%ebp),%eax
c00098bb:	8b 50 1c             	mov    0x1c(%eax),%edx
c00098be:	c7 c0 40 2c 01 c0    	mov    $0xc0012c40,%eax
c00098c4:	8b 00                	mov    (%eax),%eax
c00098c6:	c1 e2 09             	shl    $0x9,%edx
c00098c9:	89 50 28             	mov    %edx,0x28(%eax)
c00098cc:	8b 45 e8             	mov    -0x18(%ebp),%eax
c00098cf:	8b 48 1c             	mov    0x1c(%eax),%ecx
c00098d2:	c7 c0 40 2c 01 c0    	mov    $0xc0012c40,%eax
c00098d8:	8b 00                	mov    (%eax),%eax
c00098da:	8b 50 2c             	mov    0x2c(%eax),%edx
c00098dd:	8b 45 e8             	mov    -0x18(%ebp),%eax
c00098e0:	8b 40 18             	mov    0x18(%eax),%eax
c00098e3:	51                   	push   %ecx
c00098e4:	52                   	push   %edx
c00098e5:	50                   	push   %eax
c00098e6:	ff 75 ec             	pushl  -0x14(%ebp)
c00098e9:	e8 34 ce ff ff       	call   c0006722 <ide_read>
c00098ee:	83 c4 10             	add    $0x10,%esp
c00098f1:	c7 c0 40 2c 01 c0    	mov    $0xc0012c40,%eax
c00098f7:	8b 00                	mov    (%eax),%eax
c00098f9:	83 c0 30             	add    $0x30,%eax
c00098fc:	83 ec 0c             	sub    $0xc,%esp
c00098ff:	50                   	push   %eax
c0009900:	e8 e0 90 ff ff       	call   c00029e5 <list_init>
c0009905:	83 c4 10             	add    $0x10,%esp
c0009908:	8b 45 f0             	mov    -0x10(%ebp),%eax
c000990b:	83 c0 14             	add    $0x14,%eax
c000990e:	83 ec 08             	sub    $0x8,%esp
c0009911:	50                   	push   %eax
c0009912:	8d 83 9a bc ff ff    	lea    -0x4366(%ebx),%eax
c0009918:	50                   	push   %eax
c0009919:	e8 53 ca ff ff       	call   c0006371 <printk>
c000991e:	83 c4 10             	add    $0x10,%esp
c0009921:	b8 01 00 00 00       	mov    $0x1,%eax
c0009926:	eb 05                	jmp    c000992d <mount_partition+0x26d>
c0009928:	b8 00 00 00 00       	mov    $0x0,%eax
c000992d:	8d 65 f8             	lea    -0x8(%ebp),%esp
c0009930:	5b                   	pop    %ebx
c0009931:	5e                   	pop    %esi
c0009932:	5d                   	pop    %ebp
c0009933:	c3                   	ret    

c0009934 <partition_format>:
c0009934:	55                   	push   %ebp
c0009935:	89 e5                	mov    %esp,%ebp
c0009937:	57                   	push   %edi
c0009938:	56                   	push   %esi
c0009939:	53                   	push   %ebx
c000993a:	81 ec 7c 02 00 00    	sub    $0x27c,%esp
c0009940:	e8 b0 80 ff ff       	call   c00019f5 <__x86.get_pc_thunk.bx>
c0009945:	81 c3 bb 86 00 00    	add    $0x86bb,%ebx
c000994b:	c7 45 e0 01 00 00 00 	movl   $0x1,-0x20(%ebp)
c0009952:	c7 45 dc 01 00 00 00 	movl   $0x1,-0x24(%ebp)
c0009959:	c7 45 d8 01 00 00 00 	movl   $0x1,-0x28(%ebp)
c0009960:	c7 45 d4 60 02 00 00 	movl   $0x260,-0x2c(%ebp)
c0009967:	8b 55 e0             	mov    -0x20(%ebp),%edx
c000996a:	8b 45 dc             	mov    -0x24(%ebp),%eax
c000996d:	01 c2                	add    %eax,%edx
c000996f:	8b 45 d8             	mov    -0x28(%ebp),%eax
c0009972:	01 c2                	add    %eax,%edx
c0009974:	8b 45 d4             	mov    -0x2c(%ebp),%eax
c0009977:	01 d0                	add    %edx,%eax
c0009979:	89 45 d0             	mov    %eax,-0x30(%ebp)
c000997c:	8b 45 08             	mov    0x8(%ebp),%eax
c000997f:	8b 40 04             	mov    0x4(%eax),%eax
c0009982:	2b 45 d0             	sub    -0x30(%ebp),%eax
c0009985:	89 45 cc             	mov    %eax,-0x34(%ebp)
c0009988:	8b 45 cc             	mov    -0x34(%ebp),%eax
c000998b:	05 ff 0f 00 00       	add    $0xfff,%eax
c0009990:	c1 e8 0c             	shr    $0xc,%eax
c0009993:	89 45 c8             	mov    %eax,-0x38(%ebp)
c0009996:	8b 45 cc             	mov    -0x34(%ebp),%eax
c0009999:	2b 45 c8             	sub    -0x38(%ebp),%eax
c000999c:	89 45 c4             	mov    %eax,-0x3c(%ebp)
c000999f:	8b 45 c4             	mov    -0x3c(%ebp),%eax
c00099a2:	05 ff 0f 00 00       	add    $0xfff,%eax
c00099a7:	c1 e8 0c             	shr    $0xc,%eax
c00099aa:	89 45 c8             	mov    %eax,-0x38(%ebp)
c00099ad:	c7 85 a4 fd ff ff 18 	movl   $0x19590318,-0x25c(%ebp)
c00099b4:	03 59 19 
c00099b7:	8b 45 08             	mov    0x8(%ebp),%eax
c00099ba:	8b 40 04             	mov    0x4(%eax),%eax
c00099bd:	89 85 a8 fd ff ff    	mov    %eax,-0x258(%ebp)
c00099c3:	c7 85 ac fd ff ff 00 	movl   $0x1000,-0x254(%ebp)
c00099ca:	10 00 00 
c00099cd:	8b 45 08             	mov    0x8(%ebp),%eax
c00099d0:	8b 00                	mov    (%eax),%eax
c00099d2:	89 85 b0 fd ff ff    	mov    %eax,-0x250(%ebp)
c00099d8:	8b 85 b0 fd ff ff    	mov    -0x250(%ebp),%eax
c00099de:	83 c0 02             	add    $0x2,%eax
c00099e1:	89 85 b4 fd ff ff    	mov    %eax,-0x24c(%ebp)
c00099e7:	8b 45 c8             	mov    -0x38(%ebp),%eax
c00099ea:	89 85 b8 fd ff ff    	mov    %eax,-0x248(%ebp)
c00099f0:	8b 95 b4 fd ff ff    	mov    -0x24c(%ebp),%edx
c00099f6:	8b 85 b8 fd ff ff    	mov    -0x248(%ebp),%eax
c00099fc:	01 d0                	add    %edx,%eax
c00099fe:	89 85 bc fd ff ff    	mov    %eax,-0x244(%ebp)
c0009a04:	8b 45 d8             	mov    -0x28(%ebp),%eax
c0009a07:	89 85 c0 fd ff ff    	mov    %eax,-0x240(%ebp)
c0009a0d:	8b 95 bc fd ff ff    	mov    -0x244(%ebp),%edx
c0009a13:	8b 85 c0 fd ff ff    	mov    -0x240(%ebp),%eax
c0009a19:	01 d0                	add    %edx,%eax
c0009a1b:	89 85 c4 fd ff ff    	mov    %eax,-0x23c(%ebp)
c0009a21:	8b 45 d4             	mov    -0x2c(%ebp),%eax
c0009a24:	89 85 c8 fd ff ff    	mov    %eax,-0x238(%ebp)
c0009a2a:	8b 95 c4 fd ff ff    	mov    -0x23c(%ebp),%edx
c0009a30:	8b 85 c8 fd ff ff    	mov    -0x238(%ebp),%eax
c0009a36:	01 d0                	add    %edx,%eax
c0009a38:	89 85 cc fd ff ff    	mov    %eax,-0x234(%ebp)
c0009a3e:	c7 85 d0 fd ff ff 00 	movl   $0x0,-0x230(%ebp)
c0009a45:	00 00 00 
c0009a48:	c7 85 d4 fd ff ff 18 	movl   $0x18,-0x22c(%ebp)
c0009a4f:	00 00 00 
c0009a52:	8b 45 08             	mov    0x8(%ebp),%eax
c0009a55:	83 c0 14             	add    $0x14,%eax
c0009a58:	83 ec 08             	sub    $0x8,%esp
c0009a5b:	50                   	push   %eax
c0009a5c:	8d 83 aa bc ff ff    	lea    -0x4356(%ebx),%eax
c0009a62:	50                   	push   %eax
c0009a63:	e8 09 c9 ff ff       	call   c0006371 <printk>
c0009a68:	83 c4 10             	add    $0x10,%esp
c0009a6b:	8b 95 cc fd ff ff    	mov    -0x234(%ebp),%edx
c0009a71:	8b b5 c8 fd ff ff    	mov    -0x238(%ebp),%esi
c0009a77:	8b 85 c4 fd ff ff    	mov    -0x23c(%ebp),%eax
c0009a7d:	89 85 94 fd ff ff    	mov    %eax,-0x26c(%ebp)
c0009a83:	8b bd c0 fd ff ff    	mov    -0x240(%ebp),%edi
c0009a89:	89 bd 90 fd ff ff    	mov    %edi,-0x270(%ebp)
c0009a8f:	8b 8d bc fd ff ff    	mov    -0x244(%ebp),%ecx
c0009a95:	89 8d 8c fd ff ff    	mov    %ecx,-0x274(%ebp)
c0009a9b:	8b 85 b8 fd ff ff    	mov    -0x248(%ebp),%eax
c0009aa1:	89 85 88 fd ff ff    	mov    %eax,-0x278(%ebp)
c0009aa7:	8b bd b4 fd ff ff    	mov    -0x24c(%ebp),%edi
c0009aad:	89 bd 84 fd ff ff    	mov    %edi,-0x27c(%ebp)
c0009ab3:	8b 8d ac fd ff ff    	mov    -0x254(%ebp),%ecx
c0009ab9:	89 8d 80 fd ff ff    	mov    %ecx,-0x280(%ebp)
c0009abf:	8b bd a8 fd ff ff    	mov    -0x258(%ebp),%edi
c0009ac5:	8b 8d b0 fd ff ff    	mov    -0x250(%ebp),%ecx
c0009acb:	8b 85 a4 fd ff ff    	mov    -0x25c(%ebp),%eax
c0009ad1:	52                   	push   %edx
c0009ad2:	56                   	push   %esi
c0009ad3:	ff b5 94 fd ff ff    	pushl  -0x26c(%ebp)
c0009ad9:	ff b5 90 fd ff ff    	pushl  -0x270(%ebp)
c0009adf:	ff b5 8c fd ff ff    	pushl  -0x274(%ebp)
c0009ae5:	ff b5 88 fd ff ff    	pushl  -0x278(%ebp)
c0009aeb:	ff b5 84 fd ff ff    	pushl  -0x27c(%ebp)
c0009af1:	ff b5 80 fd ff ff    	pushl  -0x280(%ebp)
c0009af7:	57                   	push   %edi
c0009af8:	51                   	push   %ecx
c0009af9:	50                   	push   %eax
c0009afa:	8d 83 b4 bc ff ff    	lea    -0x434c(%ebx),%eax
c0009b00:	50                   	push   %eax
c0009b01:	e8 6b c8 ff ff       	call   c0006371 <printk>
c0009b06:	83 c4 30             	add    $0x30,%esp
c0009b09:	8b 45 08             	mov    0x8(%ebp),%eax
c0009b0c:	8b 40 08             	mov    0x8(%eax),%eax
c0009b0f:	89 45 c0             	mov    %eax,-0x40(%ebp)
c0009b12:	8b 45 08             	mov    0x8(%ebp),%eax
c0009b15:	8b 00                	mov    (%eax),%eax
c0009b17:	8d 50 01             	lea    0x1(%eax),%edx
c0009b1a:	6a 01                	push   $0x1
c0009b1c:	8d 85 a4 fd ff ff    	lea    -0x25c(%ebp),%eax
c0009b22:	50                   	push   %eax
c0009b23:	52                   	push   %edx
c0009b24:	ff 75 c0             	pushl  -0x40(%ebp)
c0009b27:	e8 38 cd ff ff       	call   c0006864 <ide_write>
c0009b2c:	83 c4 10             	add    $0x10,%esp
c0009b2f:	8b 45 08             	mov    0x8(%ebp),%eax
c0009b32:	8b 00                	mov    (%eax),%eax
c0009b34:	83 c0 01             	add    $0x1,%eax
c0009b37:	83 ec 08             	sub    $0x8,%esp
c0009b3a:	50                   	push   %eax
c0009b3b:	8d 83 bd bd ff ff    	lea    -0x4243(%ebx),%eax
c0009b41:	50                   	push   %eax
c0009b42:	e8 2a c8 ff ff       	call   c0006371 <printk>
c0009b47:	83 c4 10             	add    $0x10,%esp
c0009b4a:	8b 95 b8 fd ff ff    	mov    -0x248(%ebp),%edx
c0009b50:	8b 85 c0 fd ff ff    	mov    -0x240(%ebp),%eax
c0009b56:	39 c2                	cmp    %eax,%edx
c0009b58:	0f 43 c2             	cmovae %edx,%eax
c0009b5b:	89 45 bc             	mov    %eax,-0x44(%ebp)
c0009b5e:	8b 85 c8 fd ff ff    	mov    -0x238(%ebp),%eax
c0009b64:	39 45 bc             	cmp    %eax,-0x44(%ebp)
c0009b67:	0f 43 45 bc          	cmovae -0x44(%ebp),%eax
c0009b6b:	c1 e0 09             	shl    $0x9,%eax
c0009b6e:	89 45 bc             	mov    %eax,-0x44(%ebp)
c0009b71:	83 ec 0c             	sub    $0xc,%esp
c0009b74:	ff 75 bc             	pushl  -0x44(%ebp)
c0009b77:	e8 0b 9e ff ff       	call   c0003987 <sys_malloc>
c0009b7c:	83 c4 10             	add    $0x10,%esp
c0009b7f:	89 45 b8             	mov    %eax,-0x48(%ebp)
c0009b82:	8b 45 b8             	mov    -0x48(%ebp),%eax
c0009b85:	0f b6 00             	movzbl (%eax),%eax
c0009b88:	83 c8 01             	or     $0x1,%eax
c0009b8b:	89 c2                	mov    %eax,%edx
c0009b8d:	8b 45 b8             	mov    -0x48(%ebp),%eax
c0009b90:	88 10                	mov    %dl,(%eax)
c0009b92:	8b 45 c4             	mov    -0x3c(%ebp),%eax
c0009b95:	c1 e8 03             	shr    $0x3,%eax
c0009b98:	89 45 b4             	mov    %eax,-0x4c(%ebp)
c0009b9b:	8b 45 c4             	mov    -0x3c(%ebp),%eax
c0009b9e:	83 e0 07             	and    $0x7,%eax
c0009ba1:	89 45 b0             	mov    %eax,-0x50(%ebp)
c0009ba4:	8b 45 b4             	mov    -0x4c(%ebp),%eax
c0009ba7:	25 ff 01 00 00       	and    $0x1ff,%eax
c0009bac:	ba 00 02 00 00       	mov    $0x200,%edx
c0009bb1:	29 c2                	sub    %eax,%edx
c0009bb3:	89 d0                	mov    %edx,%eax
c0009bb5:	89 45 ac             	mov    %eax,-0x54(%ebp)
c0009bb8:	8b 55 b8             	mov    -0x48(%ebp),%edx
c0009bbb:	8b 45 b4             	mov    -0x4c(%ebp),%eax
c0009bbe:	01 d0                	add    %edx,%eax
c0009bc0:	83 ec 04             	sub    $0x4,%esp
c0009bc3:	ff 75 ac             	pushl  -0x54(%ebp)
c0009bc6:	68 ff 00 00 00       	push   $0xff
c0009bcb:	50                   	push   %eax
c0009bcc:	e8 c4 91 ff ff       	call   c0002d95 <memset>
c0009bd1:	83 c4 10             	add    $0x10,%esp
c0009bd4:	c6 45 e7 00          	movb   $0x0,-0x19(%ebp)
c0009bd8:	eb 3b                	jmp    c0009c15 <partition_format+0x2e1>
c0009bda:	0f b6 45 e7          	movzbl -0x19(%ebp),%eax
c0009bde:	8d 50 01             	lea    0x1(%eax),%edx
c0009be1:	88 55 e7             	mov    %dl,-0x19(%ebp)
c0009be4:	0f b6 c0             	movzbl %al,%eax
c0009be7:	ba 01 00 00 00       	mov    $0x1,%edx
c0009bec:	89 c1                	mov    %eax,%ecx
c0009bee:	d3 e2                	shl    %cl,%edx
c0009bf0:	89 d0                	mov    %edx,%eax
c0009bf2:	f7 d0                	not    %eax
c0009bf4:	89 c1                	mov    %eax,%ecx
c0009bf6:	8b 55 b8             	mov    -0x48(%ebp),%edx
c0009bf9:	8b 45 b4             	mov    -0x4c(%ebp),%eax
c0009bfc:	01 d0                	add    %edx,%eax
c0009bfe:	0f b6 00             	movzbl (%eax),%eax
c0009c01:	89 c2                	mov    %eax,%edx
c0009c03:	89 c8                	mov    %ecx,%eax
c0009c05:	89 d1                	mov    %edx,%ecx
c0009c07:	21 c1                	and    %eax,%ecx
c0009c09:	8b 55 b8             	mov    -0x48(%ebp),%edx
c0009c0c:	8b 45 b4             	mov    -0x4c(%ebp),%eax
c0009c0f:	01 d0                	add    %edx,%eax
c0009c11:	89 ca                	mov    %ecx,%edx
c0009c13:	88 10                	mov    %dl,(%eax)
c0009c15:	0f b6 45 e7          	movzbl -0x19(%ebp),%eax
c0009c19:	39 45 b0             	cmp    %eax,-0x50(%ebp)
c0009c1c:	73 bc                	jae    c0009bda <partition_format+0x2a6>
c0009c1e:	8b 95 b8 fd ff ff    	mov    -0x248(%ebp),%edx
c0009c24:	8b 85 b4 fd ff ff    	mov    -0x24c(%ebp),%eax
c0009c2a:	52                   	push   %edx
c0009c2b:	ff 75 b8             	pushl  -0x48(%ebp)
c0009c2e:	50                   	push   %eax
c0009c2f:	ff 75 c0             	pushl  -0x40(%ebp)
c0009c32:	e8 2d cc ff ff       	call   c0006864 <ide_write>
c0009c37:	83 c4 10             	add    $0x10,%esp
c0009c3a:	83 ec 04             	sub    $0x4,%esp
c0009c3d:	ff 75 bc             	pushl  -0x44(%ebp)
c0009c40:	6a 00                	push   $0x0
c0009c42:	ff 75 b8             	pushl  -0x48(%ebp)
c0009c45:	e8 4b 91 ff ff       	call   c0002d95 <memset>
c0009c4a:	83 c4 10             	add    $0x10,%esp
c0009c4d:	8b 45 b8             	mov    -0x48(%ebp),%eax
c0009c50:	0f b6 00             	movzbl (%eax),%eax
c0009c53:	83 c8 01             	or     $0x1,%eax
c0009c56:	89 c2                	mov    %eax,%edx
c0009c58:	8b 45 b8             	mov    -0x48(%ebp),%eax
c0009c5b:	88 10                	mov    %dl,(%eax)
c0009c5d:	8b 95 c0 fd ff ff    	mov    -0x240(%ebp),%edx
c0009c63:	8b 85 bc fd ff ff    	mov    -0x244(%ebp),%eax
c0009c69:	52                   	push   %edx
c0009c6a:	ff 75 b8             	pushl  -0x48(%ebp)
c0009c6d:	50                   	push   %eax
c0009c6e:	ff 75 c0             	pushl  -0x40(%ebp)
c0009c71:	e8 ee cb ff ff       	call   c0006864 <ide_write>
c0009c76:	83 c4 10             	add    $0x10,%esp
c0009c79:	83 ec 04             	sub    $0x4,%esp
c0009c7c:	ff 75 bc             	pushl  -0x44(%ebp)
c0009c7f:	6a 00                	push   $0x0
c0009c81:	ff 75 b8             	pushl  -0x48(%ebp)
c0009c84:	e8 0c 91 ff ff       	call   c0002d95 <memset>
c0009c89:	83 c4 10             	add    $0x10,%esp
c0009c8c:	8b 45 b8             	mov    -0x48(%ebp),%eax
c0009c8f:	89 45 a8             	mov    %eax,-0x58(%ebp)
c0009c92:	8b 85 d4 fd ff ff    	mov    -0x22c(%ebp),%eax
c0009c98:	8d 14 00             	lea    (%eax,%eax,1),%edx
c0009c9b:	8b 45 a8             	mov    -0x58(%ebp),%eax
c0009c9e:	89 50 04             	mov    %edx,0x4(%eax)
c0009ca1:	8b 45 a8             	mov    -0x58(%ebp),%eax
c0009ca4:	c7 00 00 00 00 00    	movl   $0x0,(%eax)
c0009caa:	8b 95 cc fd ff ff    	mov    -0x234(%ebp),%edx
c0009cb0:	8b 45 a8             	mov    -0x58(%ebp),%eax
c0009cb3:	89 50 10             	mov    %edx,0x10(%eax)
c0009cb6:	8b 95 c8 fd ff ff    	mov    -0x238(%ebp),%edx
c0009cbc:	8b 85 c4 fd ff ff    	mov    -0x23c(%ebp),%eax
c0009cc2:	52                   	push   %edx
c0009cc3:	ff 75 b8             	pushl  -0x48(%ebp)
c0009cc6:	50                   	push   %eax
c0009cc7:	ff 75 c0             	pushl  -0x40(%ebp)
c0009cca:	e8 95 cb ff ff       	call   c0006864 <ide_write>
c0009ccf:	83 c4 10             	add    $0x10,%esp
c0009cd2:	83 ec 04             	sub    $0x4,%esp
c0009cd5:	ff 75 bc             	pushl  -0x44(%ebp)
c0009cd8:	6a 00                	push   $0x0
c0009cda:	ff 75 b8             	pushl  -0x48(%ebp)
c0009cdd:	e8 b3 90 ff ff       	call   c0002d95 <memset>
c0009ce2:	83 c4 10             	add    $0x10,%esp
c0009ce5:	8b 45 b8             	mov    -0x48(%ebp),%eax
c0009ce8:	89 45 a4             	mov    %eax,-0x5c(%ebp)
c0009ceb:	8b 45 a4             	mov    -0x5c(%ebp),%eax
c0009cee:	83 ec 04             	sub    $0x4,%esp
c0009cf1:	6a 01                	push   $0x1
c0009cf3:	8d 93 d4 bd ff ff    	lea    -0x422c(%ebx),%edx
c0009cf9:	52                   	push   %edx
c0009cfa:	50                   	push   %eax
c0009cfb:	e8 d0 90 ff ff       	call   c0002dd0 <memcpy>
c0009d00:	83 c4 10             	add    $0x10,%esp
c0009d03:	8b 45 a4             	mov    -0x5c(%ebp),%eax
c0009d06:	c7 40 10 00 00 00 00 	movl   $0x0,0x10(%eax)
c0009d0d:	8b 45 a4             	mov    -0x5c(%ebp),%eax
c0009d10:	c7 40 14 02 00 00 00 	movl   $0x2,0x14(%eax)
c0009d17:	83 45 a4 18          	addl   $0x18,-0x5c(%ebp)
c0009d1b:	8b 45 a4             	mov    -0x5c(%ebp),%eax
c0009d1e:	83 ec 04             	sub    $0x4,%esp
c0009d21:	6a 02                	push   $0x2
c0009d23:	8d 93 d6 bd ff ff    	lea    -0x422a(%ebx),%edx
c0009d29:	52                   	push   %edx
c0009d2a:	50                   	push   %eax
c0009d2b:	e8 a0 90 ff ff       	call   c0002dd0 <memcpy>
c0009d30:	83 c4 10             	add    $0x10,%esp
c0009d33:	8b 45 a4             	mov    -0x5c(%ebp),%eax
c0009d36:	c7 40 10 00 00 00 00 	movl   $0x0,0x10(%eax)
c0009d3d:	8b 45 a4             	mov    -0x5c(%ebp),%eax
c0009d40:	c7 40 14 02 00 00 00 	movl   $0x2,0x14(%eax)
c0009d47:	8b 85 cc fd ff ff    	mov    -0x234(%ebp),%eax
c0009d4d:	6a 01                	push   $0x1
c0009d4f:	ff 75 b8             	pushl  -0x48(%ebp)
c0009d52:	50                   	push   %eax
c0009d53:	ff 75 c0             	pushl  -0x40(%ebp)
c0009d56:	e8 09 cb ff ff       	call   c0006864 <ide_write>
c0009d5b:	83 c4 10             	add    $0x10,%esp
c0009d5e:	8b 85 cc fd ff ff    	mov    -0x234(%ebp),%eax
c0009d64:	83 ec 08             	sub    $0x8,%esp
c0009d67:	50                   	push   %eax
c0009d68:	8d 83 d9 bd ff ff    	lea    -0x4227(%ebx),%eax
c0009d6e:	50                   	push   %eax
c0009d6f:	e8 fd c5 ff ff       	call   c0006371 <printk>
c0009d74:	83 c4 10             	add    $0x10,%esp
c0009d77:	8b 45 08             	mov    0x8(%ebp),%eax
c0009d7a:	83 c0 14             	add    $0x14,%eax
c0009d7d:	83 ec 08             	sub    $0x8,%esp
c0009d80:	50                   	push   %eax
c0009d81:	8d 83 ee bd ff ff    	lea    -0x4212(%ebx),%eax
c0009d87:	50                   	push   %eax
c0009d88:	e8 e4 c5 ff ff       	call   c0006371 <printk>
c0009d8d:	83 c4 10             	add    $0x10,%esp
c0009d90:	83 ec 0c             	sub    $0xc,%esp
c0009d93:	ff 75 b8             	pushl  -0x48(%ebp)
c0009d96:	e8 72 a1 ff ff       	call   c0003f0d <sys_free>
c0009d9b:	83 c4 10             	add    $0x10,%esp
c0009d9e:	90                   	nop
c0009d9f:	8d 65 f4             	lea    -0xc(%ebp),%esp
c0009da2:	5b                   	pop    %ebx
c0009da3:	5e                   	pop    %esi
c0009da4:	5f                   	pop    %edi
c0009da5:	5d                   	pop    %ebp
c0009da6:	c3                   	ret    

c0009da7 <path_parse>:
c0009da7:	55                   	push   %ebp
c0009da8:	89 e5                	mov    %esp,%ebp
c0009daa:	e8 29 82 ff ff       	call   c0001fd8 <__x86.get_pc_thunk.ax>
c0009daf:	05 51 82 00 00       	add    $0x8251,%eax
c0009db4:	8b 45 08             	mov    0x8(%ebp),%eax
c0009db7:	0f b6 00             	movzbl (%eax),%eax
c0009dba:	3c 2f                	cmp    $0x2f,%al
c0009dbc:	75 27                	jne    c0009de5 <path_parse+0x3e>
c0009dbe:	83 45 08 01          	addl   $0x1,0x8(%ebp)
c0009dc2:	8b 45 08             	mov    0x8(%ebp),%eax
c0009dc5:	0f b6 00             	movzbl (%eax),%eax
c0009dc8:	3c 2f                	cmp    $0x2f,%al
c0009dca:	74 f2                	je     c0009dbe <path_parse+0x17>
c0009dcc:	eb 17                	jmp    c0009de5 <path_parse+0x3e>
c0009dce:	8b 55 08             	mov    0x8(%ebp),%edx
c0009dd1:	8d 42 01             	lea    0x1(%edx),%eax
c0009dd4:	89 45 08             	mov    %eax,0x8(%ebp)
c0009dd7:	8b 45 0c             	mov    0xc(%ebp),%eax
c0009dda:	8d 48 01             	lea    0x1(%eax),%ecx
c0009ddd:	89 4d 0c             	mov    %ecx,0xc(%ebp)
c0009de0:	0f b6 12             	movzbl (%edx),%edx
c0009de3:	88 10                	mov    %dl,(%eax)
c0009de5:	8b 45 08             	mov    0x8(%ebp),%eax
c0009de8:	0f b6 00             	movzbl (%eax),%eax
c0009deb:	3c 2f                	cmp    $0x2f,%al
c0009ded:	74 0a                	je     c0009df9 <path_parse+0x52>
c0009def:	8b 45 08             	mov    0x8(%ebp),%eax
c0009df2:	0f b6 00             	movzbl (%eax),%eax
c0009df5:	84 c0                	test   %al,%al
c0009df7:	75 d5                	jne    c0009dce <path_parse+0x27>
c0009df9:	8b 45 08             	mov    0x8(%ebp),%eax
c0009dfc:	0f b6 00             	movzbl (%eax),%eax
c0009dff:	84 c0                	test   %al,%al
c0009e01:	75 07                	jne    c0009e0a <path_parse+0x63>
c0009e03:	b8 00 00 00 00       	mov    $0x0,%eax
c0009e08:	eb 03                	jmp    c0009e0d <path_parse+0x66>
c0009e0a:	8b 45 08             	mov    0x8(%ebp),%eax
c0009e0d:	5d                   	pop    %ebp
c0009e0e:	c3                   	ret    

c0009e0f <path_depth_cnt>:
c0009e0f:	55                   	push   %ebp
c0009e10:	89 e5                	mov    %esp,%ebp
c0009e12:	53                   	push   %ebx
c0009e13:	83 ec 24             	sub    $0x24,%esp
c0009e16:	e8 da 7b ff ff       	call   c00019f5 <__x86.get_pc_thunk.bx>
c0009e1b:	81 c3 e5 81 00 00    	add    $0x81e5,%ebx
c0009e21:	8b 45 08             	mov    0x8(%ebp),%eax
c0009e24:	89 45 f4             	mov    %eax,-0xc(%ebp)
c0009e27:	c7 45 f0 00 00 00 00 	movl   $0x0,-0x10(%ebp)
c0009e2e:	8d 45 e0             	lea    -0x20(%ebp),%eax
c0009e31:	50                   	push   %eax
c0009e32:	ff 75 f4             	pushl  -0xc(%ebp)
c0009e35:	e8 6d ff ff ff       	call   c0009da7 <path_parse>
c0009e3a:	83 c4 08             	add    $0x8,%esp
c0009e3d:	89 45 f4             	mov    %eax,-0xc(%ebp)
c0009e40:	eb 32                	jmp    c0009e74 <path_depth_cnt+0x65>
c0009e42:	83 45 f0 01          	addl   $0x1,-0x10(%ebp)
c0009e46:	83 ec 04             	sub    $0x4,%esp
c0009e49:	6a 10                	push   $0x10
c0009e4b:	6a 00                	push   $0x0
c0009e4d:	8d 45 e0             	lea    -0x20(%ebp),%eax
c0009e50:	50                   	push   %eax
c0009e51:	e8 3f 8f ff ff       	call   c0002d95 <memset>
c0009e56:	83 c4 10             	add    $0x10,%esp
c0009e59:	83 7d f4 00          	cmpl   $0x0,-0xc(%ebp)
c0009e5d:	74 15                	je     c0009e74 <path_depth_cnt+0x65>
c0009e5f:	83 ec 08             	sub    $0x8,%esp
c0009e62:	8d 45 e0             	lea    -0x20(%ebp),%eax
c0009e65:	50                   	push   %eax
c0009e66:	ff 75 f4             	pushl  -0xc(%ebp)
c0009e69:	e8 39 ff ff ff       	call   c0009da7 <path_parse>
c0009e6e:	83 c4 10             	add    $0x10,%esp
c0009e71:	89 45 f4             	mov    %eax,-0xc(%ebp)
c0009e74:	0f b6 45 e0          	movzbl -0x20(%ebp),%eax
c0009e78:	84 c0                	test   %al,%al
c0009e7a:	75 c6                	jne    c0009e42 <path_depth_cnt+0x33>
c0009e7c:	8b 45 f0             	mov    -0x10(%ebp),%eax
c0009e7f:	8b 5d fc             	mov    -0x4(%ebp),%ebx
c0009e82:	c9                   	leave  
c0009e83:	c3                   	ret    

c0009e84 <search_file>:
c0009e84:	55                   	push   %ebp
c0009e85:	89 e5                	mov    %esp,%ebp
c0009e87:	53                   	push   %ebx
c0009e88:	83 ec 44             	sub    $0x44,%esp
c0009e8b:	e8 65 7b ff ff       	call   c00019f5 <__x86.get_pc_thunk.bx>
c0009e90:	81 c3 70 81 00 00    	add    $0x8170,%ebx
c0009e96:	83 ec 08             	sub    $0x8,%esp
c0009e99:	8d 83 fe bd ff ff    	lea    -0x4202(%ebx),%eax
c0009e9f:	50                   	push   %eax
c0009ea0:	ff 75 08             	pushl  0x8(%ebp)
c0009ea3:	e8 45 90 ff ff       	call   c0002eed <strcmp>
c0009ea8:	83 c4 10             	add    $0x10,%esp
c0009eab:	84 c0                	test   %al,%al
c0009ead:	74 32                	je     c0009ee1 <search_file+0x5d>
c0009eaf:	83 ec 08             	sub    $0x8,%esp
c0009eb2:	8d 83 00 be ff ff    	lea    -0x4200(%ebx),%eax
c0009eb8:	50                   	push   %eax
c0009eb9:	ff 75 08             	pushl  0x8(%ebp)
c0009ebc:	e8 2c 90 ff ff       	call   c0002eed <strcmp>
c0009ec1:	83 c4 10             	add    $0x10,%esp
c0009ec4:	84 c0                	test   %al,%al
c0009ec6:	74 19                	je     c0009ee1 <search_file+0x5d>
c0009ec8:	83 ec 08             	sub    $0x8,%esp
c0009ecb:	8d 83 03 be ff ff    	lea    -0x41fd(%ebx),%eax
c0009ed1:	50                   	push   %eax
c0009ed2:	ff 75 08             	pushl  0x8(%ebp)
c0009ed5:	e8 13 90 ff ff       	call   c0002eed <strcmp>
c0009eda:	83 c4 10             	add    $0x10,%esp
c0009edd:	84 c0                	test   %al,%al
c0009edf:	75 2c                	jne    c0009f0d <search_file+0x89>
c0009ee1:	8b 45 0c             	mov    0xc(%ebp),%eax
c0009ee4:	c7 c2 20 40 01 c0    	mov    $0xc0014020,%edx
c0009eea:	89 90 00 02 00 00    	mov    %edx,0x200(%eax)
c0009ef0:	8b 45 0c             	mov    0xc(%ebp),%eax
c0009ef3:	c7 80 04 02 00 00 02 	movl   $0x2,0x204(%eax)
c0009efa:	00 00 00 
c0009efd:	8b 45 0c             	mov    0xc(%ebp),%eax
c0009f00:	c6 00 00             	movb   $0x0,(%eax)
c0009f03:	b8 00 00 00 00       	mov    $0x0,%eax
c0009f08:	e9 ae 01 00 00       	jmp    c000a0bb <search_file+0x237>
c0009f0d:	83 ec 0c             	sub    $0xc,%esp
c0009f10:	ff 75 08             	pushl  0x8(%ebp)
c0009f13:	e8 9f 8f ff ff       	call   c0002eb7 <strlen>
c0009f18:	83 c4 10             	add    $0x10,%esp
c0009f1b:	89 45 e8             	mov    %eax,-0x18(%ebp)
c0009f1e:	8b 45 08             	mov    0x8(%ebp),%eax
c0009f21:	89 45 f4             	mov    %eax,-0xc(%ebp)
c0009f24:	c7 c0 20 40 01 c0    	mov    $0xc0014020,%eax
c0009f2a:	89 45 f0             	mov    %eax,-0x10(%ebp)
c0009f2d:	c7 45 c0 00 00 00 00 	movl   $0x0,-0x40(%ebp)
c0009f34:	c7 45 c4 00 00 00 00 	movl   $0x0,-0x3c(%ebp)
c0009f3b:	c7 45 c8 00 00 00 00 	movl   $0x0,-0x38(%ebp)
c0009f42:	c7 45 cc 00 00 00 00 	movl   $0x0,-0x34(%ebp)
c0009f49:	8b 45 0c             	mov    0xc(%ebp),%eax
c0009f4c:	8b 55 f0             	mov    -0x10(%ebp),%edx
c0009f4f:	89 90 00 02 00 00    	mov    %edx,0x200(%eax)
c0009f55:	8b 45 0c             	mov    0xc(%ebp),%eax
c0009f58:	c7 80 04 02 00 00 00 	movl   $0x0,0x204(%eax)
c0009f5f:	00 00 00 
c0009f62:	c7 45 ec 00 00 00 00 	movl   $0x0,-0x14(%ebp)
c0009f69:	83 ec 08             	sub    $0x8,%esp
c0009f6c:	8d 45 c0             	lea    -0x40(%ebp),%eax
c0009f6f:	50                   	push   %eax
c0009f70:	ff 75 f4             	pushl  -0xc(%ebp)
c0009f73:	e8 2f fe ff ff       	call   c0009da7 <path_parse>
c0009f78:	83 c4 10             	add    $0x10,%esp
c0009f7b:	89 45 f4             	mov    %eax,-0xc(%ebp)
c0009f7e:	e9 e5 00 00 00       	jmp    c000a068 <search_file+0x1e4>
c0009f83:	8b 45 0c             	mov    0xc(%ebp),%eax
c0009f86:	83 ec 08             	sub    $0x8,%esp
c0009f89:	8d 93 fe bd ff ff    	lea    -0x4202(%ebx),%edx
c0009f8f:	52                   	push   %edx
c0009f90:	50                   	push   %eax
c0009f91:	e8 45 90 ff ff       	call   c0002fdb <strcat>
c0009f96:	83 c4 10             	add    $0x10,%esp
c0009f99:	8b 45 0c             	mov    0xc(%ebp),%eax
c0009f9c:	83 ec 08             	sub    $0x8,%esp
c0009f9f:	8d 55 c0             	lea    -0x40(%ebp),%edx
c0009fa2:	52                   	push   %edx
c0009fa3:	50                   	push   %eax
c0009fa4:	e8 32 90 ff ff       	call   c0002fdb <strcat>
c0009fa9:	83 c4 10             	add    $0x10,%esp
c0009fac:	c7 c0 40 2c 01 c0    	mov    $0xc0012c40,%eax
c0009fb2:	8b 00                	mov    (%eax),%eax
c0009fb4:	8d 55 d0             	lea    -0x30(%ebp),%edx
c0009fb7:	52                   	push   %edx
c0009fb8:	8d 55 c0             	lea    -0x40(%ebp),%edx
c0009fbb:	52                   	push   %edx
c0009fbc:	ff 75 f0             	pushl  -0x10(%ebp)
c0009fbf:	50                   	push   %eax
c0009fc0:	e8 f6 d7 ff ff       	call   c00077bb <search_dir_entry>
c0009fc5:	83 c4 10             	add    $0x10,%esp
c0009fc8:	85 c0                	test   %eax,%eax
c0009fca:	0f 84 91 00 00 00    	je     c000a061 <search_file+0x1dd>
c0009fd0:	83 ec 04             	sub    $0x4,%esp
c0009fd3:	6a 10                	push   $0x10
c0009fd5:	6a 00                	push   $0x0
c0009fd7:	8d 45 c0             	lea    -0x40(%ebp),%eax
c0009fda:	50                   	push   %eax
c0009fdb:	e8 b5 8d ff ff       	call   c0002d95 <memset>
c0009fe0:	83 c4 10             	add    $0x10,%esp
c0009fe3:	83 7d f4 00          	cmpl   $0x0,-0xc(%ebp)
c0009fe7:	74 15                	je     c0009ffe <search_file+0x17a>
c0009fe9:	83 ec 08             	sub    $0x8,%esp
c0009fec:	8d 45 c0             	lea    -0x40(%ebp),%eax
c0009fef:	50                   	push   %eax
c0009ff0:	ff 75 f4             	pushl  -0xc(%ebp)
c0009ff3:	e8 af fd ff ff       	call   c0009da7 <path_parse>
c0009ff8:	83 c4 10             	add    $0x10,%esp
c0009ffb:	89 45 f4             	mov    %eax,-0xc(%ebp)
c0009ffe:	8b 45 e4             	mov    -0x1c(%ebp),%eax
c000a001:	83 f8 02             	cmp    $0x2,%eax
c000a004:	75 41                	jne    c000a047 <search_file+0x1c3>
c000a006:	8b 45 f0             	mov    -0x10(%ebp),%eax
c000a009:	8b 00                	mov    (%eax),%eax
c000a00b:	8b 00                	mov    (%eax),%eax
c000a00d:	89 45 ec             	mov    %eax,-0x14(%ebp)
c000a010:	83 ec 0c             	sub    $0xc,%esp
c000a013:	ff 75 f0             	pushl  -0x10(%ebp)
c000a016:	e8 89 d9 ff ff       	call   c00079a4 <dir_close>
c000a01b:	83 c4 10             	add    $0x10,%esp
c000a01e:	8b 55 e0             	mov    -0x20(%ebp),%edx
c000a021:	c7 c0 40 2c 01 c0    	mov    $0xc0012c40,%eax
c000a027:	8b 00                	mov    (%eax),%eax
c000a029:	83 ec 08             	sub    $0x8,%esp
c000a02c:	52                   	push   %edx
c000a02d:	50                   	push   %eax
c000a02e:	e8 39 d7 ff ff       	call   c000776c <dir_open>
c000a033:	83 c4 10             	add    $0x10,%esp
c000a036:	89 45 f0             	mov    %eax,-0x10(%ebp)
c000a039:	8b 45 0c             	mov    0xc(%ebp),%eax
c000a03c:	8b 55 f0             	mov    -0x10(%ebp),%edx
c000a03f:	89 90 00 02 00 00    	mov    %edx,0x200(%eax)
c000a045:	eb 21                	jmp    c000a068 <search_file+0x1e4>
c000a047:	8b 45 e4             	mov    -0x1c(%ebp),%eax
c000a04a:	83 f8 01             	cmp    $0x1,%eax
c000a04d:	75 19                	jne    c000a068 <search_file+0x1e4>
c000a04f:	8b 45 0c             	mov    0xc(%ebp),%eax
c000a052:	c7 80 04 02 00 00 01 	movl   $0x1,0x204(%eax)
c000a059:	00 00 00 
c000a05c:	8b 45 e0             	mov    -0x20(%ebp),%eax
c000a05f:	eb 5a                	jmp    c000a0bb <search_file+0x237>
c000a061:	b8 ff ff ff ff       	mov    $0xffffffff,%eax
c000a066:	eb 53                	jmp    c000a0bb <search_file+0x237>
c000a068:	0f b6 45 c0          	movzbl -0x40(%ebp),%eax
c000a06c:	84 c0                	test   %al,%al
c000a06e:	0f 85 0f ff ff ff    	jne    c0009f83 <search_file+0xff>
c000a074:	8b 45 0c             	mov    0xc(%ebp),%eax
c000a077:	8b 80 00 02 00 00    	mov    0x200(%eax),%eax
c000a07d:	83 ec 0c             	sub    $0xc,%esp
c000a080:	50                   	push   %eax
c000a081:	e8 1e d9 ff ff       	call   c00079a4 <dir_close>
c000a086:	83 c4 10             	add    $0x10,%esp
c000a089:	c7 c0 40 2c 01 c0    	mov    $0xc0012c40,%eax
c000a08f:	8b 00                	mov    (%eax),%eax
c000a091:	83 ec 08             	sub    $0x8,%esp
c000a094:	ff 75 ec             	pushl  -0x14(%ebp)
c000a097:	50                   	push   %eax
c000a098:	e8 cf d6 ff ff       	call   c000776c <dir_open>
c000a09d:	83 c4 10             	add    $0x10,%esp
c000a0a0:	89 c2                	mov    %eax,%edx
c000a0a2:	8b 45 0c             	mov    0xc(%ebp),%eax
c000a0a5:	89 90 00 02 00 00    	mov    %edx,0x200(%eax)
c000a0ab:	8b 45 0c             	mov    0xc(%ebp),%eax
c000a0ae:	c7 80 04 02 00 00 02 	movl   $0x2,0x204(%eax)
c000a0b5:	00 00 00 
c000a0b8:	8b 45 e0             	mov    -0x20(%ebp),%eax
c000a0bb:	8b 5d fc             	mov    -0x4(%ebp),%ebx
c000a0be:	c9                   	leave  
c000a0bf:	c3                   	ret    

c000a0c0 <sys_open>:
c000a0c0:	55                   	push   %ebp
c000a0c1:	89 e5                	mov    %esp,%ebp
c000a0c3:	56                   	push   %esi
c000a0c4:	53                   	push   %ebx
c000a0c5:	81 ec 30 02 00 00    	sub    $0x230,%esp
c000a0cb:	e8 25 79 ff ff       	call   c00019f5 <__x86.get_pc_thunk.bx>
c000a0d0:	81 c3 30 7f 00 00    	add    $0x7f30,%ebx
c000a0d6:	8b 45 0c             	mov    0xc(%ebp),%eax
c000a0d9:	88 85 d4 fd ff ff    	mov    %al,-0x22c(%ebp)
c000a0df:	83 ec 0c             	sub    $0xc,%esp
c000a0e2:	ff 75 08             	pushl  0x8(%ebp)
c000a0e5:	e8 cd 8d ff ff       	call   c0002eb7 <strlen>
c000a0ea:	83 c4 10             	add    $0x10,%esp
c000a0ed:	8d 50 ff             	lea    -0x1(%eax),%edx
c000a0f0:	8b 45 08             	mov    0x8(%ebp),%eax
c000a0f3:	01 d0                	add    %edx,%eax
c000a0f5:	0f b6 00             	movzbl (%eax),%eax
c000a0f8:	3c 2f                	cmp    $0x2f,%al
c000a0fa:	75 1f                	jne    c000a11b <sys_open+0x5b>
c000a0fc:	83 ec 08             	sub    $0x8,%esp
c000a0ff:	ff 75 08             	pushl  0x8(%ebp)
c000a102:	8d 83 07 be ff ff    	lea    -0x41f9(%ebx),%eax
c000a108:	50                   	push   %eax
c000a109:	e8 63 c2 ff ff       	call   c0006371 <printk>
c000a10e:	83 c4 10             	add    $0x10,%esp
c000a111:	b8 ff ff ff ff       	mov    $0xffffffff,%eax
c000a116:	e9 e9 01 00 00       	jmp    c000a304 <sys_open+0x244>
c000a11b:	c7 45 f4 ff ff ff ff 	movl   $0xffffffff,-0xc(%ebp)
c000a122:	83 ec 04             	sub    $0x4,%esp
c000a125:	68 08 02 00 00       	push   $0x208
c000a12a:	6a 00                	push   $0x0
c000a12c:	8d 85 dc fd ff ff    	lea    -0x224(%ebp),%eax
c000a132:	50                   	push   %eax
c000a133:	e8 5d 8c ff ff       	call   c0002d95 <memset>
c000a138:	83 c4 10             	add    $0x10,%esp
c000a13b:	83 ec 0c             	sub    $0xc,%esp
c000a13e:	ff 75 08             	pushl  0x8(%ebp)
c000a141:	e8 c9 fc ff ff       	call   c0009e0f <path_depth_cnt>
c000a146:	83 c4 10             	add    $0x10,%esp
c000a149:	89 45 f0             	mov    %eax,-0x10(%ebp)
c000a14c:	83 ec 08             	sub    $0x8,%esp
c000a14f:	8d 85 dc fd ff ff    	lea    -0x224(%ebp),%eax
c000a155:	50                   	push   %eax
c000a156:	ff 75 08             	pushl  0x8(%ebp)
c000a159:	e8 26 fd ff ff       	call   c0009e84 <search_file>
c000a15e:	83 c4 10             	add    $0x10,%esp
c000a161:	89 45 ec             	mov    %eax,-0x14(%ebp)
c000a164:	83 7d ec ff          	cmpl   $0xffffffff,-0x14(%ebp)
c000a168:	0f 95 c0             	setne  %al
c000a16b:	0f b6 c0             	movzbl %al,%eax
c000a16e:	89 45 e8             	mov    %eax,-0x18(%ebp)
c000a171:	8b 45 e0             	mov    -0x20(%ebp),%eax
c000a174:	83 f8 02             	cmp    $0x2,%eax
c000a177:	75 2b                	jne    c000a1a4 <sys_open+0xe4>
c000a179:	83 ec 0c             	sub    $0xc,%esp
c000a17c:	8d 83 24 be ff ff    	lea    -0x41dc(%ebx),%eax
c000a182:	50                   	push   %eax
c000a183:	e8 e9 c1 ff ff       	call   c0006371 <printk>
c000a188:	83 c4 10             	add    $0x10,%esp
c000a18b:	8b 45 dc             	mov    -0x24(%ebp),%eax
c000a18e:	83 ec 0c             	sub    $0xc,%esp
c000a191:	50                   	push   %eax
c000a192:	e8 0d d8 ff ff       	call   c00079a4 <dir_close>
c000a197:	83 c4 10             	add    $0x10,%esp
c000a19a:	b8 ff ff ff ff       	mov    $0xffffffff,%eax
c000a19f:	e9 60 01 00 00       	jmp    c000a304 <sys_open+0x244>
c000a1a4:	83 ec 0c             	sub    $0xc,%esp
c000a1a7:	8d 85 dc fd ff ff    	lea    -0x224(%ebp),%eax
c000a1ad:	50                   	push   %eax
c000a1ae:	e8 5c fc ff ff       	call   c0009e0f <path_depth_cnt>
c000a1b3:	83 c4 10             	add    $0x10,%esp
c000a1b6:	89 45 e4             	mov    %eax,-0x1c(%ebp)
c000a1b9:	8b 45 f0             	mov    -0x10(%ebp),%eax
c000a1bc:	3b 45 e4             	cmp    -0x1c(%ebp),%eax
c000a1bf:	74 3b                	je     c000a1fc <sys_open+0x13c>
c000a1c1:	83 ec 0c             	sub    $0xc,%esp
c000a1c4:	ff 75 e4             	pushl  -0x1c(%ebp)
c000a1c7:	ff 75 f0             	pushl  -0x10(%ebp)
c000a1ca:	8d 85 dc fd ff ff    	lea    -0x224(%ebp),%eax
c000a1d0:	50                   	push   %eax
c000a1d1:	ff 75 08             	pushl  0x8(%ebp)
c000a1d4:	8d 83 64 be ff ff    	lea    -0x419c(%ebx),%eax
c000a1da:	50                   	push   %eax
c000a1db:	e8 91 c1 ff ff       	call   c0006371 <printk>
c000a1e0:	83 c4 20             	add    $0x20,%esp
c000a1e3:	8b 45 dc             	mov    -0x24(%ebp),%eax
c000a1e6:	83 ec 0c             	sub    $0xc,%esp
c000a1e9:	50                   	push   %eax
c000a1ea:	e8 b5 d7 ff ff       	call   c00079a4 <dir_close>
c000a1ef:	83 c4 10             	add    $0x10,%esp
c000a1f2:	b8 ff ff ff ff       	mov    $0xffffffff,%eax
c000a1f7:	e9 08 01 00 00       	jmp    c000a304 <sys_open+0x244>
c000a1fc:	83 7d e8 00          	cmpl   $0x0,-0x18(%ebp)
c000a200:	75 58                	jne    c000a25a <sys_open+0x19a>
c000a202:	0f b6 85 d4 fd ff ff 	movzbl -0x22c(%ebp),%eax
c000a209:	83 e0 04             	and    $0x4,%eax
c000a20c:	85 c0                	test   %eax,%eax
c000a20e:	75 4a                	jne    c000a25a <sys_open+0x19a>
c000a210:	83 ec 08             	sub    $0x8,%esp
c000a213:	6a 2f                	push   $0x2f
c000a215:	8d 85 dc fd ff ff    	lea    -0x224(%ebp),%eax
c000a21b:	50                   	push   %eax
c000a21c:	e8 71 8d ff ff       	call   c0002f92 <strrchr>
c000a221:	83 c4 10             	add    $0x10,%esp
c000a224:	83 c0 01             	add    $0x1,%eax
c000a227:	83 ec 04             	sub    $0x4,%esp
c000a22a:	50                   	push   %eax
c000a22b:	8d 85 dc fd ff ff    	lea    -0x224(%ebp),%eax
c000a231:	50                   	push   %eax
c000a232:	8d 83 a8 be ff ff    	lea    -0x4158(%ebx),%eax
c000a238:	50                   	push   %eax
c000a239:	e8 33 c1 ff ff       	call   c0006371 <printk>
c000a23e:	83 c4 10             	add    $0x10,%esp
c000a241:	8b 45 dc             	mov    -0x24(%ebp),%eax
c000a244:	83 ec 0c             	sub    $0xc,%esp
c000a247:	50                   	push   %eax
c000a248:	e8 57 d7 ff ff       	call   c00079a4 <dir_close>
c000a24d:	83 c4 10             	add    $0x10,%esp
c000a250:	b8 ff ff ff ff       	mov    $0xffffffff,%eax
c000a255:	e9 aa 00 00 00       	jmp    c000a304 <sys_open+0x244>
c000a25a:	83 7d e8 00          	cmpl   $0x0,-0x18(%ebp)
c000a25e:	74 39                	je     c000a299 <sys_open+0x1d9>
c000a260:	0f b6 85 d4 fd ff ff 	movzbl -0x22c(%ebp),%eax
c000a267:	83 e0 04             	and    $0x4,%eax
c000a26a:	85 c0                	test   %eax,%eax
c000a26c:	74 2b                	je     c000a299 <sys_open+0x1d9>
c000a26e:	83 ec 08             	sub    $0x8,%esp
c000a271:	ff 75 08             	pushl  0x8(%ebp)
c000a274:	8d 83 c8 be ff ff    	lea    -0x4138(%ebx),%eax
c000a27a:	50                   	push   %eax
c000a27b:	e8 f1 c0 ff ff       	call   c0006371 <printk>
c000a280:	83 c4 10             	add    $0x10,%esp
c000a283:	8b 45 dc             	mov    -0x24(%ebp),%eax
c000a286:	83 ec 0c             	sub    $0xc,%esp
c000a289:	50                   	push   %eax
c000a28a:	e8 15 d7 ff ff       	call   c00079a4 <dir_close>
c000a28f:	83 c4 10             	add    $0x10,%esp
c000a292:	b8 ff ff ff ff       	mov    $0xffffffff,%eax
c000a297:	eb 6b                	jmp    c000a304 <sys_open+0x244>
c000a299:	0f b6 85 d4 fd ff ff 	movzbl -0x22c(%ebp),%eax
c000a2a0:	83 e0 04             	and    $0x4,%eax
c000a2a3:	83 f8 04             	cmp    $0x4,%eax
c000a2a6:	75 3f                	jne    c000a2e7 <sys_open+0x227>
c000a2a8:	0f b6 b5 d4 fd ff ff 	movzbl -0x22c(%ebp),%esi
c000a2af:	83 ec 08             	sub    $0x8,%esp
c000a2b2:	6a 2f                	push   $0x2f
c000a2b4:	ff 75 08             	pushl  0x8(%ebp)
c000a2b7:	e8 d6 8c ff ff       	call   c0002f92 <strrchr>
c000a2bc:	83 c4 10             	add    $0x10,%esp
c000a2bf:	8d 50 01             	lea    0x1(%eax),%edx
c000a2c2:	8b 45 dc             	mov    -0x24(%ebp),%eax
c000a2c5:	83 ec 04             	sub    $0x4,%esp
c000a2c8:	56                   	push   %esi
c000a2c9:	52                   	push   %edx
c000a2ca:	50                   	push   %eax
c000a2cb:	e8 52 e4 ff ff       	call   c0008722 <file_create>
c000a2d0:	83 c4 10             	add    $0x10,%esp
c000a2d3:	89 45 f4             	mov    %eax,-0xc(%ebp)
c000a2d6:	8b 45 dc             	mov    -0x24(%ebp),%eax
c000a2d9:	83 ec 0c             	sub    $0xc,%esp
c000a2dc:	50                   	push   %eax
c000a2dd:	e8 c2 d6 ff ff       	call   c00079a4 <dir_close>
c000a2e2:	83 c4 10             	add    $0x10,%esp
c000a2e5:	eb 1a                	jmp    c000a301 <sys_open+0x241>
c000a2e7:	0f b6 95 d4 fd ff ff 	movzbl -0x22c(%ebp),%edx
c000a2ee:	8b 45 ec             	mov    -0x14(%ebp),%eax
c000a2f1:	83 ec 08             	sub    $0x8,%esp
c000a2f4:	52                   	push   %edx
c000a2f5:	50                   	push   %eax
c000a2f6:	e8 2d e7 ff ff       	call   c0008a28 <file_open>
c000a2fb:	83 c4 10             	add    $0x10,%esp
c000a2fe:	89 45 f4             	mov    %eax,-0xc(%ebp)
c000a301:	8b 45 f4             	mov    -0xc(%ebp),%eax
c000a304:	8d 65 f8             	lea    -0x8(%ebp),%esp
c000a307:	5b                   	pop    %ebx
c000a308:	5e                   	pop    %esi
c000a309:	5d                   	pop    %ebp
c000a30a:	c3                   	ret    

c000a30b <fd_local2global>:
c000a30b:	55                   	push   %ebp
c000a30c:	89 e5                	mov    %esp,%ebp
c000a30e:	53                   	push   %ebx
c000a30f:	83 ec 14             	sub    $0x14,%esp
c000a312:	e8 c1 7c ff ff       	call   c0001fd8 <__x86.get_pc_thunk.ax>
c000a317:	05 e9 7c 00 00       	add    $0x7ce9,%eax
c000a31c:	89 c3                	mov    %eax,%ebx
c000a31e:	e8 50 a0 ff ff       	call   c0004373 <running_thread>
c000a323:	89 45 f4             	mov    %eax,-0xc(%ebp)
c000a326:	8b 45 f4             	mov    -0xc(%ebp),%eax
c000a329:	8b 55 08             	mov    0x8(%ebp),%edx
c000a32c:	83 c2 08             	add    $0x8,%edx
c000a32f:	8b 44 90 04          	mov    0x4(%eax,%edx,4),%eax
c000a333:	89 45 f0             	mov    %eax,-0x10(%ebp)
c000a336:	8b 45 f0             	mov    -0x10(%ebp),%eax
c000a339:	83 c4 14             	add    $0x14,%esp
c000a33c:	5b                   	pop    %ebx
c000a33d:	5d                   	pop    %ebp
c000a33e:	c3                   	ret    

c000a33f <sys_close>:
c000a33f:	55                   	push   %ebp
c000a340:	89 e5                	mov    %esp,%ebp
c000a342:	53                   	push   %ebx
c000a343:	83 ec 14             	sub    $0x14,%esp
c000a346:	e8 aa 76 ff ff       	call   c00019f5 <__x86.get_pc_thunk.bx>
c000a34b:	81 c3 b5 7c 00 00    	add    $0x7cb5,%ebx
c000a351:	c7 45 f4 ff ff ff ff 	movl   $0xffffffff,-0xc(%ebp)
c000a358:	83 7d 08 02          	cmpl   $0x2,0x8(%ebp)
c000a35c:	7e 4a                	jle    c000a3a8 <sys_close+0x69>
c000a35e:	8b 45 08             	mov    0x8(%ebp),%eax
c000a361:	83 ec 0c             	sub    $0xc,%esp
c000a364:	50                   	push   %eax
c000a365:	e8 a1 ff ff ff       	call   c000a30b <fd_local2global>
c000a36a:	83 c4 10             	add    $0x10,%esp
c000a36d:	89 45 f0             	mov    %eax,-0x10(%ebp)
c000a370:	8b 55 f0             	mov    -0x10(%ebp),%edx
c000a373:	89 d0                	mov    %edx,%eax
c000a375:	01 c0                	add    %eax,%eax
c000a377:	01 d0                	add    %edx,%eax
c000a379:	c1 e0 02             	shl    $0x2,%eax
c000a37c:	c7 c2 40 42 01 c0    	mov    $0xc0014240,%edx
c000a382:	01 d0                	add    %edx,%eax
c000a384:	83 ec 0c             	sub    $0xc,%esp
c000a387:	50                   	push   %eax
c000a388:	e8 88 ee ff ff       	call   c0009215 <file_close>
c000a38d:	83 c4 10             	add    $0x10,%esp
c000a390:	89 45 f4             	mov    %eax,-0xc(%ebp)
c000a393:	e8 db 9f ff ff       	call   c0004373 <running_thread>
c000a398:	89 c2                	mov    %eax,%edx
c000a39a:	8b 45 08             	mov    0x8(%ebp),%eax
c000a39d:	83 c0 08             	add    $0x8,%eax
c000a3a0:	c7 44 82 04 ff ff ff 	movl   $0xffffffff,0x4(%edx,%eax,4)
c000a3a7:	ff 
c000a3a8:	8b 45 f4             	mov    -0xc(%ebp),%eax
c000a3ab:	8b 5d fc             	mov    -0x4(%ebp),%ebx
c000a3ae:	c9                   	leave  
c000a3af:	c3                   	ret    

c000a3b0 <sys_write>:
c000a3b0:	55                   	push   %ebp
c000a3b1:	89 e5                	mov    %esp,%ebp
c000a3b3:	57                   	push   %edi
c000a3b4:	53                   	push   %ebx
c000a3b5:	81 ec 10 04 00 00    	sub    $0x410,%esp
c000a3bb:	e8 35 76 ff ff       	call   c00019f5 <__x86.get_pc_thunk.bx>
c000a3c0:	81 c3 40 7c 00 00    	add    $0x7c40,%ebx
c000a3c6:	83 7d 08 00          	cmpl   $0x0,0x8(%ebp)
c000a3ca:	79 1c                	jns    c000a3e8 <sys_write+0x38>
c000a3cc:	83 ec 0c             	sub    $0xc,%esp
c000a3cf:	8d 83 de be ff ff    	lea    -0x4122(%ebx),%eax
c000a3d5:	50                   	push   %eax
c000a3d6:	e8 96 bf ff ff       	call   c0006371 <printk>
c000a3db:	83 c4 10             	add    $0x10,%esp
c000a3de:	b8 ff ff ff ff       	mov    $0xffffffff,%eax
c000a3e3:	e9 bf 00 00 00       	jmp    c000a4a7 <sys_write+0xf7>
c000a3e8:	83 7d 08 01          	cmpl   $0x1,0x8(%ebp)
c000a3ec:	75 43                	jne    c000a431 <sys_write+0x81>
c000a3ee:	8d 95 ec fb ff ff    	lea    -0x414(%ebp),%edx
c000a3f4:	b8 00 00 00 00       	mov    $0x0,%eax
c000a3f9:	b9 00 01 00 00       	mov    $0x100,%ecx
c000a3fe:	89 d7                	mov    %edx,%edi
c000a400:	f3 ab                	rep stos %eax,%es:(%edi)
c000a402:	83 ec 04             	sub    $0x4,%esp
c000a405:	ff 75 10             	pushl  0x10(%ebp)
c000a408:	ff 75 0c             	pushl  0xc(%ebp)
c000a40b:	8d 85 ec fb ff ff    	lea    -0x414(%ebp),%eax
c000a411:	50                   	push   %eax
c000a412:	e8 b9 89 ff ff       	call   c0002dd0 <memcpy>
c000a417:	83 c4 10             	add    $0x10,%esp
c000a41a:	83 ec 0c             	sub    $0xc,%esp
c000a41d:	8d 85 ec fb ff ff    	lea    -0x414(%ebp),%eax
c000a423:	50                   	push   %eax
c000a424:	e8 e7 ab ff ff       	call   c0005010 <console_put_str>
c000a429:	83 c4 10             	add    $0x10,%esp
c000a42c:	8b 45 10             	mov    0x10(%ebp),%eax
c000a42f:	eb 76                	jmp    c000a4a7 <sys_write+0xf7>
c000a431:	8b 45 08             	mov    0x8(%ebp),%eax
c000a434:	83 ec 0c             	sub    $0xc,%esp
c000a437:	50                   	push   %eax
c000a438:	e8 ce fe ff ff       	call   c000a30b <fd_local2global>
c000a43d:	83 c4 10             	add    $0x10,%esp
c000a440:	89 45 f4             	mov    %eax,-0xc(%ebp)
c000a443:	8b 55 f4             	mov    -0xc(%ebp),%edx
c000a446:	89 d0                	mov    %edx,%eax
c000a448:	01 c0                	add    %eax,%eax
c000a44a:	01 d0                	add    %edx,%eax
c000a44c:	c1 e0 02             	shl    $0x2,%eax
c000a44f:	c7 c2 40 42 01 c0    	mov    $0xc0014240,%edx
c000a455:	01 d0                	add    %edx,%eax
c000a457:	89 45 f0             	mov    %eax,-0x10(%ebp)
c000a45a:	8b 45 f0             	mov    -0x10(%ebp),%eax
c000a45d:	8b 40 04             	mov    0x4(%eax),%eax
c000a460:	83 e0 01             	and    $0x1,%eax
c000a463:	85 c0                	test   %eax,%eax
c000a465:	75 0d                	jne    c000a474 <sys_write+0xc4>
c000a467:	8b 45 f0             	mov    -0x10(%ebp),%eax
c000a46a:	8b 40 04             	mov    0x4(%eax),%eax
c000a46d:	83 e0 02             	and    $0x2,%eax
c000a470:	85 c0                	test   %eax,%eax
c000a472:	74 1c                	je     c000a490 <sys_write+0xe0>
c000a474:	83 ec 04             	sub    $0x4,%esp
c000a477:	ff 75 10             	pushl  0x10(%ebp)
c000a47a:	ff 75 0c             	pushl  0xc(%ebp)
c000a47d:	ff 75 f0             	pushl  -0x10(%ebp)
c000a480:	e8 ea e6 ff ff       	call   c0008b6f <file_write>
c000a485:	83 c4 10             	add    $0x10,%esp
c000a488:	89 45 ec             	mov    %eax,-0x14(%ebp)
c000a48b:	8b 45 ec             	mov    -0x14(%ebp),%eax
c000a48e:	eb 17                	jmp    c000a4a7 <sys_write+0xf7>
c000a490:	83 ec 0c             	sub    $0xc,%esp
c000a493:	8d 83 f4 be ff ff    	lea    -0x410c(%ebx),%eax
c000a499:	50                   	push   %eax
c000a49a:	e8 71 ab ff ff       	call   c0005010 <console_put_str>
c000a49f:	83 c4 10             	add    $0x10,%esp
c000a4a2:	b8 ff ff ff ff       	mov    $0xffffffff,%eax
c000a4a7:	8d 65 f8             	lea    -0x8(%ebp),%esp
c000a4aa:	5b                   	pop    %ebx
c000a4ab:	5f                   	pop    %edi
c000a4ac:	5d                   	pop    %ebp
c000a4ad:	c3                   	ret    

c000a4ae <sys_unlink>:
c000a4ae:	55                   	push   %ebp
c000a4af:	89 e5                	mov    %esp,%ebp
c000a4b1:	53                   	push   %ebx
c000a4b2:	81 ec 24 02 00 00    	sub    $0x224,%esp
c000a4b8:	e8 38 75 ff ff       	call   c00019f5 <__x86.get_pc_thunk.bx>
c000a4bd:	81 c3 43 7b 00 00    	add    $0x7b43,%ebx
c000a4c3:	83 ec 04             	sub    $0x4,%esp
c000a4c6:	68 08 02 00 00       	push   $0x208
c000a4cb:	6a 00                	push   $0x0
c000a4cd:	8d 85 e0 fd ff ff    	lea    -0x220(%ebp),%eax
c000a4d3:	50                   	push   %eax
c000a4d4:	e8 bc 88 ff ff       	call   c0002d95 <memset>
c000a4d9:	83 c4 10             	add    $0x10,%esp
c000a4dc:	83 ec 08             	sub    $0x8,%esp
c000a4df:	8d 85 e0 fd ff ff    	lea    -0x220(%ebp),%eax
c000a4e5:	50                   	push   %eax
c000a4e6:	ff 75 08             	pushl  0x8(%ebp)
c000a4e9:	e8 96 f9 ff ff       	call   c0009e84 <search_file>
c000a4ee:	83 c4 10             	add    $0x10,%esp
c000a4f1:	89 45 f0             	mov    %eax,-0x10(%ebp)
c000a4f4:	83 7d f0 ff          	cmpl   $0xffffffff,-0x10(%ebp)
c000a4f8:	75 2e                	jne    c000a528 <sys_unlink+0x7a>
c000a4fa:	83 ec 08             	sub    $0x8,%esp
c000a4fd:	ff 75 08             	pushl  0x8(%ebp)
c000a500:	8d 83 3b bf ff ff    	lea    -0x40c5(%ebx),%eax
c000a506:	50                   	push   %eax
c000a507:	e8 65 be ff ff       	call   c0006371 <printk>
c000a50c:	83 c4 10             	add    $0x10,%esp
c000a50f:	8b 45 e0             	mov    -0x20(%ebp),%eax
c000a512:	83 ec 0c             	sub    $0xc,%esp
c000a515:	50                   	push   %eax
c000a516:	e8 89 d4 ff ff       	call   c00079a4 <dir_close>
c000a51b:	83 c4 10             	add    $0x10,%esp
c000a51e:	b8 ff ff ff ff       	mov    $0xffffffff,%eax
c000a523:	e9 58 01 00 00       	jmp    c000a680 <sys_unlink+0x1d2>
c000a528:	8b 45 e4             	mov    -0x1c(%ebp),%eax
c000a52b:	83 f8 02             	cmp    $0x2,%eax
c000a52e:	75 2b                	jne    c000a55b <sys_unlink+0xad>
c000a530:	83 ec 0c             	sub    $0xc,%esp
c000a533:	8d 83 50 bf ff ff    	lea    -0x40b0(%ebx),%eax
c000a539:	50                   	push   %eax
c000a53a:	e8 32 be ff ff       	call   c0006371 <printk>
c000a53f:	83 c4 10             	add    $0x10,%esp
c000a542:	8b 45 e0             	mov    -0x20(%ebp),%eax
c000a545:	83 ec 0c             	sub    $0xc,%esp
c000a548:	50                   	push   %eax
c000a549:	e8 56 d4 ff ff       	call   c00079a4 <dir_close>
c000a54e:	83 c4 10             	add    $0x10,%esp
c000a551:	b8 ff ff ff ff       	mov    $0xffffffff,%eax
c000a556:	e9 25 01 00 00       	jmp    c000a680 <sys_unlink+0x1d2>
c000a55b:	c7 45 f4 00 00 00 00 	movl   $0x0,-0xc(%ebp)
c000a562:	eb 43                	jmp    c000a5a7 <sys_unlink+0xf9>
c000a564:	c7 c1 40 42 01 c0    	mov    $0xc0014240,%ecx
c000a56a:	8b 55 f4             	mov    -0xc(%ebp),%edx
c000a56d:	89 d0                	mov    %edx,%eax
c000a56f:	01 c0                	add    %eax,%eax
c000a571:	01 d0                	add    %edx,%eax
c000a573:	c1 e0 02             	shl    $0x2,%eax
c000a576:	01 c8                	add    %ecx,%eax
c000a578:	83 c0 08             	add    $0x8,%eax
c000a57b:	8b 00                	mov    (%eax),%eax
c000a57d:	85 c0                	test   %eax,%eax
c000a57f:	74 22                	je     c000a5a3 <sys_unlink+0xf5>
c000a581:	c7 c1 40 42 01 c0    	mov    $0xc0014240,%ecx
c000a587:	8b 55 f4             	mov    -0xc(%ebp),%edx
c000a58a:	89 d0                	mov    %edx,%eax
c000a58c:	01 c0                	add    %eax,%eax
c000a58e:	01 d0                	add    %edx,%eax
c000a590:	c1 e0 02             	shl    $0x2,%eax
c000a593:	01 c8                	add    %ecx,%eax
c000a595:	83 c0 08             	add    $0x8,%eax
c000a598:	8b 00                	mov    (%eax),%eax
c000a59a:	8b 10                	mov    (%eax),%edx
c000a59c:	8b 45 f0             	mov    -0x10(%ebp),%eax
c000a59f:	39 c2                	cmp    %eax,%edx
c000a5a1:	74 0c                	je     c000a5af <sys_unlink+0x101>
c000a5a3:	83 45 f4 01          	addl   $0x1,-0xc(%ebp)
c000a5a7:	83 7d f4 1f          	cmpl   $0x1f,-0xc(%ebp)
c000a5ab:	76 b7                	jbe    c000a564 <sys_unlink+0xb6>
c000a5ad:	eb 01                	jmp    c000a5b0 <sys_unlink+0x102>
c000a5af:	90                   	nop
c000a5b0:	83 7d f4 1f          	cmpl   $0x1f,-0xc(%ebp)
c000a5b4:	77 2e                	ja     c000a5e4 <sys_unlink+0x136>
c000a5b6:	8b 45 e0             	mov    -0x20(%ebp),%eax
c000a5b9:	83 ec 0c             	sub    $0xc,%esp
c000a5bc:	50                   	push   %eax
c000a5bd:	e8 e2 d3 ff ff       	call   c00079a4 <dir_close>
c000a5c2:	83 c4 10             	add    $0x10,%esp
c000a5c5:	83 ec 08             	sub    $0x8,%esp
c000a5c8:	ff 75 08             	pushl  0x8(%ebp)
c000a5cb:	8d 83 94 bf ff ff    	lea    -0x406c(%ebx),%eax
c000a5d1:	50                   	push   %eax
c000a5d2:	e8 9a bd ff ff       	call   c0006371 <printk>
c000a5d7:	83 c4 10             	add    $0x10,%esp
c000a5da:	b8 ff ff ff ff       	mov    $0xffffffff,%eax
c000a5df:	e9 9c 00 00 00       	jmp    c000a680 <sys_unlink+0x1d2>
c000a5e4:	83 ec 0c             	sub    $0xc,%esp
c000a5e7:	68 00 04 00 00       	push   $0x400
c000a5ec:	e8 96 93 ff ff       	call   c0003987 <sys_malloc>
c000a5f1:	83 c4 10             	add    $0x10,%esp
c000a5f4:	89 45 ec             	mov    %eax,-0x14(%ebp)
c000a5f7:	83 7d ec 00          	cmpl   $0x0,-0x14(%ebp)
c000a5fb:	75 28                	jne    c000a625 <sys_unlink+0x177>
c000a5fd:	8b 45 e0             	mov    -0x20(%ebp),%eax
c000a600:	83 ec 0c             	sub    $0xc,%esp
c000a603:	50                   	push   %eax
c000a604:	e8 9b d3 ff ff       	call   c00079a4 <dir_close>
c000a609:	83 c4 10             	add    $0x10,%esp
c000a60c:	83 ec 0c             	sub    $0xc,%esp
c000a60f:	8d 83 c0 bf ff ff    	lea    -0x4040(%ebx),%eax
c000a615:	50                   	push   %eax
c000a616:	e8 56 bd ff ff       	call   c0006371 <printk>
c000a61b:	83 c4 10             	add    $0x10,%esp
c000a61e:	b8 ff ff ff ff       	mov    $0xffffffff,%eax
c000a623:	eb 5b                	jmp    c000a680 <sys_unlink+0x1d2>
c000a625:	8b 45 e0             	mov    -0x20(%ebp),%eax
c000a628:	89 45 e8             	mov    %eax,-0x18(%ebp)
c000a62b:	8b 55 f0             	mov    -0x10(%ebp),%edx
c000a62e:	c7 c0 40 2c 01 c0    	mov    $0xc0012c40,%eax
c000a634:	8b 00                	mov    (%eax),%eax
c000a636:	ff 75 ec             	pushl  -0x14(%ebp)
c000a639:	52                   	push   %edx
c000a63a:	ff 75 e8             	pushl  -0x18(%ebp)
c000a63d:	50                   	push   %eax
c000a63e:	e8 c6 d9 ff ff       	call   c0008009 <delete_dir_entry>
c000a643:	83 c4 10             	add    $0x10,%esp
c000a646:	8b 55 f0             	mov    -0x10(%ebp),%edx
c000a649:	c7 c0 40 2c 01 c0    	mov    $0xc0012c40,%eax
c000a64f:	8b 00                	mov    (%eax),%eax
c000a651:	83 ec 08             	sub    $0x8,%esp
c000a654:	52                   	push   %edx
c000a655:	50                   	push   %eax
c000a656:	e8 8f ce ff ff       	call   c00074ea <inode_release>
c000a65b:	83 c4 10             	add    $0x10,%esp
c000a65e:	83 ec 0c             	sub    $0xc,%esp
c000a661:	ff 75 ec             	pushl  -0x14(%ebp)
c000a664:	e8 a4 98 ff ff       	call   c0003f0d <sys_free>
c000a669:	83 c4 10             	add    $0x10,%esp
c000a66c:	8b 45 e0             	mov    -0x20(%ebp),%eax
c000a66f:	83 ec 0c             	sub    $0xc,%esp
c000a672:	50                   	push   %eax
c000a673:	e8 2c d3 ff ff       	call   c00079a4 <dir_close>
c000a678:	83 c4 10             	add    $0x10,%esp
c000a67b:	b8 00 00 00 00       	mov    $0x0,%eax
c000a680:	8b 5d fc             	mov    -0x4(%ebp),%ebx
c000a683:	c9                   	leave  
c000a684:	c3                   	ret    

c000a685 <sys_read>:
c000a685:	55                   	push   %ebp
c000a686:	89 e5                	mov    %esp,%ebp
c000a688:	53                   	push   %ebx
c000a689:	83 ec 14             	sub    $0x14,%esp
c000a68c:	e8 64 73 ff ff       	call   c00019f5 <__x86.get_pc_thunk.bx>
c000a691:	81 c3 6f 79 00 00    	add    $0x796f,%ebx
c000a697:	c7 45 f4 ff ff ff ff 	movl   $0xffffffff,-0xc(%ebp)
c000a69e:	83 7d 08 00          	cmpl   $0x0,0x8(%ebp)
c000a6a2:	78 0c                	js     c000a6b0 <sys_read+0x2b>
c000a6a4:	83 7d 08 01          	cmpl   $0x1,0x8(%ebp)
c000a6a8:	74 06                	je     c000a6b0 <sys_read+0x2b>
c000a6aa:	83 7d 08 02          	cmpl   $0x2,0x8(%ebp)
c000a6ae:	75 17                	jne    c000a6c7 <sys_read+0x42>
c000a6b0:	83 ec 0c             	sub    $0xc,%esp
c000a6b3:	8d 83 e6 bf ff ff    	lea    -0x401a(%ebx),%eax
c000a6b9:	50                   	push   %eax
c000a6ba:	e8 b2 bc ff ff       	call   c0006371 <printk>
c000a6bf:	83 c4 10             	add    $0x10,%esp
c000a6c2:	e9 8e 00 00 00       	jmp    c000a755 <sys_read+0xd0>
c000a6c7:	83 7d 08 00          	cmpl   $0x0,0x8(%ebp)
c000a6cb:	75 4d                	jne    c000a71a <sys_read+0x95>
c000a6cd:	8b 45 0c             	mov    0xc(%ebp),%eax
c000a6d0:	89 45 f0             	mov    %eax,-0x10(%ebp)
c000a6d3:	c7 45 ec 00 00 00 00 	movl   $0x0,-0x14(%ebp)
c000a6da:	eb 21                	jmp    c000a6fd <sys_read+0x78>
c000a6dc:	83 ec 0c             	sub    $0xc,%esp
c000a6df:	c7 c0 20 32 01 c0    	mov    $0xc0013220,%eax
c000a6e5:	50                   	push   %eax
c000a6e6:	e8 ec aa ff ff       	call   c00051d7 <ioq_getchar>
c000a6eb:	83 c4 10             	add    $0x10,%esp
c000a6ee:	89 c2                	mov    %eax,%edx
c000a6f0:	8b 45 f0             	mov    -0x10(%ebp),%eax
c000a6f3:	88 10                	mov    %dl,(%eax)
c000a6f5:	83 45 ec 01          	addl   $0x1,-0x14(%ebp)
c000a6f9:	83 45 f0 01          	addl   $0x1,-0x10(%ebp)
c000a6fd:	8b 45 ec             	mov    -0x14(%ebp),%eax
c000a700:	3b 45 10             	cmp    0x10(%ebp),%eax
c000a703:	72 d7                	jb     c000a6dc <sys_read+0x57>
c000a705:	83 7d ec 00          	cmpl   $0x0,-0x14(%ebp)
c000a709:	74 05                	je     c000a710 <sys_read+0x8b>
c000a70b:	8b 45 ec             	mov    -0x14(%ebp),%eax
c000a70e:	eb 05                	jmp    c000a715 <sys_read+0x90>
c000a710:	b8 ff ff ff ff       	mov    $0xffffffff,%eax
c000a715:	89 45 f4             	mov    %eax,-0xc(%ebp)
c000a718:	eb 3b                	jmp    c000a755 <sys_read+0xd0>
c000a71a:	8b 45 08             	mov    0x8(%ebp),%eax
c000a71d:	83 ec 0c             	sub    $0xc,%esp
c000a720:	50                   	push   %eax
c000a721:	e8 e5 fb ff ff       	call   c000a30b <fd_local2global>
c000a726:	83 c4 10             	add    $0x10,%esp
c000a729:	89 45 e8             	mov    %eax,-0x18(%ebp)
c000a72c:	8b 55 e8             	mov    -0x18(%ebp),%edx
c000a72f:	89 d0                	mov    %edx,%eax
c000a731:	01 c0                	add    %eax,%eax
c000a733:	01 d0                	add    %edx,%eax
c000a735:	c1 e0 02             	shl    $0x2,%eax
c000a738:	c7 c2 40 42 01 c0    	mov    $0xc0014240,%edx
c000a73e:	01 d0                	add    %edx,%eax
c000a740:	83 ec 04             	sub    $0x4,%esp
c000a743:	ff 75 10             	pushl  0x10(%ebp)
c000a746:	ff 75 0c             	pushl  0xc(%ebp)
c000a749:	50                   	push   %eax
c000a74a:	e8 19 eb ff ff       	call   c0009268 <file_read>
c000a74f:	83 c4 10             	add    $0x10,%esp
c000a752:	89 45 f4             	mov    %eax,-0xc(%ebp)
c000a755:	8b 45 f4             	mov    -0xc(%ebp),%eax
c000a758:	8b 5d fc             	mov    -0x4(%ebp),%ebx
c000a75b:	c9                   	leave  
c000a75c:	c3                   	ret    

c000a75d <sys_putchar>:
c000a75d:	55                   	push   %ebp
c000a75e:	89 e5                	mov    %esp,%ebp
c000a760:	53                   	push   %ebx
c000a761:	83 ec 14             	sub    $0x14,%esp
c000a764:	e8 6f 78 ff ff       	call   c0001fd8 <__x86.get_pc_thunk.ax>
c000a769:	05 97 78 00 00       	add    $0x7897,%eax
c000a76e:	8b 55 08             	mov    0x8(%ebp),%edx
c000a771:	88 55 f4             	mov    %dl,-0xc(%ebp)
c000a774:	0f b6 55 f4          	movzbl -0xc(%ebp),%edx
c000a778:	0f b6 d2             	movzbl %dl,%edx
c000a77b:	83 ec 0c             	sub    $0xc,%esp
c000a77e:	52                   	push   %edx
c000a77f:	89 c3                	mov    %eax,%ebx
c000a781:	e8 ba a8 ff ff       	call   c0005040 <console_put_char>
c000a786:	83 c4 10             	add    $0x10,%esp
c000a789:	90                   	nop
c000a78a:	8b 5d fc             	mov    -0x4(%ebp),%ebx
c000a78d:	c9                   	leave  
c000a78e:	c3                   	ret    

c000a78f <sys_lseek>:
c000a78f:	55                   	push   %ebp
c000a790:	89 e5                	mov    %esp,%ebp
c000a792:	53                   	push   %ebx
c000a793:	83 ec 24             	sub    $0x24,%esp
c000a796:	e8 5a 72 ff ff       	call   c00019f5 <__x86.get_pc_thunk.bx>
c000a79b:	81 c3 65 78 00 00    	add    $0x7865,%ebx
c000a7a1:	8b 45 10             	mov    0x10(%ebp),%eax
c000a7a4:	88 45 e4             	mov    %al,-0x1c(%ebp)
c000a7a7:	83 7d 08 00          	cmpl   $0x0,0x8(%ebp)
c000a7ab:	79 1c                	jns    c000a7c9 <sys_lseek+0x3a>
c000a7ad:	83 ec 0c             	sub    $0xc,%esp
c000a7b0:	8d 83 f9 bf ff ff    	lea    -0x4007(%ebx),%eax
c000a7b6:	50                   	push   %eax
c000a7b7:	e8 b5 bb ff ff       	call   c0006371 <printk>
c000a7bc:	83 c4 10             	add    $0x10,%esp
c000a7bf:	b8 ff ff ff ff       	mov    $0xffffffff,%eax
c000a7c4:	e9 98 00 00 00       	jmp    c000a861 <sys_lseek+0xd2>
c000a7c9:	8b 45 08             	mov    0x8(%ebp),%eax
c000a7cc:	83 ec 0c             	sub    $0xc,%esp
c000a7cf:	50                   	push   %eax
c000a7d0:	e8 36 fb ff ff       	call   c000a30b <fd_local2global>
c000a7d5:	83 c4 10             	add    $0x10,%esp
c000a7d8:	89 45 f0             	mov    %eax,-0x10(%ebp)
c000a7db:	8b 55 f0             	mov    -0x10(%ebp),%edx
c000a7de:	89 d0                	mov    %edx,%eax
c000a7e0:	01 c0                	add    %eax,%eax
c000a7e2:	01 d0                	add    %edx,%eax
c000a7e4:	c1 e0 02             	shl    $0x2,%eax
c000a7e7:	c7 c2 40 42 01 c0    	mov    $0xc0014240,%edx
c000a7ed:	01 d0                	add    %edx,%eax
c000a7ef:	89 45 ec             	mov    %eax,-0x14(%ebp)
c000a7f2:	c7 45 f4 00 00 00 00 	movl   $0x0,-0xc(%ebp)
c000a7f9:	8b 45 ec             	mov    -0x14(%ebp),%eax
c000a7fc:	8b 40 08             	mov    0x8(%eax),%eax
c000a7ff:	8b 40 04             	mov    0x4(%eax),%eax
c000a802:	89 45 e8             	mov    %eax,-0x18(%ebp)
c000a805:	0f b6 45 e4          	movzbl -0x1c(%ebp),%eax
c000a809:	83 f8 02             	cmp    $0x2,%eax
c000a80c:	74 12                	je     c000a820 <sys_lseek+0x91>
c000a80e:	83 f8 03             	cmp    $0x3,%eax
c000a811:	74 1e                	je     c000a831 <sys_lseek+0xa2>
c000a813:	83 f8 01             	cmp    $0x1,%eax
c000a816:	75 24                	jne    c000a83c <sys_lseek+0xad>
c000a818:	8b 45 0c             	mov    0xc(%ebp),%eax
c000a81b:	89 45 f4             	mov    %eax,-0xc(%ebp)
c000a81e:	eb 1c                	jmp    c000a83c <sys_lseek+0xad>
c000a820:	8b 45 ec             	mov    -0x14(%ebp),%eax
c000a823:	8b 00                	mov    (%eax),%eax
c000a825:	89 c2                	mov    %eax,%edx
c000a827:	8b 45 0c             	mov    0xc(%ebp),%eax
c000a82a:	01 d0                	add    %edx,%eax
c000a82c:	89 45 f4             	mov    %eax,-0xc(%ebp)
c000a82f:	eb 0b                	jmp    c000a83c <sys_lseek+0xad>
c000a831:	8b 55 e8             	mov    -0x18(%ebp),%edx
c000a834:	8b 45 0c             	mov    0xc(%ebp),%eax
c000a837:	01 d0                	add    %edx,%eax
c000a839:	89 45 f4             	mov    %eax,-0xc(%ebp)
c000a83c:	83 7d f4 00          	cmpl   $0x0,-0xc(%ebp)
c000a840:	78 0b                	js     c000a84d <sys_lseek+0xbe>
c000a842:	8b 45 e8             	mov    -0x18(%ebp),%eax
c000a845:	83 e8 01             	sub    $0x1,%eax
c000a848:	39 45 f4             	cmp    %eax,-0xc(%ebp)
c000a84b:	7e 07                	jle    c000a854 <sys_lseek+0xc5>
c000a84d:	b8 ff ff ff ff       	mov    $0xffffffff,%eax
c000a852:	eb 0d                	jmp    c000a861 <sys_lseek+0xd2>
c000a854:	8b 55 f4             	mov    -0xc(%ebp),%edx
c000a857:	8b 45 ec             	mov    -0x14(%ebp),%eax
c000a85a:	89 10                	mov    %edx,(%eax)
c000a85c:	8b 45 ec             	mov    -0x14(%ebp),%eax
c000a85f:	8b 00                	mov    (%eax),%eax
c000a861:	8b 5d fc             	mov    -0x4(%ebp),%ebx
c000a864:	c9                   	leave  
c000a865:	c3                   	ret    

c000a866 <sys_mkdir>:
c000a866:	55                   	push   %ebp
c000a867:	89 e5                	mov    %esp,%ebp
c000a869:	53                   	push   %ebx
c000a86a:	81 ec a4 02 00 00    	sub    $0x2a4,%esp
c000a870:	e8 80 71 ff ff       	call   c00019f5 <__x86.get_pc_thunk.bx>
c000a875:	81 c3 8b 77 00 00    	add    $0x778b,%ebx
c000a87b:	c7 45 f4 00 00 00 00 	movl   $0x0,-0xc(%ebp)
c000a882:	83 ec 0c             	sub    $0xc,%esp
c000a885:	68 00 04 00 00       	push   $0x400
c000a88a:	e8 f8 90 ff ff       	call   c0003987 <sys_malloc>
c000a88f:	83 c4 10             	add    $0x10,%esp
c000a892:	89 45 ec             	mov    %eax,-0x14(%ebp)
c000a895:	83 7d ec 00          	cmpl   $0x0,-0x14(%ebp)
c000a899:	75 1c                	jne    c000a8b7 <sys_mkdir+0x51>
c000a89b:	83 ec 0c             	sub    $0xc,%esp
c000a89e:	8d 83 10 c0 ff ff    	lea    -0x3ff0(%ebx),%eax
c000a8a4:	50                   	push   %eax
c000a8a5:	e8 c7 ba ff ff       	call   c0006371 <printk>
c000a8aa:	83 c4 10             	add    $0x10,%esp
c000a8ad:	b8 ff ff ff ff       	mov    $0xffffffff,%eax
c000a8b2:	e9 c5 03 00 00       	jmp    c000ac7c <sys_mkdir+0x416>
c000a8b7:	83 ec 04             	sub    $0x4,%esp
c000a8ba:	68 08 02 00 00       	push   $0x208
c000a8bf:	6a 00                	push   $0x0
c000a8c1:	8d 85 c8 fd ff ff    	lea    -0x238(%ebp),%eax
c000a8c7:	50                   	push   %eax
c000a8c8:	e8 c8 84 ff ff       	call   c0002d95 <memset>
c000a8cd:	83 c4 10             	add    $0x10,%esp
c000a8d0:	c7 45 f0 ff ff ff ff 	movl   $0xffffffff,-0x10(%ebp)
c000a8d7:	83 ec 08             	sub    $0x8,%esp
c000a8da:	8d 85 c8 fd ff ff    	lea    -0x238(%ebp),%eax
c000a8e0:	50                   	push   %eax
c000a8e1:	ff 75 08             	pushl  0x8(%ebp)
c000a8e4:	e8 9b f5 ff ff       	call   c0009e84 <search_file>
c000a8e9:	83 c4 10             	add    $0x10,%esp
c000a8ec:	89 45 f0             	mov    %eax,-0x10(%ebp)
c000a8ef:	83 7d f0 ff          	cmpl   $0xffffffff,-0x10(%ebp)
c000a8f3:	74 21                	je     c000a916 <sys_mkdir+0xb0>
c000a8f5:	83 ec 08             	sub    $0x8,%esp
c000a8f8:	ff 75 08             	pushl  0x8(%ebp)
c000a8fb:	8d 83 38 c0 ff ff    	lea    -0x3fc8(%ebx),%eax
c000a901:	50                   	push   %eax
c000a902:	e8 6a ba ff ff       	call   c0006371 <printk>
c000a907:	83 c4 10             	add    $0x10,%esp
c000a90a:	c7 45 f4 01 00 00 00 	movl   $0x1,-0xc(%ebp)
c000a911:	e9 19 03 00 00       	jmp    c000ac2f <sys_mkdir+0x3c9>
c000a916:	83 ec 0c             	sub    $0xc,%esp
c000a919:	ff 75 08             	pushl  0x8(%ebp)
c000a91c:	e8 ee f4 ff ff       	call   c0009e0f <path_depth_cnt>
c000a921:	83 c4 10             	add    $0x10,%esp
c000a924:	89 45 e8             	mov    %eax,-0x18(%ebp)
c000a927:	83 ec 0c             	sub    $0xc,%esp
c000a92a:	8d 85 c8 fd ff ff    	lea    -0x238(%ebp),%eax
c000a930:	50                   	push   %eax
c000a931:	e8 d9 f4 ff ff       	call   c0009e0f <path_depth_cnt>
c000a936:	83 c4 10             	add    $0x10,%esp
c000a939:	89 45 e4             	mov    %eax,-0x1c(%ebp)
c000a93c:	8b 45 e8             	mov    -0x18(%ebp),%eax
c000a93f:	3b 45 e4             	cmp    -0x1c(%ebp),%eax
c000a942:	74 28                	je     c000a96c <sys_mkdir+0x106>
c000a944:	83 ec 04             	sub    $0x4,%esp
c000a947:	8d 85 c8 fd ff ff    	lea    -0x238(%ebp),%eax
c000a94d:	50                   	push   %eax
c000a94e:	ff 75 08             	pushl  0x8(%ebp)
c000a951:	8d 83 60 c0 ff ff    	lea    -0x3fa0(%ebx),%eax
c000a957:	50                   	push   %eax
c000a958:	e8 14 ba ff ff       	call   c0006371 <printk>
c000a95d:	83 c4 10             	add    $0x10,%esp
c000a960:	c7 45 f4 01 00 00 00 	movl   $0x1,-0xc(%ebp)
c000a967:	e9 c3 02 00 00       	jmp    c000ac2f <sys_mkdir+0x3c9>
c000a96c:	8b 45 c8             	mov    -0x38(%ebp),%eax
c000a96f:	89 45 e0             	mov    %eax,-0x20(%ebp)
c000a972:	83 ec 08             	sub    $0x8,%esp
c000a975:	6a 2f                	push   $0x2f
c000a977:	8d 85 c8 fd ff ff    	lea    -0x238(%ebp),%eax
c000a97d:	50                   	push   %eax
c000a97e:	e8 0f 86 ff ff       	call   c0002f92 <strrchr>
c000a983:	83 c4 10             	add    $0x10,%esp
c000a986:	83 c0 01             	add    $0x1,%eax
c000a989:	89 45 dc             	mov    %eax,-0x24(%ebp)
c000a98c:	c7 c0 40 2c 01 c0    	mov    $0xc0012c40,%eax
c000a992:	8b 00                	mov    (%eax),%eax
c000a994:	83 ec 0c             	sub    $0xc,%esp
c000a997:	50                   	push   %eax
c000a998:	e8 35 dc ff ff       	call   c00085d2 <inode_bitmap_alloc>
c000a99d:	83 c4 10             	add    $0x10,%esp
c000a9a0:	89 45 f0             	mov    %eax,-0x10(%ebp)
c000a9a3:	83 7d f0 ff          	cmpl   $0xffffffff,-0x10(%ebp)
c000a9a7:	75 1e                	jne    c000a9c7 <sys_mkdir+0x161>
c000a9a9:	83 ec 0c             	sub    $0xc,%esp
c000a9ac:	8d 83 a4 c0 ff ff    	lea    -0x3f5c(%ebx),%eax
c000a9b2:	50                   	push   %eax
c000a9b3:	e8 b9 b9 ff ff       	call   c0006371 <printk>
c000a9b8:	83 c4 10             	add    $0x10,%esp
c000a9bb:	c7 45 f4 01 00 00 00 	movl   $0x1,-0xc(%ebp)
c000a9c2:	e9 68 02 00 00       	jmp    c000ac2f <sys_mkdir+0x3c9>
c000a9c7:	8b 45 f0             	mov    -0x10(%ebp),%eax
c000a9ca:	83 ec 08             	sub    $0x8,%esp
c000a9cd:	8d 95 7c fd ff ff    	lea    -0x284(%ebp),%edx
c000a9d3:	52                   	push   %edx
c000a9d4:	50                   	push   %eax
c000a9d5:	e8 eb cc ff ff       	call   c00076c5 <inode_init>
c000a9da:	83 c4 10             	add    $0x10,%esp
c000a9dd:	c7 45 d8 00 00 00 00 	movl   $0x0,-0x28(%ebp)
c000a9e4:	c7 45 d4 ff ff ff ff 	movl   $0xffffffff,-0x2c(%ebp)
c000a9eb:	c7 c0 40 2c 01 c0    	mov    $0xc0012c40,%eax
c000a9f1:	8b 00                	mov    (%eax),%eax
c000a9f3:	83 ec 0c             	sub    $0xc,%esp
c000a9f6:	50                   	push   %eax
c000a9f7:	e8 2c dc ff ff       	call   c0008628 <block_bitmap_alloc>
c000a9fc:	83 c4 10             	add    $0x10,%esp
c000a9ff:	89 45 d4             	mov    %eax,-0x2c(%ebp)
c000aa02:	83 7d d4 ff          	cmpl   $0xffffffff,-0x2c(%ebp)
c000aa06:	75 1e                	jne    c000aa26 <sys_mkdir+0x1c0>
c000aa08:	83 ec 0c             	sub    $0xc,%esp
c000aa0b:	8d 83 c8 c0 ff ff    	lea    -0x3f38(%ebx),%eax
c000aa11:	50                   	push   %eax
c000aa12:	e8 5a b9 ff ff       	call   c0006371 <printk>
c000aa17:	83 c4 10             	add    $0x10,%esp
c000aa1a:	c7 45 f4 02 00 00 00 	movl   $0x2,-0xc(%ebp)
c000aa21:	e9 09 02 00 00       	jmp    c000ac2f <sys_mkdir+0x3c9>
c000aa26:	8b 45 d4             	mov    -0x2c(%ebp),%eax
c000aa29:	89 85 8c fd ff ff    	mov    %eax,-0x274(%ebp)
c000aa2f:	8b 55 d4             	mov    -0x2c(%ebp),%edx
c000aa32:	c7 c0 40 2c 01 c0    	mov    $0xc0012c40,%eax
c000aa38:	8b 00                	mov    (%eax),%eax
c000aa3a:	8b 40 1c             	mov    0x1c(%eax),%eax
c000aa3d:	8b 40 28             	mov    0x28(%eax),%eax
c000aa40:	29 c2                	sub    %eax,%edx
c000aa42:	89 d0                	mov    %edx,%eax
c000aa44:	89 45 d8             	mov    %eax,-0x28(%ebp)
c000aa47:	c7 c0 40 2c 01 c0    	mov    $0xc0012c40,%eax
c000aa4d:	8b 00                	mov    (%eax),%eax
c000aa4f:	83 ec 04             	sub    $0x4,%esp
c000aa52:	6a 01                	push   $0x1
c000aa54:	ff 75 d8             	pushl  -0x28(%ebp)
c000aa57:	50                   	push   %eax
c000aa58:	e8 2c dc ff ff       	call   c0008689 <bitmap_sync>
c000aa5d:	83 c4 10             	add    $0x10,%esp
c000aa60:	83 ec 04             	sub    $0x4,%esp
c000aa63:	68 00 04 00 00       	push   $0x400
c000aa68:	6a 00                	push   $0x0
c000aa6a:	ff 75 ec             	pushl  -0x14(%ebp)
c000aa6d:	e8 23 83 ff ff       	call   c0002d95 <memset>
c000aa72:	83 c4 10             	add    $0x10,%esp
c000aa75:	8b 45 ec             	mov    -0x14(%ebp),%eax
c000aa78:	89 45 d0             	mov    %eax,-0x30(%ebp)
c000aa7b:	8b 45 d0             	mov    -0x30(%ebp),%eax
c000aa7e:	83 ec 04             	sub    $0x4,%esp
c000aa81:	6a 01                	push   $0x1
c000aa83:	8d 93 d4 bd ff ff    	lea    -0x422c(%ebx),%edx
c000aa89:	52                   	push   %edx
c000aa8a:	50                   	push   %eax
c000aa8b:	e8 40 83 ff ff       	call   c0002dd0 <memcpy>
c000aa90:	83 c4 10             	add    $0x10,%esp
c000aa93:	8b 55 f0             	mov    -0x10(%ebp),%edx
c000aa96:	8b 45 d0             	mov    -0x30(%ebp),%eax
c000aa99:	89 50 10             	mov    %edx,0x10(%eax)
c000aa9c:	8b 45 d0             	mov    -0x30(%ebp),%eax
c000aa9f:	c7 40 14 02 00 00 00 	movl   $0x2,0x14(%eax)
c000aaa6:	83 45 d0 18          	addl   $0x18,-0x30(%ebp)
c000aaaa:	8b 45 d0             	mov    -0x30(%ebp),%eax
c000aaad:	83 ec 04             	sub    $0x4,%esp
c000aab0:	6a 02                	push   $0x2
c000aab2:	8d 93 d6 bd ff ff    	lea    -0x422a(%ebx),%edx
c000aab8:	52                   	push   %edx
c000aab9:	50                   	push   %eax
c000aaba:	e8 11 83 ff ff       	call   c0002dd0 <memcpy>
c000aabf:	83 c4 10             	add    $0x10,%esp
c000aac2:	8b 45 e0             	mov    -0x20(%ebp),%eax
c000aac5:	8b 00                	mov    (%eax),%eax
c000aac7:	8b 10                	mov    (%eax),%edx
c000aac9:	8b 45 d0             	mov    -0x30(%ebp),%eax
c000aacc:	89 50 10             	mov    %edx,0x10(%eax)
c000aacf:	8b 45 d0             	mov    -0x30(%ebp),%eax
c000aad2:	c7 40 14 02 00 00 00 	movl   $0x2,0x14(%eax)
c000aad9:	8b 95 8c fd ff ff    	mov    -0x274(%ebp),%edx
c000aadf:	c7 c0 40 2c 01 c0    	mov    $0xc0012c40,%eax
c000aae5:	8b 00                	mov    (%eax),%eax
c000aae7:	8b 40 08             	mov    0x8(%eax),%eax
c000aaea:	6a 01                	push   $0x1
c000aaec:	ff 75 ec             	pushl  -0x14(%ebp)
c000aaef:	52                   	push   %edx
c000aaf0:	50                   	push   %eax
c000aaf1:	e8 6e bd ff ff       	call   c0006864 <ide_write>
c000aaf6:	83 c4 10             	add    $0x10,%esp
c000aaf9:	c7 c0 40 2c 01 c0    	mov    $0xc0012c40,%eax
c000aaff:	8b 00                	mov    (%eax),%eax
c000ab01:	8b 40 1c             	mov    0x1c(%eax),%eax
c000ab04:	8b 40 30             	mov    0x30(%eax),%eax
c000ab07:	01 c0                	add    %eax,%eax
c000ab09:	89 85 80 fd ff ff    	mov    %eax,-0x280(%ebp)
c000ab0f:	83 ec 04             	sub    $0x4,%esp
c000ab12:	6a 18                	push   $0x18
c000ab14:	6a 00                	push   $0x0
c000ab16:	8d 85 64 fd ff ff    	lea    -0x29c(%ebp),%eax
c000ab1c:	50                   	push   %eax
c000ab1d:	e8 73 82 ff ff       	call   c0002d95 <memset>
c000ab22:	83 c4 10             	add    $0x10,%esp
c000ab25:	8b 45 f0             	mov    -0x10(%ebp),%eax
c000ab28:	8d 95 64 fd ff ff    	lea    -0x29c(%ebp),%edx
c000ab2e:	52                   	push   %edx
c000ab2f:	6a 02                	push   $0x2
c000ab31:	50                   	push   %eax
c000ab32:	ff 75 dc             	pushl  -0x24(%ebp)
c000ab35:	e8 86 d0 ff ff       	call   c0007bc0 <create_dir_entry>
c000ab3a:	83 c4 10             	add    $0x10,%esp
c000ab3d:	83 ec 04             	sub    $0x4,%esp
c000ab40:	68 00 04 00 00       	push   $0x400
c000ab45:	6a 00                	push   $0x0
c000ab47:	ff 75 ec             	pushl  -0x14(%ebp)
c000ab4a:	e8 46 82 ff ff       	call   c0002d95 <memset>
c000ab4f:	83 c4 10             	add    $0x10,%esp
c000ab52:	83 ec 04             	sub    $0x4,%esp
c000ab55:	ff 75 ec             	pushl  -0x14(%ebp)
c000ab58:	8d 85 64 fd ff ff    	lea    -0x29c(%ebp),%eax
c000ab5e:	50                   	push   %eax
c000ab5f:	ff 75 e0             	pushl  -0x20(%ebp)
c000ab62:	e8 ad d0 ff ff       	call   c0007c14 <sync_dir_entry>
c000ab67:	83 c4 10             	add    $0x10,%esp
c000ab6a:	85 c0                	test   %eax,%eax
c000ab6c:	75 1e                	jne    c000ab8c <sys_mkdir+0x326>
c000ab6e:	83 ec 0c             	sub    $0xc,%esp
c000ab71:	8d 83 04 c1 ff ff    	lea    -0x3efc(%ebx),%eax
c000ab77:	50                   	push   %eax
c000ab78:	e8 f4 b7 ff ff       	call   c0006371 <printk>
c000ab7d:	83 c4 10             	add    $0x10,%esp
c000ab80:	c7 45 f4 02 00 00 00 	movl   $0x2,-0xc(%ebp)
c000ab87:	e9 a3 00 00 00       	jmp    c000ac2f <sys_mkdir+0x3c9>
c000ab8c:	83 ec 04             	sub    $0x4,%esp
c000ab8f:	68 00 04 00 00       	push   $0x400
c000ab94:	6a 00                	push   $0x0
c000ab96:	ff 75 ec             	pushl  -0x14(%ebp)
c000ab99:	e8 f7 81 ff ff       	call   c0002d95 <memset>
c000ab9e:	83 c4 10             	add    $0x10,%esp
c000aba1:	8b 45 e0             	mov    -0x20(%ebp),%eax
c000aba4:	8b 10                	mov    (%eax),%edx
c000aba6:	c7 c0 40 2c 01 c0    	mov    $0xc0012c40,%eax
c000abac:	8b 00                	mov    (%eax),%eax
c000abae:	83 ec 04             	sub    $0x4,%esp
c000abb1:	ff 75 ec             	pushl  -0x14(%ebp)
c000abb4:	52                   	push   %edx
c000abb5:	50                   	push   %eax
c000abb6:	e8 5f c5 ff ff       	call   c000711a <inode_sync>
c000abbb:	83 c4 10             	add    $0x10,%esp
c000abbe:	83 ec 04             	sub    $0x4,%esp
c000abc1:	68 00 04 00 00       	push   $0x400
c000abc6:	6a 00                	push   $0x0
c000abc8:	ff 75 ec             	pushl  -0x14(%ebp)
c000abcb:	e8 c5 81 ff ff       	call   c0002d95 <memset>
c000abd0:	83 c4 10             	add    $0x10,%esp
c000abd3:	c7 c0 40 2c 01 c0    	mov    $0xc0012c40,%eax
c000abd9:	8b 00                	mov    (%eax),%eax
c000abdb:	83 ec 04             	sub    $0x4,%esp
c000abde:	ff 75 ec             	pushl  -0x14(%ebp)
c000abe1:	8d 95 7c fd ff ff    	lea    -0x284(%ebp),%edx
c000abe7:	52                   	push   %edx
c000abe8:	50                   	push   %eax
c000abe9:	e8 2c c5 ff ff       	call   c000711a <inode_sync>
c000abee:	83 c4 10             	add    $0x10,%esp
c000abf1:	8b 55 f0             	mov    -0x10(%ebp),%edx
c000abf4:	c7 c0 40 2c 01 c0    	mov    $0xc0012c40,%eax
c000abfa:	8b 00                	mov    (%eax),%eax
c000abfc:	83 ec 04             	sub    $0x4,%esp
c000abff:	6a 00                	push   $0x0
c000ac01:	52                   	push   %edx
c000ac02:	50                   	push   %eax
c000ac03:	e8 81 da ff ff       	call   c0008689 <bitmap_sync>
c000ac08:	83 c4 10             	add    $0x10,%esp
c000ac0b:	83 ec 0c             	sub    $0xc,%esp
c000ac0e:	ff 75 ec             	pushl  -0x14(%ebp)
c000ac11:	e8 f7 92 ff ff       	call   c0003f0d <sys_free>
c000ac16:	83 c4 10             	add    $0x10,%esp
c000ac19:	8b 45 c8             	mov    -0x38(%ebp),%eax
c000ac1c:	83 ec 0c             	sub    $0xc,%esp
c000ac1f:	50                   	push   %eax
c000ac20:	e8 7f cd ff ff       	call   c00079a4 <dir_close>
c000ac25:	83 c4 10             	add    $0x10,%esp
c000ac28:	b8 00 00 00 00       	mov    $0x0,%eax
c000ac2d:	eb 4d                	jmp    c000ac7c <sys_mkdir+0x416>
c000ac2f:	8b 45 f4             	mov    -0xc(%ebp),%eax
c000ac32:	83 f8 01             	cmp    $0x1,%eax
c000ac35:	74 22                	je     c000ac59 <sys_mkdir+0x3f3>
c000ac37:	83 f8 02             	cmp    $0x2,%eax
c000ac3a:	75 2d                	jne    c000ac69 <sys_mkdir+0x403>
c000ac3c:	8b 45 f0             	mov    -0x10(%ebp),%eax
c000ac3f:	c7 c2 40 2c 01 c0    	mov    $0xc0012c40,%edx
c000ac45:	8b 12                	mov    (%edx),%edx
c000ac47:	83 c2 28             	add    $0x28,%edx
c000ac4a:	83 ec 04             	sub    $0x4,%esp
c000ac4d:	6a 00                	push   $0x0
c000ac4f:	50                   	push   %eax
c000ac50:	52                   	push   %edx
c000ac51:	e8 b3 85 ff ff       	call   c0003209 <bitmap_set>
c000ac56:	83 c4 10             	add    $0x10,%esp
c000ac59:	8b 45 c8             	mov    -0x38(%ebp),%eax
c000ac5c:	83 ec 0c             	sub    $0xc,%esp
c000ac5f:	50                   	push   %eax
c000ac60:	e8 3f cd ff ff       	call   c00079a4 <dir_close>
c000ac65:	83 c4 10             	add    $0x10,%esp
c000ac68:	90                   	nop
c000ac69:	83 ec 0c             	sub    $0xc,%esp
c000ac6c:	ff 75 ec             	pushl  -0x14(%ebp)
c000ac6f:	e8 99 92 ff ff       	call   c0003f0d <sys_free>
c000ac74:	83 c4 10             	add    $0x10,%esp
c000ac77:	b8 ff ff ff ff       	mov    $0xffffffff,%eax
c000ac7c:	8b 5d fc             	mov    -0x4(%ebp),%ebx
c000ac7f:	c9                   	leave  
c000ac80:	c3                   	ret    

c000ac81 <sys_readdir>:
c000ac81:	55                   	push   %ebp
c000ac82:	89 e5                	mov    %esp,%ebp
c000ac84:	53                   	push   %ebx
c000ac85:	83 ec 04             	sub    $0x4,%esp
c000ac88:	e8 4b 73 ff ff       	call   c0001fd8 <__x86.get_pc_thunk.ax>
c000ac8d:	05 73 73 00 00       	add    $0x7373,%eax
c000ac92:	83 ec 0c             	sub    $0xc,%esp
c000ac95:	ff 75 08             	pushl  0x8(%ebp)
c000ac98:	89 c3                	mov    %eax,%ebx
c000ac9a:	e8 49 cd ff ff       	call   c00079e8 <dir_read>
c000ac9f:	83 c4 10             	add    $0x10,%esp
c000aca2:	8b 5d fc             	mov    -0x4(%ebp),%ebx
c000aca5:	c9                   	leave  
c000aca6:	c3                   	ret    

c000aca7 <sys_rewinddir>:
c000aca7:	55                   	push   %ebp
c000aca8:	89 e5                	mov    %esp,%ebp
c000acaa:	e8 29 73 ff ff       	call   c0001fd8 <__x86.get_pc_thunk.ax>
c000acaf:	05 51 73 00 00       	add    $0x7351,%eax
c000acb4:	8b 45 08             	mov    0x8(%ebp),%eax
c000acb7:	c7 40 04 00 00 00 00 	movl   $0x0,0x4(%eax)
c000acbe:	90                   	nop
c000acbf:	5d                   	pop    %ebp
c000acc0:	c3                   	ret    

c000acc1 <sys_opendir>:
c000acc1:	55                   	push   %ebp
c000acc2:	89 e5                	mov    %esp,%ebp
c000acc4:	53                   	push   %ebx
c000acc5:	81 ec 14 02 00 00    	sub    $0x214,%esp
c000accb:	e8 25 6d ff ff       	call   c00019f5 <__x86.get_pc_thunk.bx>
c000acd0:	81 c3 30 73 00 00    	add    $0x7330,%ebx
c000acd6:	8b 45 08             	mov    0x8(%ebp),%eax
c000acd9:	0f b6 00             	movzbl (%eax),%eax
c000acdc:	3c 2f                	cmp    $0x2f,%al
c000acde:	75 22                	jne    c000ad02 <sys_opendir+0x41>
c000ace0:	8b 45 08             	mov    0x8(%ebp),%eax
c000ace3:	83 c0 01             	add    $0x1,%eax
c000ace6:	0f b6 00             	movzbl (%eax),%eax
c000ace9:	84 c0                	test   %al,%al
c000aceb:	74 0a                	je     c000acf7 <sys_opendir+0x36>
c000aced:	8b 45 08             	mov    0x8(%ebp),%eax
c000acf0:	0f b6 00             	movzbl (%eax),%eax
c000acf3:	3c 2e                	cmp    $0x2e,%al
c000acf5:	75 0b                	jne    c000ad02 <sys_opendir+0x41>
c000acf7:	c7 c0 20 40 01 c0    	mov    $0xc0014020,%eax
c000acfd:	e9 b0 00 00 00       	jmp    c000adb2 <sys_opendir+0xf1>
c000ad02:	83 ec 04             	sub    $0x4,%esp
c000ad05:	68 08 02 00 00       	push   $0x208
c000ad0a:	6a 00                	push   $0x0
c000ad0c:	8d 85 e8 fd ff ff    	lea    -0x218(%ebp),%eax
c000ad12:	50                   	push   %eax
c000ad13:	e8 7d 80 ff ff       	call   c0002d95 <memset>
c000ad18:	83 c4 10             	add    $0x10,%esp
c000ad1b:	83 ec 08             	sub    $0x8,%esp
c000ad1e:	8d 85 e8 fd ff ff    	lea    -0x218(%ebp),%eax
c000ad24:	50                   	push   %eax
c000ad25:	ff 75 08             	pushl  0x8(%ebp)
c000ad28:	e8 57 f1 ff ff       	call   c0009e84 <search_file>
c000ad2d:	83 c4 10             	add    $0x10,%esp
c000ad30:	89 45 f0             	mov    %eax,-0x10(%ebp)
c000ad33:	c7 45 f4 00 00 00 00 	movl   $0x0,-0xc(%ebp)
c000ad3a:	83 7d f0 ff          	cmpl   $0xffffffff,-0x10(%ebp)
c000ad3e:	75 1e                	jne    c000ad5e <sys_opendir+0x9d>
c000ad40:	83 ec 04             	sub    $0x4,%esp
c000ad43:	8d 85 e8 fd ff ff    	lea    -0x218(%ebp),%eax
c000ad49:	50                   	push   %eax
c000ad4a:	ff 75 08             	pushl  0x8(%ebp)
c000ad4d:	8d 83 2f c1 ff ff    	lea    -0x3ed1(%ebx),%eax
c000ad53:	50                   	push   %eax
c000ad54:	e8 18 b6 ff ff       	call   c0006371 <printk>
c000ad59:	83 c4 10             	add    $0x10,%esp
c000ad5c:	eb 42                	jmp    c000ada0 <sys_opendir+0xdf>
c000ad5e:	8b 45 ec             	mov    -0x14(%ebp),%eax
c000ad61:	83 f8 01             	cmp    $0x1,%eax
c000ad64:	75 17                	jne    c000ad7d <sys_opendir+0xbc>
c000ad66:	83 ec 08             	sub    $0x8,%esp
c000ad69:	ff 75 08             	pushl  0x8(%ebp)
c000ad6c:	8d 83 4c c1 ff ff    	lea    -0x3eb4(%ebx),%eax
c000ad72:	50                   	push   %eax
c000ad73:	e8 f9 b5 ff ff       	call   c0006371 <printk>
c000ad78:	83 c4 10             	add    $0x10,%esp
c000ad7b:	eb 23                	jmp    c000ada0 <sys_opendir+0xdf>
c000ad7d:	8b 45 ec             	mov    -0x14(%ebp),%eax
c000ad80:	83 f8 02             	cmp    $0x2,%eax
c000ad83:	75 1b                	jne    c000ada0 <sys_opendir+0xdf>
c000ad85:	8b 55 f0             	mov    -0x10(%ebp),%edx
c000ad88:	c7 c0 40 2c 01 c0    	mov    $0xc0012c40,%eax
c000ad8e:	8b 00                	mov    (%eax),%eax
c000ad90:	83 ec 08             	sub    $0x8,%esp
c000ad93:	52                   	push   %edx
c000ad94:	50                   	push   %eax
c000ad95:	e8 d2 c9 ff ff       	call   c000776c <dir_open>
c000ad9a:	83 c4 10             	add    $0x10,%esp
c000ad9d:	89 45 f4             	mov    %eax,-0xc(%ebp)
c000ada0:	8b 45 e8             	mov    -0x18(%ebp),%eax
c000ada3:	83 ec 0c             	sub    $0xc,%esp
c000ada6:	50                   	push   %eax
c000ada7:	e8 f8 cb ff ff       	call   c00079a4 <dir_close>
c000adac:	83 c4 10             	add    $0x10,%esp
c000adaf:	8b 45 f4             	mov    -0xc(%ebp),%eax
c000adb2:	8b 5d fc             	mov    -0x4(%ebp),%ebx
c000adb5:	c9                   	leave  
c000adb6:	c3                   	ret    

c000adb7 <sys_closedir>:
c000adb7:	55                   	push   %ebp
c000adb8:	89 e5                	mov    %esp,%ebp
c000adba:	53                   	push   %ebx
c000adbb:	83 ec 14             	sub    $0x14,%esp
c000adbe:	e8 15 72 ff ff       	call   c0001fd8 <__x86.get_pc_thunk.ax>
c000adc3:	05 3d 72 00 00       	add    $0x723d,%eax
c000adc8:	c7 45 f4 ff ff ff ff 	movl   $0xffffffff,-0xc(%ebp)
c000adcf:	83 7d 08 00          	cmpl   $0x0,0x8(%ebp)
c000add3:	74 17                	je     c000adec <sys_closedir+0x35>
c000add5:	83 ec 0c             	sub    $0xc,%esp
c000add8:	ff 75 08             	pushl  0x8(%ebp)
c000addb:	89 c3                	mov    %eax,%ebx
c000addd:	e8 c2 cb ff ff       	call   c00079a4 <dir_close>
c000ade2:	83 c4 10             	add    $0x10,%esp
c000ade5:	c7 45 f4 00 00 00 00 	movl   $0x0,-0xc(%ebp)
c000adec:	8b 45 f4             	mov    -0xc(%ebp),%eax
c000adef:	8b 5d fc             	mov    -0x4(%ebp),%ebx
c000adf2:	c9                   	leave  
c000adf3:	c3                   	ret    

c000adf4 <sys_rmdir>:
c000adf4:	55                   	push   %ebp
c000adf5:	89 e5                	mov    %esp,%ebp
c000adf7:	53                   	push   %ebx
c000adf8:	81 ec 24 02 00 00    	sub    $0x224,%esp
c000adfe:	e8 f2 6b ff ff       	call   c00019f5 <__x86.get_pc_thunk.bx>
c000ae03:	81 c3 fd 71 00 00    	add    $0x71fd,%ebx
c000ae09:	83 ec 04             	sub    $0x4,%esp
c000ae0c:	68 08 02 00 00       	push   $0x208
c000ae11:	6a 00                	push   $0x0
c000ae13:	8d 85 e4 fd ff ff    	lea    -0x21c(%ebp),%eax
c000ae19:	50                   	push   %eax
c000ae1a:	e8 76 7f ff ff       	call   c0002d95 <memset>
c000ae1f:	83 c4 10             	add    $0x10,%esp
c000ae22:	83 ec 08             	sub    $0x8,%esp
c000ae25:	8d 85 e4 fd ff ff    	lea    -0x21c(%ebp),%eax
c000ae2b:	50                   	push   %eax
c000ae2c:	ff 75 08             	pushl  0x8(%ebp)
c000ae2f:	e8 50 f0 ff ff       	call   c0009e84 <search_file>
c000ae34:	83 c4 10             	add    $0x10,%esp
c000ae37:	89 45 f0             	mov    %eax,-0x10(%ebp)
c000ae3a:	c7 45 f4 ff ff ff ff 	movl   $0xffffffff,-0xc(%ebp)
c000ae41:	83 7d f0 ff          	cmpl   $0xffffffff,-0x10(%ebp)
c000ae45:	75 21                	jne    c000ae68 <sys_rmdir+0x74>
c000ae47:	83 ec 04             	sub    $0x4,%esp
c000ae4a:	8d 85 e4 fd ff ff    	lea    -0x21c(%ebp),%eax
c000ae50:	50                   	push   %eax
c000ae51:	ff 75 08             	pushl  0x8(%ebp)
c000ae54:	8d 83 61 c1 ff ff    	lea    -0x3e9f(%ebx),%eax
c000ae5a:	50                   	push   %eax
c000ae5b:	e8 11 b5 ff ff       	call   c0006371 <printk>
c000ae60:	83 c4 10             	add    $0x10,%esp
c000ae63:	e9 8b 00 00 00       	jmp    c000aef3 <sys_rmdir+0xff>
c000ae68:	8b 45 e8             	mov    -0x18(%ebp),%eax
c000ae6b:	83 f8 01             	cmp    $0x1,%eax
c000ae6e:	75 17                	jne    c000ae87 <sys_rmdir+0x93>
c000ae70:	83 ec 08             	sub    $0x8,%esp
c000ae73:	ff 75 08             	pushl  0x8(%ebp)
c000ae76:	8d 83 4c c1 ff ff    	lea    -0x3eb4(%ebx),%eax
c000ae7c:	50                   	push   %eax
c000ae7d:	e8 ef b4 ff ff       	call   c0006371 <printk>
c000ae82:	83 c4 10             	add    $0x10,%esp
c000ae85:	eb 6c                	jmp    c000aef3 <sys_rmdir+0xff>
c000ae87:	8b 55 f0             	mov    -0x10(%ebp),%edx
c000ae8a:	c7 c0 40 2c 01 c0    	mov    $0xc0012c40,%eax
c000ae90:	8b 00                	mov    (%eax),%eax
c000ae92:	83 ec 08             	sub    $0x8,%esp
c000ae95:	52                   	push   %edx
c000ae96:	50                   	push   %eax
c000ae97:	e8 d0 c8 ff ff       	call   c000776c <dir_open>
c000ae9c:	83 c4 10             	add    $0x10,%esp
c000ae9f:	89 45 ec             	mov    %eax,-0x14(%ebp)
c000aea2:	83 ec 0c             	sub    $0xc,%esp
c000aea5:	ff 75 ec             	pushl  -0x14(%ebp)
c000aea8:	e8 53 d5 ff ff       	call   c0008400 <dir_is_empty>
c000aead:	83 c4 10             	add    $0x10,%esp
c000aeb0:	85 c0                	test   %eax,%eax
c000aeb2:	75 14                	jne    c000aec8 <sys_rmdir+0xd4>
c000aeb4:	83 ec 0c             	sub    $0xc,%esp
c000aeb7:	8d 83 80 c1 ff ff    	lea    -0x3e80(%ebx),%eax
c000aebd:	50                   	push   %eax
c000aebe:	e8 ae b4 ff ff       	call   c0006371 <printk>
c000aec3:	83 c4 10             	add    $0x10,%esp
c000aec6:	eb 1d                	jmp    c000aee5 <sys_rmdir+0xf1>
c000aec8:	8b 45 e4             	mov    -0x1c(%ebp),%eax
c000aecb:	83 ec 08             	sub    $0x8,%esp
c000aece:	ff 75 ec             	pushl  -0x14(%ebp)
c000aed1:	50                   	push   %eax
c000aed2:	e8 61 d5 ff ff       	call   c0008438 <dir_remove>
c000aed7:	83 c4 10             	add    $0x10,%esp
c000aeda:	85 c0                	test   %eax,%eax
c000aedc:	75 07                	jne    c000aee5 <sys_rmdir+0xf1>
c000aede:	c7 45 f4 00 00 00 00 	movl   $0x0,-0xc(%ebp)
c000aee5:	83 ec 0c             	sub    $0xc,%esp
c000aee8:	ff 75 ec             	pushl  -0x14(%ebp)
c000aeeb:	e8 b4 ca ff ff       	call   c00079a4 <dir_close>
c000aef0:	83 c4 10             	add    $0x10,%esp
c000aef3:	8b 45 e4             	mov    -0x1c(%ebp),%eax
c000aef6:	83 ec 0c             	sub    $0xc,%esp
c000aef9:	50                   	push   %eax
c000aefa:	e8 a5 ca ff ff       	call   c00079a4 <dir_close>
c000aeff:	83 c4 10             	add    $0x10,%esp
c000af02:	8b 45 f4             	mov    -0xc(%ebp),%eax
c000af05:	8b 5d fc             	mov    -0x4(%ebp),%ebx
c000af08:	c9                   	leave  
c000af09:	c3                   	ret    

c000af0a <get_parent_dir_inode_nr>:
c000af0a:	55                   	push   %ebp
c000af0b:	89 e5                	mov    %esp,%ebp
c000af0d:	53                   	push   %ebx
c000af0e:	83 ec 14             	sub    $0x14,%esp
c000af11:	e8 df 6a ff ff       	call   c00019f5 <__x86.get_pc_thunk.bx>
c000af16:	81 c3 ea 70 00 00    	add    $0x70ea,%ebx
c000af1c:	c7 c0 40 2c 01 c0    	mov    $0xc0012c40,%eax
c000af22:	8b 00                	mov    (%eax),%eax
c000af24:	83 ec 08             	sub    $0x8,%esp
c000af27:	ff 75 08             	pushl  0x8(%ebp)
c000af2a:	50                   	push   %eax
c000af2b:	e8 14 c3 ff ff       	call   c0007244 <inode_open>
c000af30:	83 c4 10             	add    $0x10,%esp
c000af33:	89 45 f4             	mov    %eax,-0xc(%ebp)
c000af36:	8b 45 f4             	mov    -0xc(%ebp),%eax
c000af39:	8b 40 10             	mov    0x10(%eax),%eax
c000af3c:	89 45 f0             	mov    %eax,-0x10(%ebp)
c000af3f:	83 ec 0c             	sub    $0xc,%esp
c000af42:	ff 75 f4             	pushl  -0xc(%ebp)
c000af45:	e8 4c c4 ff ff       	call   c0007396 <inode_close>
c000af4a:	83 c4 10             	add    $0x10,%esp
c000af4d:	c7 c0 40 2c 01 c0    	mov    $0xc0012c40,%eax
c000af53:	8b 00                	mov    (%eax),%eax
c000af55:	8b 40 08             	mov    0x8(%eax),%eax
c000af58:	6a 01                	push   $0x1
c000af5a:	ff 75 0c             	pushl  0xc(%ebp)
c000af5d:	ff 75 f0             	pushl  -0x10(%ebp)
c000af60:	50                   	push   %eax
c000af61:	e8 bc b7 ff ff       	call   c0006722 <ide_read>
c000af66:	83 c4 10             	add    $0x10,%esp
c000af69:	8b 45 0c             	mov    0xc(%ebp),%eax
c000af6c:	89 45 ec             	mov    %eax,-0x14(%ebp)
c000af6f:	8b 45 ec             	mov    -0x14(%ebp),%eax
c000af72:	83 c0 18             	add    $0x18,%eax
c000af75:	8b 40 10             	mov    0x10(%eax),%eax
c000af78:	8b 5d fc             	mov    -0x4(%ebp),%ebx
c000af7b:	c9                   	leave  
c000af7c:	c3                   	ret    

c000af7d <get_child_dir_name>:
c000af7d:	55                   	push   %ebp
c000af7e:	89 e5                	mov    %esp,%ebp
c000af80:	57                   	push   %edi
c000af81:	53                   	push   %ebx
c000af82:	81 ec 50 02 00 00    	sub    $0x250,%esp
c000af88:	e8 68 6a ff ff       	call   c00019f5 <__x86.get_pc_thunk.bx>
c000af8d:	81 c3 73 70 00 00    	add    $0x7073,%ebx
c000af93:	c7 c0 40 2c 01 c0    	mov    $0xc0012c40,%eax
c000af99:	8b 00                	mov    (%eax),%eax
c000af9b:	83 ec 08             	sub    $0x8,%esp
c000af9e:	ff 75 08             	pushl  0x8(%ebp)
c000afa1:	50                   	push   %eax
c000afa2:	e8 9d c2 ff ff       	call   c0007244 <inode_open>
c000afa7:	83 c4 10             	add    $0x10,%esp
c000afaa:	89 45 e8             	mov    %eax,-0x18(%ebp)
c000afad:	c6 45 f7 00          	movb   $0x0,-0x9(%ebp)
c000afb1:	8d 95 ac fd ff ff    	lea    -0x254(%ebp),%edx
c000afb7:	b8 00 00 00 00       	mov    $0x0,%eax
c000afbc:	b9 8c 00 00 00       	mov    $0x8c,%ecx
c000afc1:	89 d7                	mov    %edx,%edi
c000afc3:	f3 ab                	rep stos %eax,%es:(%edi)
c000afc5:	c7 45 f0 0c 00 00 00 	movl   $0xc,-0x10(%ebp)
c000afcc:	eb 22                	jmp    c000aff0 <get_child_dir_name+0x73>
c000afce:	0f b6 4d f7          	movzbl -0x9(%ebp),%ecx
c000afd2:	0f b6 45 f7          	movzbl -0x9(%ebp),%eax
c000afd6:	8b 55 e8             	mov    -0x18(%ebp),%edx
c000afd9:	83 c1 04             	add    $0x4,%ecx
c000afdc:	8b 14 8a             	mov    (%edx,%ecx,4),%edx
c000afdf:	89 94 85 ac fd ff ff 	mov    %edx,-0x254(%ebp,%eax,4)
c000afe6:	0f b6 45 f7          	movzbl -0x9(%ebp),%eax
c000afea:	83 c0 01             	add    $0x1,%eax
c000afed:	88 45 f7             	mov    %al,-0x9(%ebp)
c000aff0:	80 7d f7 0b          	cmpb   $0xb,-0x9(%ebp)
c000aff4:	76 d8                	jbe    c000afce <get_child_dir_name+0x51>
c000aff6:	8b 45 e8             	mov    -0x18(%ebp),%eax
c000aff9:	8b 40 40             	mov    0x40(%eax),%eax
c000affc:	85 c0                	test   %eax,%eax
c000affe:	74 2e                	je     c000b02e <get_child_dir_name+0xb1>
c000b000:	8d 85 ac fd ff ff    	lea    -0x254(%ebp),%eax
c000b006:	83 c0 30             	add    $0x30,%eax
c000b009:	8b 55 e8             	mov    -0x18(%ebp),%edx
c000b00c:	8b 4a 40             	mov    0x40(%edx),%ecx
c000b00f:	c7 c2 40 2c 01 c0    	mov    $0xc0012c40,%edx
c000b015:	8b 12                	mov    (%edx),%edx
c000b017:	8b 52 08             	mov    0x8(%edx),%edx
c000b01a:	6a 01                	push   $0x1
c000b01c:	50                   	push   %eax
c000b01d:	51                   	push   %ecx
c000b01e:	52                   	push   %edx
c000b01f:	e8 fe b6 ff ff       	call   c0006722 <ide_read>
c000b024:	83 c4 10             	add    $0x10,%esp
c000b027:	c7 45 f0 8c 00 00 00 	movl   $0x8c,-0x10(%ebp)
c000b02e:	83 ec 0c             	sub    $0xc,%esp
c000b031:	ff 75 e8             	pushl  -0x18(%ebp)
c000b034:	e8 5d c3 ff ff       	call   c0007396 <inode_close>
c000b039:	83 c4 10             	add    $0x10,%esp
c000b03c:	8b 45 14             	mov    0x14(%ebp),%eax
c000b03f:	89 45 e4             	mov    %eax,-0x1c(%ebp)
c000b042:	c7 c0 40 2c 01 c0    	mov    $0xc0012c40,%eax
c000b048:	8b 00                	mov    (%eax),%eax
c000b04a:	8b 40 1c             	mov    0x1c(%eax),%eax
c000b04d:	8b 40 30             	mov    0x30(%eax),%eax
c000b050:	89 45 e0             	mov    %eax,-0x20(%ebp)
c000b053:	b8 00 02 00 00       	mov    $0x200,%eax
c000b058:	ba 00 00 00 00       	mov    $0x0,%edx
c000b05d:	f7 75 e0             	divl   -0x20(%ebp)
c000b060:	89 45 dc             	mov    %eax,-0x24(%ebp)
c000b063:	c6 45 f7 00          	movb   $0x0,-0x9(%ebp)
c000b067:	e9 b6 00 00 00       	jmp    c000b122 <get_child_dir_name+0x1a5>
c000b06c:	0f b6 45 f7          	movzbl -0x9(%ebp),%eax
c000b070:	8b 84 85 ac fd ff ff 	mov    -0x254(%ebp,%eax,4),%eax
c000b077:	85 c0                	test   %eax,%eax
c000b079:	0f 84 99 00 00 00    	je     c000b118 <get_child_dir_name+0x19b>
c000b07f:	0f b6 45 f7          	movzbl -0x9(%ebp),%eax
c000b083:	8b 94 85 ac fd ff ff 	mov    -0x254(%ebp,%eax,4),%edx
c000b08a:	c7 c0 40 2c 01 c0    	mov    $0xc0012c40,%eax
c000b090:	8b 00                	mov    (%eax),%eax
c000b092:	8b 40 08             	mov    0x8(%eax),%eax
c000b095:	6a 01                	push   $0x1
c000b097:	ff 75 14             	pushl  0x14(%ebp)
c000b09a:	52                   	push   %edx
c000b09b:	50                   	push   %eax
c000b09c:	e8 81 b6 ff ff       	call   c0006722 <ide_read>
c000b0a1:	83 c4 10             	add    $0x10,%esp
c000b0a4:	c6 45 ef 00          	movb   $0x0,-0x11(%ebp)
c000b0a8:	eb 65                	jmp    c000b10f <get_child_dir_name+0x192>
c000b0aa:	0f b6 55 ef          	movzbl -0x11(%ebp),%edx
c000b0ae:	89 d0                	mov    %edx,%eax
c000b0b0:	01 c0                	add    %eax,%eax
c000b0b2:	01 d0                	add    %edx,%eax
c000b0b4:	c1 e0 03             	shl    $0x3,%eax
c000b0b7:	89 c2                	mov    %eax,%edx
c000b0b9:	8b 45 e4             	mov    -0x1c(%ebp),%eax
c000b0bc:	01 d0                	add    %edx,%eax
c000b0be:	8b 40 10             	mov    0x10(%eax),%eax
c000b0c1:	39 45 0c             	cmp    %eax,0xc(%ebp)
c000b0c4:	75 3f                	jne    c000b105 <get_child_dir_name+0x188>
c000b0c6:	83 ec 08             	sub    $0x8,%esp
c000b0c9:	8d 83 fe bd ff ff    	lea    -0x4202(%ebx),%eax
c000b0cf:	50                   	push   %eax
c000b0d0:	ff 75 10             	pushl  0x10(%ebp)
c000b0d3:	e8 03 7f ff ff       	call   c0002fdb <strcat>
c000b0d8:	83 c4 10             	add    $0x10,%esp
c000b0db:	0f b6 55 ef          	movzbl -0x11(%ebp),%edx
c000b0df:	89 d0                	mov    %edx,%eax
c000b0e1:	01 c0                	add    %eax,%eax
c000b0e3:	01 d0                	add    %edx,%eax
c000b0e5:	c1 e0 03             	shl    $0x3,%eax
c000b0e8:	89 c2                	mov    %eax,%edx
c000b0ea:	8b 45 e4             	mov    -0x1c(%ebp),%eax
c000b0ed:	01 d0                	add    %edx,%eax
c000b0ef:	83 ec 08             	sub    $0x8,%esp
c000b0f2:	50                   	push   %eax
c000b0f3:	ff 75 10             	pushl  0x10(%ebp)
c000b0f6:	e8 e0 7e ff ff       	call   c0002fdb <strcat>
c000b0fb:	83 c4 10             	add    $0x10,%esp
c000b0fe:	b8 00 00 00 00       	mov    $0x0,%eax
c000b103:	eb 2f                	jmp    c000b134 <get_child_dir_name+0x1b7>
c000b105:	0f b6 45 ef          	movzbl -0x11(%ebp),%eax
c000b109:	83 c0 01             	add    $0x1,%eax
c000b10c:	88 45 ef             	mov    %al,-0x11(%ebp)
c000b10f:	0f b6 45 ef          	movzbl -0x11(%ebp),%eax
c000b113:	39 45 dc             	cmp    %eax,-0x24(%ebp)
c000b116:	77 92                	ja     c000b0aa <get_child_dir_name+0x12d>
c000b118:	0f b6 45 f7          	movzbl -0x9(%ebp),%eax
c000b11c:	83 c0 01             	add    $0x1,%eax
c000b11f:	88 45 f7             	mov    %al,-0x9(%ebp)
c000b122:	0f b6 45 f7          	movzbl -0x9(%ebp),%eax
c000b126:	39 45 f0             	cmp    %eax,-0x10(%ebp)
c000b129:	0f 87 3d ff ff ff    	ja     c000b06c <get_child_dir_name+0xef>
c000b12f:	b8 ff ff ff ff       	mov    $0xffffffff,%eax
c000b134:	8d 65 f8             	lea    -0x8(%ebp),%esp
c000b137:	5b                   	pop    %ebx
c000b138:	5f                   	pop    %edi
c000b139:	5d                   	pop    %ebp
c000b13a:	c3                   	ret    

c000b13b <sys_getcwd>:
c000b13b:	55                   	push   %ebp
c000b13c:	89 e5                	mov    %esp,%ebp
c000b13e:	57                   	push   %edi
c000b13f:	56                   	push   %esi
c000b140:	53                   	push   %ebx
c000b141:	81 ec 2c 02 00 00    	sub    $0x22c,%esp
c000b147:	e8 a9 68 ff ff       	call   c00019f5 <__x86.get_pc_thunk.bx>
c000b14c:	81 c3 b4 6e 00 00    	add    $0x6eb4,%ebx
c000b152:	83 ec 0c             	sub    $0xc,%esp
c000b155:	68 00 02 00 00       	push   $0x200
c000b15a:	e8 28 88 ff ff       	call   c0003987 <sys_malloc>
c000b15f:	83 c4 10             	add    $0x10,%esp
c000b162:	89 45 e0             	mov    %eax,-0x20(%ebp)
c000b165:	83 7d e0 00          	cmpl   $0x0,-0x20(%ebp)
c000b169:	75 0a                	jne    c000b175 <sys_getcwd+0x3a>
c000b16b:	b8 00 00 00 00       	mov    $0x0,%eax
c000b170:	e9 3c 01 00 00       	jmp    c000b2b1 <sys_getcwd+0x176>
c000b175:	e8 f9 91 ff ff       	call   c0004373 <running_thread>
c000b17a:	89 45 dc             	mov    %eax,-0x24(%ebp)
c000b17d:	c7 45 d8 00 00 00 00 	movl   $0x0,-0x28(%ebp)
c000b184:	8b 45 dc             	mov    -0x24(%ebp),%eax
c000b187:	8b 80 0c 01 00 00    	mov    0x10c(%eax),%eax
c000b18d:	89 45 e4             	mov    %eax,-0x1c(%ebp)
c000b190:	83 7d e4 00          	cmpl   $0x0,-0x1c(%ebp)
c000b194:	75 25                	jne    c000b1bb <sys_getcwd+0x80>
c000b196:	8b 45 08             	mov    0x8(%ebp),%eax
c000b199:	c6 00 2f             	movb   $0x2f,(%eax)
c000b19c:	8b 45 08             	mov    0x8(%ebp),%eax
c000b19f:	83 c0 01             	add    $0x1,%eax
c000b1a2:	c6 00 00             	movb   $0x0,(%eax)
c000b1a5:	83 ec 0c             	sub    $0xc,%esp
c000b1a8:	ff 75 e0             	pushl  -0x20(%ebp)
c000b1ab:	e8 5d 8d ff ff       	call   c0003f0d <sys_free>
c000b1b0:	83 c4 10             	add    $0x10,%esp
c000b1b3:	8b 45 08             	mov    0x8(%ebp),%eax
c000b1b6:	e9 f6 00 00 00       	jmp    c000b2b1 <sys_getcwd+0x176>
c000b1bb:	83 ec 04             	sub    $0x4,%esp
c000b1be:	ff 75 0c             	pushl  0xc(%ebp)
c000b1c1:	6a 00                	push   $0x0
c000b1c3:	ff 75 08             	pushl  0x8(%ebp)
c000b1c6:	e8 ca 7b ff ff       	call   c0002d95 <memset>
c000b1cb:	83 c4 10             	add    $0x10,%esp
c000b1ce:	8d 85 d2 fd ff ff    	lea    -0x22e(%ebp),%eax
c000b1d4:	b9 00 02 00 00       	mov    $0x200,%ecx
c000b1d9:	be 00 00 00 00       	mov    $0x0,%esi
c000b1de:	89 30                	mov    %esi,(%eax)
c000b1e0:	89 74 08 fc          	mov    %esi,-0x4(%eax,%ecx,1)
c000b1e4:	8d 50 04             	lea    0x4(%eax),%edx
c000b1e7:	83 e2 fc             	and    $0xfffffffc,%edx
c000b1ea:	29 d0                	sub    %edx,%eax
c000b1ec:	01 c1                	add    %eax,%ecx
c000b1ee:	83 e1 fc             	and    $0xfffffffc,%ecx
c000b1f1:	c1 e9 02             	shr    $0x2,%ecx
c000b1f4:	89 d7                	mov    %edx,%edi
c000b1f6:	89 f0                	mov    %esi,%eax
c000b1f8:	f3 ab                	rep stos %eax,%es:(%edi)
c000b1fa:	eb 4f                	jmp    c000b24b <sys_getcwd+0x110>
c000b1fc:	8b 45 e4             	mov    -0x1c(%ebp),%eax
c000b1ff:	83 ec 08             	sub    $0x8,%esp
c000b202:	ff 75 e0             	pushl  -0x20(%ebp)
c000b205:	50                   	push   %eax
c000b206:	e8 ff fc ff ff       	call   c000af0a <get_parent_dir_inode_nr>
c000b20b:	83 c4 10             	add    $0x10,%esp
c000b20e:	89 45 d8             	mov    %eax,-0x28(%ebp)
c000b211:	8b 55 e4             	mov    -0x1c(%ebp),%edx
c000b214:	8b 45 d8             	mov    -0x28(%ebp),%eax
c000b217:	ff 75 e0             	pushl  -0x20(%ebp)
c000b21a:	8d 8d d2 fd ff ff    	lea    -0x22e(%ebp),%ecx
c000b220:	51                   	push   %ecx
c000b221:	52                   	push   %edx
c000b222:	50                   	push   %eax
c000b223:	e8 55 fd ff ff       	call   c000af7d <get_child_dir_name>
c000b228:	83 c4 10             	add    $0x10,%esp
c000b22b:	83 f8 ff             	cmp    $0xffffffff,%eax
c000b22e:	75 15                	jne    c000b245 <sys_getcwd+0x10a>
c000b230:	83 ec 0c             	sub    $0xc,%esp
c000b233:	ff 75 e0             	pushl  -0x20(%ebp)
c000b236:	e8 d2 8c ff ff       	call   c0003f0d <sys_free>
c000b23b:	83 c4 10             	add    $0x10,%esp
c000b23e:	b8 00 00 00 00       	mov    $0x0,%eax
c000b243:	eb 6c                	jmp    c000b2b1 <sys_getcwd+0x176>
c000b245:	8b 45 d8             	mov    -0x28(%ebp),%eax
c000b248:	89 45 e4             	mov    %eax,-0x1c(%ebp)
c000b24b:	83 7d e4 00          	cmpl   $0x0,-0x1c(%ebp)
c000b24f:	75 ab                	jne    c000b1fc <sys_getcwd+0xc1>
c000b251:	eb 30                	jmp    c000b283 <sys_getcwd+0x148>
c000b253:	83 ec 0c             	sub    $0xc,%esp
c000b256:	ff 75 08             	pushl  0x8(%ebp)
c000b259:	e8 59 7c ff ff       	call   c0002eb7 <strlen>
c000b25e:	83 c4 10             	add    $0x10,%esp
c000b261:	66 89 45 d2          	mov    %ax,-0x2e(%ebp)
c000b265:	0f b7 55 d2          	movzwl -0x2e(%ebp),%edx
c000b269:	8b 45 08             	mov    0x8(%ebp),%eax
c000b26c:	01 d0                	add    %edx,%eax
c000b26e:	83 ec 08             	sub    $0x8,%esp
c000b271:	ff 75 d4             	pushl  -0x2c(%ebp)
c000b274:	50                   	push   %eax
c000b275:	e8 03 7c ff ff       	call   c0002e7d <strcpy>
c000b27a:	83 c4 10             	add    $0x10,%esp
c000b27d:	8b 45 d4             	mov    -0x2c(%ebp),%eax
c000b280:	c6 00 00             	movb   $0x0,(%eax)
c000b283:	83 ec 08             	sub    $0x8,%esp
c000b286:	6a 2f                	push   $0x2f
c000b288:	8d 85 d2 fd ff ff    	lea    -0x22e(%ebp),%eax
c000b28e:	50                   	push   %eax
c000b28f:	e8 fe 7c ff ff       	call   c0002f92 <strrchr>
c000b294:	83 c4 10             	add    $0x10,%esp
c000b297:	89 45 d4             	mov    %eax,-0x2c(%ebp)
c000b29a:	83 7d d4 00          	cmpl   $0x0,-0x2c(%ebp)
c000b29e:	75 b3                	jne    c000b253 <sys_getcwd+0x118>
c000b2a0:	83 ec 0c             	sub    $0xc,%esp
c000b2a3:	ff 75 e0             	pushl  -0x20(%ebp)
c000b2a6:	e8 62 8c ff ff       	call   c0003f0d <sys_free>
c000b2ab:	83 c4 10             	add    $0x10,%esp
c000b2ae:	8b 45 08             	mov    0x8(%ebp),%eax
c000b2b1:	8d 65 f4             	lea    -0xc(%ebp),%esp
c000b2b4:	5b                   	pop    %ebx
c000b2b5:	5e                   	pop    %esi
c000b2b6:	5f                   	pop    %edi
c000b2b7:	5d                   	pop    %ebp
c000b2b8:	c3                   	ret    

c000b2b9 <sys_chdir>:
c000b2b9:	55                   	push   %ebp
c000b2ba:	89 e5                	mov    %esp,%ebp
c000b2bc:	53                   	push   %ebx
c000b2bd:	81 ec 14 02 00 00    	sub    $0x214,%esp
c000b2c3:	e8 2d 67 ff ff       	call   c00019f5 <__x86.get_pc_thunk.bx>
c000b2c8:	81 c3 38 6d 00 00    	add    $0x6d38,%ebx
c000b2ce:	c7 45 f4 ff ff ff ff 	movl   $0xffffffff,-0xc(%ebp)
c000b2d5:	83 ec 04             	sub    $0x4,%esp
c000b2d8:	68 08 02 00 00       	push   $0x208
c000b2dd:	6a 00                	push   $0x0
c000b2df:	8d 85 e8 fd ff ff    	lea    -0x218(%ebp),%eax
c000b2e5:	50                   	push   %eax
c000b2e6:	e8 aa 7a ff ff       	call   c0002d95 <memset>
c000b2eb:	83 c4 10             	add    $0x10,%esp
c000b2ee:	83 ec 08             	sub    $0x8,%esp
c000b2f1:	8d 85 e8 fd ff ff    	lea    -0x218(%ebp),%eax
c000b2f7:	50                   	push   %eax
c000b2f8:	ff 75 08             	pushl  0x8(%ebp)
c000b2fb:	e8 84 eb ff ff       	call   c0009e84 <search_file>
c000b300:	83 c4 10             	add    $0x10,%esp
c000b303:	89 45 f0             	mov    %eax,-0x10(%ebp)
c000b306:	83 7d f0 ff          	cmpl   $0xffffffff,-0x10(%ebp)
c000b30a:	74 36                	je     c000b342 <sys_chdir+0x89>
c000b30c:	8b 45 ec             	mov    -0x14(%ebp),%eax
c000b30f:	83 f8 02             	cmp    $0x2,%eax
c000b312:	75 19                	jne    c000b32d <sys_chdir+0x74>
c000b314:	e8 5a 90 ff ff       	call   c0004373 <running_thread>
c000b319:	89 c2                	mov    %eax,%edx
c000b31b:	8b 45 f0             	mov    -0x10(%ebp),%eax
c000b31e:	89 82 0c 01 00 00    	mov    %eax,0x10c(%edx)
c000b324:	c7 45 f4 00 00 00 00 	movl   $0x0,-0xc(%ebp)
c000b32b:	eb 15                	jmp    c000b342 <sys_chdir+0x89>
c000b32d:	83 ec 08             	sub    $0x8,%esp
c000b330:	ff 75 08             	pushl  0x8(%ebp)
c000b333:	8d 83 c8 c1 ff ff    	lea    -0x3e38(%ebx),%eax
c000b339:	50                   	push   %eax
c000b33a:	e8 32 b0 ff ff       	call   c0006371 <printk>
c000b33f:	83 c4 10             	add    $0x10,%esp
c000b342:	8b 45 e8             	mov    -0x18(%ebp),%eax
c000b345:	83 ec 0c             	sub    $0xc,%esp
c000b348:	50                   	push   %eax
c000b349:	e8 56 c6 ff ff       	call   c00079a4 <dir_close>
c000b34e:	83 c4 10             	add    $0x10,%esp
c000b351:	8b 45 f4             	mov    -0xc(%ebp),%eax
c000b354:	8b 5d fc             	mov    -0x4(%ebp),%ebx
c000b357:	c9                   	leave  
c000b358:	c3                   	ret    

c000b359 <sys_stat>:
c000b359:	55                   	push   %ebp
c000b35a:	89 e5                	mov    %esp,%ebp
c000b35c:	53                   	push   %ebx
c000b35d:	81 ec 24 02 00 00    	sub    $0x224,%esp
c000b363:	e8 8d 66 ff ff       	call   c00019f5 <__x86.get_pc_thunk.bx>
c000b368:	81 c3 98 6c 00 00    	add    $0x6c98,%ebx
c000b36e:	83 ec 08             	sub    $0x8,%esp
c000b371:	8d 83 fe bd ff ff    	lea    -0x4202(%ebx),%eax
c000b377:	50                   	push   %eax
c000b378:	ff 75 08             	pushl  0x8(%ebp)
c000b37b:	e8 6d 7b ff ff       	call   c0002eed <strcmp>
c000b380:	83 c4 10             	add    $0x10,%esp
c000b383:	84 c0                	test   %al,%al
c000b385:	74 32                	je     c000b3b9 <sys_stat+0x60>
c000b387:	83 ec 08             	sub    $0x8,%esp
c000b38a:	8d 83 00 be ff ff    	lea    -0x4200(%ebx),%eax
c000b390:	50                   	push   %eax
c000b391:	ff 75 08             	pushl  0x8(%ebp)
c000b394:	e8 54 7b ff ff       	call   c0002eed <strcmp>
c000b399:	83 c4 10             	add    $0x10,%esp
c000b39c:	84 c0                	test   %al,%al
c000b39e:	74 19                	je     c000b3b9 <sys_stat+0x60>
c000b3a0:	83 ec 08             	sub    $0x8,%esp
c000b3a3:	8d 83 03 be ff ff    	lea    -0x41fd(%ebx),%eax
c000b3a9:	50                   	push   %eax
c000b3aa:	ff 75 08             	pushl  0x8(%ebp)
c000b3ad:	e8 3b 7b ff ff       	call   c0002eed <strcmp>
c000b3b2:	83 c4 10             	add    $0x10,%esp
c000b3b5:	84 c0                	test   %al,%al
c000b3b7:	75 2e                	jne    c000b3e7 <sys_stat+0x8e>
c000b3b9:	8b 45 0c             	mov    0xc(%ebp),%eax
c000b3bc:	c7 40 08 02 00 00 00 	movl   $0x2,0x8(%eax)
c000b3c3:	8b 45 0c             	mov    0xc(%ebp),%eax
c000b3c6:	c7 00 00 00 00 00    	movl   $0x0,(%eax)
c000b3cc:	c7 c0 20 40 01 c0    	mov    $0xc0014020,%eax
c000b3d2:	8b 00                	mov    (%eax),%eax
c000b3d4:	8b 50 04             	mov    0x4(%eax),%edx
c000b3d7:	8b 45 0c             	mov    0xc(%ebp),%eax
c000b3da:	89 50 04             	mov    %edx,0x4(%eax)
c000b3dd:	b8 00 00 00 00       	mov    $0x0,%eax
c000b3e2:	e9 b4 00 00 00       	jmp    c000b49b <sys_stat+0x142>
c000b3e7:	c7 45 f4 ff ff ff ff 	movl   $0xffffffff,-0xc(%ebp)
c000b3ee:	83 ec 04             	sub    $0x4,%esp
c000b3f1:	68 08 02 00 00       	push   $0x208
c000b3f6:	6a 00                	push   $0x0
c000b3f8:	8d 85 e4 fd ff ff    	lea    -0x21c(%ebp),%eax
c000b3fe:	50                   	push   %eax
c000b3ff:	e8 91 79 ff ff       	call   c0002d95 <memset>
c000b404:	83 c4 10             	add    $0x10,%esp
c000b407:	83 ec 08             	sub    $0x8,%esp
c000b40a:	8d 85 e4 fd ff ff    	lea    -0x21c(%ebp),%eax
c000b410:	50                   	push   %eax
c000b411:	ff 75 08             	pushl  0x8(%ebp)
c000b414:	e8 6b ea ff ff       	call   c0009e84 <search_file>
c000b419:	83 c4 10             	add    $0x10,%esp
c000b41c:	89 45 f0             	mov    %eax,-0x10(%ebp)
c000b41f:	83 7d f0 ff          	cmpl   $0xffffffff,-0x10(%ebp)
c000b423:	74 4f                	je     c000b474 <sys_stat+0x11b>
c000b425:	8b 55 f0             	mov    -0x10(%ebp),%edx
c000b428:	c7 c0 40 2c 01 c0    	mov    $0xc0012c40,%eax
c000b42e:	8b 00                	mov    (%eax),%eax
c000b430:	83 ec 08             	sub    $0x8,%esp
c000b433:	52                   	push   %edx
c000b434:	50                   	push   %eax
c000b435:	e8 0a be ff ff       	call   c0007244 <inode_open>
c000b43a:	83 c4 10             	add    $0x10,%esp
c000b43d:	89 45 ec             	mov    %eax,-0x14(%ebp)
c000b440:	8b 45 ec             	mov    -0x14(%ebp),%eax
c000b443:	8b 50 04             	mov    0x4(%eax),%edx
c000b446:	8b 45 0c             	mov    0xc(%ebp),%eax
c000b449:	89 50 04             	mov    %edx,0x4(%eax)
c000b44c:	83 ec 0c             	sub    $0xc,%esp
c000b44f:	ff 75 ec             	pushl  -0x14(%ebp)
c000b452:	e8 3f bf ff ff       	call   c0007396 <inode_close>
c000b457:	83 c4 10             	add    $0x10,%esp
c000b45a:	8b 55 e8             	mov    -0x18(%ebp),%edx
c000b45d:	8b 45 0c             	mov    0xc(%ebp),%eax
c000b460:	89 50 08             	mov    %edx,0x8(%eax)
c000b463:	8b 55 f0             	mov    -0x10(%ebp),%edx
c000b466:	8b 45 0c             	mov    0xc(%ebp),%eax
c000b469:	89 10                	mov    %edx,(%eax)
c000b46b:	c7 45 f4 00 00 00 00 	movl   $0x0,-0xc(%ebp)
c000b472:	eb 15                	jmp    c000b489 <sys_stat+0x130>
c000b474:	83 ec 08             	sub    $0x8,%esp
c000b477:	ff 75 08             	pushl  0x8(%ebp)
c000b47a:	8d 83 f1 c1 ff ff    	lea    -0x3e0f(%ebx),%eax
c000b480:	50                   	push   %eax
c000b481:	e8 eb ae ff ff       	call   c0006371 <printk>
c000b486:	83 c4 10             	add    $0x10,%esp
c000b489:	8b 45 e4             	mov    -0x1c(%ebp),%eax
c000b48c:	83 ec 0c             	sub    $0xc,%esp
c000b48f:	50                   	push   %eax
c000b490:	e8 0f c5 ff ff       	call   c00079a4 <dir_close>
c000b495:	83 c4 10             	add    $0x10,%esp
c000b498:	8b 45 f4             	mov    -0xc(%ebp),%eax
c000b49b:	8b 5d fc             	mov    -0x4(%ebp),%ebx
c000b49e:	c9                   	leave  
c000b49f:	c3                   	ret    

c000b4a0 <filesys_init>:
c000b4a0:	55                   	push   %ebp
c000b4a1:	89 e5                	mov    %esp,%ebp
c000b4a3:	53                   	push   %ebx
c000b4a4:	83 ec 24             	sub    $0x24,%esp
c000b4a7:	e8 49 65 ff ff       	call   c00019f5 <__x86.get_pc_thunk.bx>
c000b4ac:	81 c3 54 6b 00 00    	add    $0x6b54,%ebx
c000b4b2:	c6 45 f7 00          	movb   $0x0,-0x9(%ebp)
c000b4b6:	c6 45 f6 00          	movb   $0x0,-0xa(%ebp)
c000b4ba:	c6 45 f5 00          	movb   $0x0,-0xb(%ebp)
c000b4be:	83 ec 0c             	sub    $0xc,%esp
c000b4c1:	68 00 02 00 00       	push   $0x200
c000b4c6:	e8 bc 84 ff ff       	call   c0003987 <sys_malloc>
c000b4cb:	83 c4 10             	add    $0x10,%esp
c000b4ce:	89 45 e8             	mov    %eax,-0x18(%ebp)
c000b4d1:	83 7d e8 00          	cmpl   $0x0,-0x18(%ebp)
c000b4d5:	75 22                	jne    c000b4f9 <filesys_init+0x59>
c000b4d7:	8d 83 09 c2 ff ff    	lea    -0x3df7(%ebx),%eax
c000b4dd:	50                   	push   %eax
c000b4de:	8d 83 80 c2 ff ff    	lea    -0x3d80(%ebx),%eax
c000b4e4:	50                   	push   %eax
c000b4e5:	68 08 03 00 00       	push   $0x308
c000b4ea:	8d 83 63 bc ff ff    	lea    -0x439d(%ebx),%eax
c000b4f0:	50                   	push   %eax
c000b4f1:	e8 fb 73 ff ff       	call   c00028f1 <panic_spin>
c000b4f6:	83 c4 10             	add    $0x10,%esp
c000b4f9:	83 ec 0c             	sub    $0xc,%esp
c000b4fc:	8d 83 1e c2 ff ff    	lea    -0x3de2(%ebx),%eax
c000b502:	50                   	push   %eax
c000b503:	e8 69 ae ff ff       	call   c0006371 <printk>
c000b508:	83 c4 10             	add    $0x10,%esp
c000b50b:	e9 25 01 00 00       	jmp    c000b635 <filesys_init+0x195>
c000b510:	c6 45 f6 00          	movb   $0x0,-0xa(%ebp)
c000b514:	e9 08 01 00 00       	jmp    c000b621 <filesys_init+0x181>
c000b519:	80 7d f6 00          	cmpb   $0x0,-0xa(%ebp)
c000b51d:	75 0f                	jne    c000b52e <filesys_init+0x8e>
c000b51f:	0f b6 45 f6          	movzbl -0xa(%ebp),%eax
c000b523:	83 c0 01             	add    $0x1,%eax
c000b526:	88 45 f6             	mov    %al,-0xa(%ebp)
c000b529:	e9 f3 00 00 00       	jmp    c000b621 <filesys_init+0x181>
c000b52e:	0f b6 45 f7          	movzbl -0x9(%ebp),%eax
c000b532:	0f b6 55 f6          	movzbl -0xa(%ebp),%edx
c000b536:	69 d2 10 03 00 00    	imul   $0x310,%edx,%edx
c000b53c:	69 c0 60 06 00 00    	imul   $0x660,%eax,%eax
c000b542:	01 d0                	add    %edx,%eax
c000b544:	8d 50 40             	lea    0x40(%eax),%edx
c000b547:	c7 c0 40 33 01 c0    	mov    $0xc0013340,%eax
c000b54d:	01 d0                	add    %edx,%eax
c000b54f:	89 45 e4             	mov    %eax,-0x1c(%ebp)
c000b552:	8b 45 e4             	mov    -0x1c(%ebp),%eax
c000b555:	83 c0 10             	add    $0x10,%eax
c000b558:	89 45 f0             	mov    %eax,-0x10(%ebp)
c000b55b:	e9 ad 00 00 00       	jmp    c000b60d <filesys_init+0x16d>
c000b560:	80 7d f5 04          	cmpb   $0x4,-0xb(%ebp)
c000b564:	75 0b                	jne    c000b571 <filesys_init+0xd1>
c000b566:	8b 45 e4             	mov    -0x1c(%ebp),%eax
c000b569:	05 10 01 00 00       	add    $0x110,%eax
c000b56e:	89 45 f0             	mov    %eax,-0x10(%ebp)
c000b571:	8b 45 f0             	mov    -0x10(%ebp),%eax
c000b574:	8b 40 04             	mov    0x4(%eax),%eax
c000b577:	85 c0                	test   %eax,%eax
c000b579:	0f 84 80 00 00 00    	je     c000b5ff <filesys_init+0x15f>
c000b57f:	83 ec 04             	sub    $0x4,%esp
c000b582:	68 00 02 00 00       	push   $0x200
c000b587:	6a 00                	push   $0x0
c000b589:	ff 75 e8             	pushl  -0x18(%ebp)
c000b58c:	e8 04 78 ff ff       	call   c0002d95 <memset>
c000b591:	83 c4 10             	add    $0x10,%esp
c000b594:	8b 45 f0             	mov    -0x10(%ebp),%eax
c000b597:	8b 00                	mov    (%eax),%eax
c000b599:	83 c0 01             	add    $0x1,%eax
c000b59c:	6a 01                	push   $0x1
c000b59e:	ff 75 e8             	pushl  -0x18(%ebp)
c000b5a1:	50                   	push   %eax
c000b5a2:	ff 75 e4             	pushl  -0x1c(%ebp)
c000b5a5:	e8 78 b1 ff ff       	call   c0006722 <ide_read>
c000b5aa:	83 c4 10             	add    $0x10,%esp
c000b5ad:	8b 45 e8             	mov    -0x18(%ebp),%eax
c000b5b0:	8b 00                	mov    (%eax),%eax
c000b5b2:	3d 18 03 59 19       	cmp    $0x19590318,%eax
c000b5b7:	75 1b                	jne    c000b5d4 <filesys_init+0x134>
c000b5b9:	8b 45 f0             	mov    -0x10(%ebp),%eax
c000b5bc:	83 c0 14             	add    $0x14,%eax
c000b5bf:	83 ec 08             	sub    $0x8,%esp
c000b5c2:	50                   	push   %eax
c000b5c3:	8d 83 37 c2 ff ff    	lea    -0x3dc9(%ebx),%eax
c000b5c9:	50                   	push   %eax
c000b5ca:	e8 a2 ad ff ff       	call   c0006371 <printk>
c000b5cf:	83 c4 10             	add    $0x10,%esp
c000b5d2:	eb 2b                	jmp    c000b5ff <filesys_init+0x15f>
c000b5d4:	8b 45 f0             	mov    -0x10(%ebp),%eax
c000b5d7:	8d 50 14             	lea    0x14(%eax),%edx
c000b5da:	8b 45 e4             	mov    -0x1c(%ebp),%eax
c000b5dd:	83 ec 04             	sub    $0x4,%esp
c000b5e0:	52                   	push   %edx
c000b5e1:	50                   	push   %eax
c000b5e2:	8d 83 4c c2 ff ff    	lea    -0x3db4(%ebx),%eax
c000b5e8:	50                   	push   %eax
c000b5e9:	e8 83 ad ff ff       	call   c0006371 <printk>
c000b5ee:	83 c4 10             	add    $0x10,%esp
c000b5f1:	83 ec 0c             	sub    $0xc,%esp
c000b5f4:	ff 75 f0             	pushl  -0x10(%ebp)
c000b5f7:	e8 38 e3 ff ff       	call   c0009934 <partition_format>
c000b5fc:	83 c4 10             	add    $0x10,%esp
c000b5ff:	0f b6 45 f5          	movzbl -0xb(%ebp),%eax
c000b603:	83 c0 01             	add    $0x1,%eax
c000b606:	88 45 f5             	mov    %al,-0xb(%ebp)
c000b609:	83 45 f0 40          	addl   $0x40,-0x10(%ebp)
c000b60d:	80 7d f5 0b          	cmpb   $0xb,-0xb(%ebp)
c000b611:	0f 86 49 ff ff ff    	jbe    c000b560 <filesys_init+0xc0>
c000b617:	0f b6 45 f6          	movzbl -0xa(%ebp),%eax
c000b61b:	83 c0 01             	add    $0x1,%eax
c000b61e:	88 45 f6             	mov    %al,-0xa(%ebp)
c000b621:	80 7d f6 01          	cmpb   $0x1,-0xa(%ebp)
c000b625:	0f 86 ee fe ff ff    	jbe    c000b519 <filesys_init+0x79>
c000b62b:	0f b6 45 f7          	movzbl -0x9(%ebp),%eax
c000b62f:	83 c0 01             	add    $0x1,%eax
c000b632:	88 45 f7             	mov    %al,-0x9(%ebp)
c000b635:	c7 c0 20 33 01 c0    	mov    $0xc0013320,%eax
c000b63b:	0f b6 00             	movzbl (%eax),%eax
c000b63e:	38 45 f7             	cmp    %al,-0x9(%ebp)
c000b641:	0f 82 c9 fe ff ff    	jb     c000b510 <filesys_init+0x70>
c000b647:	8b 45 e8             	mov    -0x18(%ebp),%eax
c000b64a:	8d 90 00 02 00 00    	lea    0x200(%eax),%edx
c000b650:	89 55 e8             	mov    %edx,-0x18(%ebp)
c000b653:	83 ec 0c             	sub    $0xc,%esp
c000b656:	50                   	push   %eax
c000b657:	e8 b1 88 ff ff       	call   c0003f0d <sys_free>
c000b65c:	83 c4 10             	add    $0x10,%esp
c000b65f:	c7 45 dc 73 64 62 31 	movl   $0x31626473,-0x24(%ebp)
c000b666:	c7 45 e0 00 00 00 00 	movl   $0x0,-0x20(%ebp)
c000b66d:	8d 45 dc             	lea    -0x24(%ebp),%eax
c000b670:	83 ec 04             	sub    $0x4,%esp
c000b673:	50                   	push   %eax
c000b674:	8d 83 c0 76 ff ff    	lea    -0x8940(%ebx),%eax
c000b67a:	50                   	push   %eax
c000b67b:	c7 c0 00 40 01 c0    	mov    $0xc0014000,%eax
c000b681:	50                   	push   %eax
c000b682:	e8 f4 74 ff ff       	call   c0002b7b <list_traversal>
c000b687:	83 c4 10             	add    $0x10,%esp
c000b68a:	c7 c0 40 2c 01 c0    	mov    $0xc0012c40,%eax
c000b690:	8b 00                	mov    (%eax),%eax
c000b692:	83 ec 0c             	sub    $0xc,%esp
c000b695:	50                   	push   %eax
c000b696:	e8 8a c0 ff ff       	call   c0007725 <open_root_dir>
c000b69b:	83 c4 10             	add    $0x10,%esp
c000b69e:	c7 45 ec 00 00 00 00 	movl   $0x0,-0x14(%ebp)
c000b6a5:	eb 23                	jmp    c000b6ca <filesys_init+0x22a>
c000b6a7:	8b 55 ec             	mov    -0x14(%ebp),%edx
c000b6aa:	8d 42 01             	lea    0x1(%edx),%eax
c000b6ad:	89 45 ec             	mov    %eax,-0x14(%ebp)
c000b6b0:	c7 c1 40 42 01 c0    	mov    $0xc0014240,%ecx
c000b6b6:	89 d0                	mov    %edx,%eax
c000b6b8:	01 c0                	add    %eax,%eax
c000b6ba:	01 d0                	add    %edx,%eax
c000b6bc:	c1 e0 02             	shl    $0x2,%eax
c000b6bf:	01 c8                	add    %ecx,%eax
c000b6c1:	83 c0 08             	add    $0x8,%eax
c000b6c4:	c7 00 00 00 00 00    	movl   $0x0,(%eax)
c000b6ca:	83 7d ec 1f          	cmpl   $0x1f,-0x14(%ebp)
c000b6ce:	76 d7                	jbe    c000b6a7 <filesys_init+0x207>
c000b6d0:	90                   	nop
c000b6d1:	8b 5d fc             	mov    -0x4(%ebp),%ebx
c000b6d4:	c9                   	leave  
c000b6d5:	c3                   	ret    

c000b6d6 <copy_pcb_vaddrbitmap_stack0>:
c000b6d6:	55                   	push   %ebp
c000b6d7:	89 e5                	mov    %esp,%ebp
c000b6d9:	53                   	push   %ebx
c000b6da:	83 ec 14             	sub    $0x14,%esp
c000b6dd:	e8 13 63 ff ff       	call   c00019f5 <__x86.get_pc_thunk.bx>
c000b6e2:	81 c3 1e 69 00 00    	add    $0x691e,%ebx
c000b6e8:	83 ec 04             	sub    $0x4,%esp
c000b6eb:	68 00 10 00 00       	push   $0x1000
c000b6f0:	ff 75 0c             	pushl  0xc(%ebp)
c000b6f3:	ff 75 08             	pushl  0x8(%ebp)
c000b6f6:	e8 d5 76 ff ff       	call   c0002dd0 <memcpy>
c000b6fb:	83 c4 10             	add    $0x10,%esp
c000b6fe:	e8 2f 8d ff ff       	call   c0004432 <fork_pid>
c000b703:	89 c2                	mov    %eax,%edx
c000b705:	8b 45 08             	mov    0x8(%ebp),%eax
c000b708:	66 89 50 04          	mov    %dx,0x4(%eax)
c000b70c:	8b 45 08             	mov    0x8(%ebp),%eax
c000b70f:	c7 40 20 00 00 00 00 	movl   $0x0,0x20(%eax)
c000b716:	8b 45 08             	mov    0x8(%ebp),%eax
c000b719:	c7 40 08 01 00 00 00 	movl   $0x1,0x8(%eax)
c000b720:	8b 45 08             	mov    0x8(%ebp),%eax
c000b723:	0f b6 50 0c          	movzbl 0xc(%eax),%edx
c000b727:	8b 45 08             	mov    0x8(%ebp),%eax
c000b72a:	88 50 1d             	mov    %dl,0x1d(%eax)
c000b72d:	8b 45 0c             	mov    0xc(%ebp),%eax
c000b730:	0f b7 50 04          	movzwl 0x4(%eax),%edx
c000b734:	8b 45 08             	mov    0x8(%ebp),%eax
c000b737:	66 89 90 10 01 00 00 	mov    %dx,0x110(%eax)
c000b73e:	8b 45 08             	mov    0x8(%ebp),%eax
c000b741:	c7 40 48 00 00 00 00 	movl   $0x0,0x48(%eax)
c000b748:	8b 45 08             	mov    0x8(%ebp),%eax
c000b74b:	8b 50 48             	mov    0x48(%eax),%edx
c000b74e:	8b 45 08             	mov    0x8(%ebp),%eax
c000b751:	89 50 44             	mov    %edx,0x44(%eax)
c000b754:	8b 45 08             	mov    0x8(%ebp),%eax
c000b757:	c7 40 50 00 00 00 00 	movl   $0x0,0x50(%eax)
c000b75e:	8b 45 08             	mov    0x8(%ebp),%eax
c000b761:	8b 50 50             	mov    0x50(%eax),%edx
c000b764:	8b 45 08             	mov    0x8(%ebp),%eax
c000b767:	89 50 4c             	mov    %edx,0x4c(%eax)
c000b76a:	8b 45 08             	mov    0x8(%ebp),%eax
c000b76d:	83 c0 64             	add    $0x64,%eax
c000b770:	83 ec 0c             	sub    $0xc,%esp
c000b773:	50                   	push   %eax
c000b774:	e8 30 81 ff ff       	call   c00038a9 <block_desc_init>
c000b779:	83 c4 10             	add    $0x10,%esp
c000b77c:	c7 45 f4 17 00 00 00 	movl   $0x17,-0xc(%ebp)
c000b783:	83 ec 0c             	sub    $0xc,%esp
c000b786:	ff 75 f4             	pushl  -0xc(%ebp)
c000b789:	e8 49 7e ff ff       	call   c00035d7 <get_kernel_pages>
c000b78e:	83 c4 10             	add    $0x10,%esp
c000b791:	89 45 f0             	mov    %eax,-0x10(%ebp)
c000b794:	83 7d f0 00          	cmpl   $0x0,-0x10(%ebp)
c000b798:	75 07                	jne    c000b7a1 <copy_pcb_vaddrbitmap_stack0+0xcb>
c000b79a:	b8 ff ff ff ff       	mov    $0xffffffff,%eax
c000b79f:	eb 2c                	jmp    c000b7cd <copy_pcb_vaddrbitmap_stack0+0xf7>
c000b7a1:	8b 45 f4             	mov    -0xc(%ebp),%eax
c000b7a4:	c1 e0 0c             	shl    $0xc,%eax
c000b7a7:	89 c2                	mov    %eax,%edx
c000b7a9:	8b 45 08             	mov    0x8(%ebp),%eax
c000b7ac:	8b 40 5c             	mov    0x5c(%eax),%eax
c000b7af:	83 ec 04             	sub    $0x4,%esp
c000b7b2:	52                   	push   %edx
c000b7b3:	50                   	push   %eax
c000b7b4:	ff 75 f0             	pushl  -0x10(%ebp)
c000b7b7:	e8 14 76 ff ff       	call   c0002dd0 <memcpy>
c000b7bc:	83 c4 10             	add    $0x10,%esp
c000b7bf:	8b 45 08             	mov    0x8(%ebp),%eax
c000b7c2:	8b 55 f0             	mov    -0x10(%ebp),%edx
c000b7c5:	89 50 5c             	mov    %edx,0x5c(%eax)
c000b7c8:	b8 00 00 00 00       	mov    $0x0,%eax
c000b7cd:	8b 5d fc             	mov    -0x4(%ebp),%ebx
c000b7d0:	c9                   	leave  
c000b7d1:	c3                   	ret    

c000b7d2 <copy_body_stack3>:
c000b7d2:	55                   	push   %ebp
c000b7d3:	89 e5                	mov    %esp,%ebp
c000b7d5:	53                   	push   %ebx
c000b7d6:	83 ec 24             	sub    $0x24,%esp
c000b7d9:	e8 17 62 ff ff       	call   c00019f5 <__x86.get_pc_thunk.bx>
c000b7de:	81 c3 22 68 00 00    	add    $0x6822,%ebx
c000b7e4:	8b 45 0c             	mov    0xc(%ebp),%eax
c000b7e7:	8b 40 5c             	mov    0x5c(%eax),%eax
c000b7ea:	89 45 ec             	mov    %eax,-0x14(%ebp)
c000b7ed:	8b 45 0c             	mov    0xc(%ebp),%eax
c000b7f0:	8b 40 58             	mov    0x58(%eax),%eax
c000b7f3:	89 45 e8             	mov    %eax,-0x18(%ebp)
c000b7f6:	8b 45 0c             	mov    0xc(%ebp),%eax
c000b7f9:	8b 40 60             	mov    0x60(%eax),%eax
c000b7fc:	89 45 e4             	mov    %eax,-0x1c(%ebp)
c000b7ff:	c7 45 f4 00 00 00 00 	movl   $0x0,-0xc(%ebp)
c000b806:	c7 45 f0 00 00 00 00 	movl   $0x0,-0x10(%ebp)
c000b80d:	c7 45 e0 00 00 00 00 	movl   $0x0,-0x20(%ebp)
c000b814:	e9 c5 00 00 00       	jmp    c000b8de <copy_body_stack3+0x10c>
c000b819:	8b 55 ec             	mov    -0x14(%ebp),%edx
c000b81c:	8b 45 f4             	mov    -0xc(%ebp),%eax
c000b81f:	01 d0                	add    %edx,%eax
c000b821:	0f b6 00             	movzbl (%eax),%eax
c000b824:	84 c0                	test   %al,%al
c000b826:	0f 84 ae 00 00 00    	je     c000b8da <copy_body_stack3+0x108>
c000b82c:	c7 45 f0 00 00 00 00 	movl   $0x0,-0x10(%ebp)
c000b833:	e9 98 00 00 00       	jmp    c000b8d0 <copy_body_stack3+0xfe>
c000b838:	8b 55 ec             	mov    -0x14(%ebp),%edx
c000b83b:	8b 45 f4             	mov    -0xc(%ebp),%eax
c000b83e:	01 d0                	add    %edx,%eax
c000b840:	0f b6 00             	movzbl (%eax),%eax
c000b843:	0f b6 d0             	movzbl %al,%edx
c000b846:	8b 45 f0             	mov    -0x10(%ebp),%eax
c000b849:	89 c1                	mov    %eax,%ecx
c000b84b:	d3 fa                	sar    %cl,%edx
c000b84d:	89 d0                	mov    %edx,%eax
c000b84f:	83 e0 01             	and    $0x1,%eax
c000b852:	85 c0                	test   %eax,%eax
c000b854:	74 76                	je     c000b8cc <copy_body_stack3+0xfa>
c000b856:	8b 45 f4             	mov    -0xc(%ebp),%eax
c000b859:	8d 14 c5 00 00 00 00 	lea    0x0(,%eax,8),%edx
c000b860:	8b 45 f0             	mov    -0x10(%ebp),%eax
c000b863:	01 d0                	add    %edx,%eax
c000b865:	c1 e0 0c             	shl    $0xc,%eax
c000b868:	89 c2                	mov    %eax,%edx
c000b86a:	8b 45 e4             	mov    -0x1c(%ebp),%eax
c000b86d:	01 d0                	add    %edx,%eax
c000b86f:	89 45 e0             	mov    %eax,-0x20(%ebp)
c000b872:	8b 45 e0             	mov    -0x20(%ebp),%eax
c000b875:	83 ec 04             	sub    $0x4,%esp
c000b878:	68 00 10 00 00       	push   $0x1000
c000b87d:	50                   	push   %eax
c000b87e:	ff 75 10             	pushl  0x10(%ebp)
c000b881:	e8 4a 75 ff ff       	call   c0002dd0 <memcpy>
c000b886:	83 c4 10             	add    $0x10,%esp
c000b889:	83 ec 0c             	sub    $0xc,%esp
c000b88c:	ff 75 08             	pushl  0x8(%ebp)
c000b88f:	e8 78 a0 ff ff       	call   c000590c <page_dir_activate>
c000b894:	83 c4 10             	add    $0x10,%esp
c000b897:	83 ec 08             	sub    $0x8,%esp
c000b89a:	ff 75 e0             	pushl  -0x20(%ebp)
c000b89d:	6a 02                	push   $0x2
c000b89f:	e8 34 7f ff ff       	call   c00037d8 <get_a_page_without_opvaddrbitmap>
c000b8a4:	83 c4 10             	add    $0x10,%esp
c000b8a7:	8b 45 e0             	mov    -0x20(%ebp),%eax
c000b8aa:	83 ec 04             	sub    $0x4,%esp
c000b8ad:	68 00 10 00 00       	push   $0x1000
c000b8b2:	ff 75 10             	pushl  0x10(%ebp)
c000b8b5:	50                   	push   %eax
c000b8b6:	e8 15 75 ff ff       	call   c0002dd0 <memcpy>
c000b8bb:	83 c4 10             	add    $0x10,%esp
c000b8be:	83 ec 0c             	sub    $0xc,%esp
c000b8c1:	ff 75 0c             	pushl  0xc(%ebp)
c000b8c4:	e8 43 a0 ff ff       	call   c000590c <page_dir_activate>
c000b8c9:	83 c4 10             	add    $0x10,%esp
c000b8cc:	83 45 f0 01          	addl   $0x1,-0x10(%ebp)
c000b8d0:	83 7d f0 07          	cmpl   $0x7,-0x10(%ebp)
c000b8d4:	0f 86 5e ff ff ff    	jbe    c000b838 <copy_body_stack3+0x66>
c000b8da:	83 45 f4 01          	addl   $0x1,-0xc(%ebp)
c000b8de:	8b 45 f4             	mov    -0xc(%ebp),%eax
c000b8e1:	3b 45 e8             	cmp    -0x18(%ebp),%eax
c000b8e4:	0f 82 2f ff ff ff    	jb     c000b819 <copy_body_stack3+0x47>
c000b8ea:	90                   	nop
c000b8eb:	8b 5d fc             	mov    -0x4(%ebp),%ebx
c000b8ee:	c9                   	leave  
c000b8ef:	c3                   	ret    

c000b8f0 <build_child_stack>:
c000b8f0:	55                   	push   %ebp
c000b8f1:	89 e5                	mov    %esp,%ebp
c000b8f3:	83 ec 20             	sub    $0x20,%esp
c000b8f6:	e8 dd 66 ff ff       	call   c0001fd8 <__x86.get_pc_thunk.ax>
c000b8fb:	05 05 67 00 00       	add    $0x6705,%eax
c000b900:	8b 55 08             	mov    0x8(%ebp),%edx
c000b903:	81 c2 b4 0f 00 00    	add    $0xfb4,%edx
c000b909:	89 55 fc             	mov    %edx,-0x4(%ebp)
c000b90c:	8b 55 fc             	mov    -0x4(%ebp),%edx
c000b90f:	c7 42 20 00 00 00 00 	movl   $0x0,0x20(%edx)
c000b916:	8b 55 fc             	mov    -0x4(%ebp),%edx
c000b919:	83 ea 04             	sub    $0x4,%edx
c000b91c:	89 55 f8             	mov    %edx,-0x8(%ebp)
c000b91f:	8b 55 fc             	mov    -0x4(%ebp),%edx
c000b922:	83 ea 08             	sub    $0x8,%edx
c000b925:	89 55 f4             	mov    %edx,-0xc(%ebp)
c000b928:	8b 55 fc             	mov    -0x4(%ebp),%edx
c000b92b:	83 ea 0c             	sub    $0xc,%edx
c000b92e:	89 55 f0             	mov    %edx,-0x10(%ebp)
c000b931:	8b 55 fc             	mov    -0x4(%ebp),%edx
c000b934:	83 ea 10             	sub    $0x10,%edx
c000b937:	89 55 ec             	mov    %edx,-0x14(%ebp)
c000b93a:	8b 55 fc             	mov    -0x4(%ebp),%edx
c000b93d:	83 ea 14             	sub    $0x14,%edx
c000b940:	89 55 e8             	mov    %edx,-0x18(%ebp)
c000b943:	c7 c0 e0 21 00 c0    	mov    $0xc00021e0,%eax
c000b949:	89 c2                	mov    %eax,%edx
c000b94b:	8b 45 f8             	mov    -0x8(%ebp),%eax
c000b94e:	89 10                	mov    %edx,(%eax)
c000b950:	8b 45 f4             	mov    -0xc(%ebp),%eax
c000b953:	c7 00 00 00 00 00    	movl   $0x0,(%eax)
c000b959:	8b 45 f4             	mov    -0xc(%ebp),%eax
c000b95c:	8b 10                	mov    (%eax),%edx
c000b95e:	8b 45 f0             	mov    -0x10(%ebp),%eax
c000b961:	89 10                	mov    %edx,(%eax)
c000b963:	8b 45 f0             	mov    -0x10(%ebp),%eax
c000b966:	8b 10                	mov    (%eax),%edx
c000b968:	8b 45 ec             	mov    -0x14(%ebp),%eax
c000b96b:	89 10                	mov    %edx,(%eax)
c000b96d:	8b 45 ec             	mov    -0x14(%ebp),%eax
c000b970:	8b 10                	mov    (%eax),%edx
c000b972:	8b 45 e8             	mov    -0x18(%ebp),%eax
c000b975:	89 10                	mov    %edx,(%eax)
c000b977:	8b 45 08             	mov    0x8(%ebp),%eax
c000b97a:	8b 55 e8             	mov    -0x18(%ebp),%edx
c000b97d:	89 10                	mov    %edx,(%eax)
c000b97f:	b8 00 00 00 00       	mov    $0x0,%eax
c000b984:	c9                   	leave  
c000b985:	c3                   	ret    

c000b986 <update_inode_open_cnts>:
c000b986:	55                   	push   %ebp
c000b987:	89 e5                	mov    %esp,%ebp
c000b989:	53                   	push   %ebx
c000b98a:	83 ec 10             	sub    $0x10,%esp
c000b98d:	e8 aa 01 00 00       	call   c000bb3c <__x86.get_pc_thunk.cx>
c000b992:	81 c1 6e 66 00 00    	add    $0x666e,%ecx
c000b998:	c7 45 f8 03 00 00 00 	movl   $0x3,-0x8(%ebp)
c000b99f:	c7 45 f4 00 00 00 00 	movl   $0x0,-0xc(%ebp)
c000b9a6:	eb 3c                	jmp    c000b9e4 <update_inode_open_cnts+0x5e>
c000b9a8:	8b 45 08             	mov    0x8(%ebp),%eax
c000b9ab:	8b 55 f8             	mov    -0x8(%ebp),%edx
c000b9ae:	83 c2 08             	add    $0x8,%edx
c000b9b1:	8b 44 90 04          	mov    0x4(%eax,%edx,4),%eax
c000b9b5:	89 45 f4             	mov    %eax,-0xc(%ebp)
c000b9b8:	83 7d f4 ff          	cmpl   $0xffffffff,-0xc(%ebp)
c000b9bc:	74 22                	je     c000b9e0 <update_inode_open_cnts+0x5a>
c000b9be:	c7 c3 40 42 01 c0    	mov    $0xc0014240,%ebx
c000b9c4:	8b 55 f4             	mov    -0xc(%ebp),%edx
c000b9c7:	89 d0                	mov    %edx,%eax
c000b9c9:	01 c0                	add    %eax,%eax
c000b9cb:	01 d0                	add    %edx,%eax
c000b9cd:	c1 e0 02             	shl    $0x2,%eax
c000b9d0:	01 d8                	add    %ebx,%eax
c000b9d2:	83 c0 08             	add    $0x8,%eax
c000b9d5:	8b 00                	mov    (%eax),%eax
c000b9d7:	8b 50 08             	mov    0x8(%eax),%edx
c000b9da:	83 c2 01             	add    $0x1,%edx
c000b9dd:	89 50 08             	mov    %edx,0x8(%eax)
c000b9e0:	83 45 f8 01          	addl   $0x1,-0x8(%ebp)
c000b9e4:	83 7d f8 07          	cmpl   $0x7,-0x8(%ebp)
c000b9e8:	7e be                	jle    c000b9a8 <update_inode_open_cnts+0x22>
c000b9ea:	90                   	nop
c000b9eb:	83 c4 10             	add    $0x10,%esp
c000b9ee:	5b                   	pop    %ebx
c000b9ef:	5d                   	pop    %ebp
c000b9f0:	c3                   	ret    

c000b9f1 <copy_process>:
c000b9f1:	55                   	push   %ebp
c000b9f2:	89 e5                	mov    %esp,%ebp
c000b9f4:	53                   	push   %ebx
c000b9f5:	83 ec 14             	sub    $0x14,%esp
c000b9f8:	e8 f8 5f ff ff       	call   c00019f5 <__x86.get_pc_thunk.bx>
c000b9fd:	81 c3 03 66 00 00    	add    $0x6603,%ebx
c000ba03:	83 ec 0c             	sub    $0xc,%esp
c000ba06:	6a 01                	push   $0x1
c000ba08:	e8 ca 7b ff ff       	call   c00035d7 <get_kernel_pages>
c000ba0d:	83 c4 10             	add    $0x10,%esp
c000ba10:	89 45 f4             	mov    %eax,-0xc(%ebp)
c000ba13:	83 7d f4 00          	cmpl   $0x0,-0xc(%ebp)
c000ba17:	75 0a                	jne    c000ba23 <copy_process+0x32>
c000ba19:	b8 ff ff ff ff       	mov    $0xffffffff,%eax
c000ba1e:	e9 82 00 00 00       	jmp    c000baa5 <copy_process+0xb4>
c000ba23:	83 ec 08             	sub    $0x8,%esp
c000ba26:	ff 75 0c             	pushl  0xc(%ebp)
c000ba29:	ff 75 08             	pushl  0x8(%ebp)
c000ba2c:	e8 a5 fc ff ff       	call   c000b6d6 <copy_pcb_vaddrbitmap_stack0>
c000ba31:	83 c4 10             	add    $0x10,%esp
c000ba34:	83 f8 ff             	cmp    $0xffffffff,%eax
c000ba37:	75 07                	jne    c000ba40 <copy_process+0x4f>
c000ba39:	b8 ff ff ff ff       	mov    $0xffffffff,%eax
c000ba3e:	eb 65                	jmp    c000baa5 <copy_process+0xb4>
c000ba40:	e8 4a 9f ff ff       	call   c000598f <create_page_dir>
c000ba45:	89 c2                	mov    %eax,%edx
c000ba47:	8b 45 08             	mov    0x8(%ebp),%eax
c000ba4a:	89 50 54             	mov    %edx,0x54(%eax)
c000ba4d:	8b 45 08             	mov    0x8(%ebp),%eax
c000ba50:	8b 40 54             	mov    0x54(%eax),%eax
c000ba53:	85 c0                	test   %eax,%eax
c000ba55:	75 07                	jne    c000ba5e <copy_process+0x6d>
c000ba57:	b8 ff ff ff ff       	mov    $0xffffffff,%eax
c000ba5c:	eb 47                	jmp    c000baa5 <copy_process+0xb4>
c000ba5e:	83 ec 04             	sub    $0x4,%esp
c000ba61:	ff 75 f4             	pushl  -0xc(%ebp)
c000ba64:	ff 75 0c             	pushl  0xc(%ebp)
c000ba67:	ff 75 08             	pushl  0x8(%ebp)
c000ba6a:	e8 63 fd ff ff       	call   c000b7d2 <copy_body_stack3>
c000ba6f:	83 c4 10             	add    $0x10,%esp
c000ba72:	83 ec 0c             	sub    $0xc,%esp
c000ba75:	ff 75 08             	pushl  0x8(%ebp)
c000ba78:	e8 73 fe ff ff       	call   c000b8f0 <build_child_stack>
c000ba7d:	83 c4 10             	add    $0x10,%esp
c000ba80:	83 ec 0c             	sub    $0xc,%esp
c000ba83:	ff 75 08             	pushl  0x8(%ebp)
c000ba86:	e8 fb fe ff ff       	call   c000b986 <update_inode_open_cnts>
c000ba8b:	83 c4 10             	add    $0x10,%esp
c000ba8e:	83 ec 04             	sub    $0x4,%esp
c000ba91:	6a 01                	push   $0x1
c000ba93:	ff 75 f4             	pushl  -0xc(%ebp)
c000ba96:	6a 01                	push   $0x1
c000ba98:	e8 76 83 ff ff       	call   c0003e13 <mfree_page>
c000ba9d:	83 c4 10             	add    $0x10,%esp
c000baa0:	b8 00 00 00 00       	mov    $0x0,%eax
c000baa5:	8b 5d fc             	mov    -0x4(%ebp),%ebx
c000baa8:	c9                   	leave  
c000baa9:	c3                   	ret    

c000baaa <sys_fork>:
c000baaa:	55                   	push   %ebp
c000baab:	89 e5                	mov    %esp,%ebp
c000baad:	53                   	push   %ebx
c000baae:	83 ec 14             	sub    $0x14,%esp
c000bab1:	e8 3f 5f ff ff       	call   c00019f5 <__x86.get_pc_thunk.bx>
c000bab6:	81 c3 4a 65 00 00    	add    $0x654a,%ebx
c000babc:	e8 b2 88 ff ff       	call   c0004373 <running_thread>
c000bac1:	89 45 f4             	mov    %eax,-0xc(%ebp)
c000bac4:	83 ec 0c             	sub    $0xc,%esp
c000bac7:	6a 01                	push   $0x1
c000bac9:	e8 09 7b ff ff       	call   c00035d7 <get_kernel_pages>
c000bace:	83 c4 10             	add    $0x10,%esp
c000bad1:	89 45 f0             	mov    %eax,-0x10(%ebp)
c000bad4:	83 7d f0 00          	cmpl   $0x0,-0x10(%ebp)
c000bad8:	75 07                	jne    c000bae1 <sys_fork+0x37>
c000bada:	b8 ff ff ff ff       	mov    $0xffffffff,%eax
c000badf:	eb 56                	jmp    c000bb37 <sys_fork+0x8d>
c000bae1:	83 ec 08             	sub    $0x8,%esp
c000bae4:	ff 75 f4             	pushl  -0xc(%ebp)
c000bae7:	ff 75 f0             	pushl  -0x10(%ebp)
c000baea:	e8 02 ff ff ff       	call   c000b9f1 <copy_process>
c000baef:	83 c4 10             	add    $0x10,%esp
c000baf2:	83 f8 ff             	cmp    $0xffffffff,%eax
c000baf5:	75 07                	jne    c000bafe <sys_fork+0x54>
c000baf7:	b8 ff ff ff ff       	mov    $0xffffffff,%eax
c000bafc:	eb 39                	jmp    c000bb37 <sys_fork+0x8d>
c000bafe:	8b 45 f0             	mov    -0x10(%ebp),%eax
c000bb01:	83 c0 44             	add    $0x44,%eax
c000bb04:	83 ec 08             	sub    $0x8,%esp
c000bb07:	50                   	push   %eax
c000bb08:	c7 c0 cc 31 01 c0    	mov    $0xc00131cc,%eax
c000bb0e:	50                   	push   %eax
c000bb0f:	e8 85 6f ff ff       	call   c0002a99 <list_append>
c000bb14:	83 c4 10             	add    $0x10,%esp
c000bb17:	8b 45 f0             	mov    -0x10(%ebp),%eax
c000bb1a:	83 c0 4c             	add    $0x4c,%eax
c000bb1d:	83 ec 08             	sub    $0x8,%esp
c000bb20:	50                   	push   %eax
c000bb21:	c7 c0 dc 31 01 c0    	mov    $0xc00131dc,%eax
c000bb27:	50                   	push   %eax
c000bb28:	e8 6c 6f ff ff       	call   c0002a99 <list_append>
c000bb2d:	83 c4 10             	add    $0x10,%esp
c000bb30:	8b 45 f0             	mov    -0x10(%ebp),%eax
c000bb33:	0f b7 40 04          	movzwl 0x4(%eax),%eax
c000bb37:	8b 5d fc             	mov    -0x4(%ebp),%ebx
c000bb3a:	c9                   	leave  
c000bb3b:	c3                   	ret    

c000bb3c <__x86.get_pc_thunk.cx>:
c000bb3c:	8b 0c 24             	mov    (%esp),%ecx
c000bb3f:	c3                   	ret    

c000bb40 <print_prompt>:
c000bb40:	55                   	push   %ebp
c000bb41:	89 e5                	mov    %esp,%ebp
c000bb43:	53                   	push   %ebx
c000bb44:	83 ec 04             	sub    $0x4,%esp
c000bb47:	e8 8c 64 ff ff       	call   c0001fd8 <__x86.get_pc_thunk.ax>
c000bb4c:	05 b4 64 00 00       	add    $0x64b4,%eax
c000bb51:	83 ec 08             	sub    $0x8,%esp
c000bb54:	8d 90 40 06 00 00    	lea    0x640(%eax),%edx
c000bb5a:	52                   	push   %edx
c000bb5b:	8d 90 90 c2 ff ff    	lea    -0x3d70(%eax),%edx
c000bb61:	52                   	push   %edx
c000bb62:	89 c3                	mov    %eax,%ebx
c000bb64:	e8 50 a7 ff ff       	call   c00062b9 <printf>
c000bb69:	83 c4 10             	add    $0x10,%esp
c000bb6c:	90                   	nop
c000bb6d:	8b 5d fc             	mov    -0x4(%ebp),%ebx
c000bb70:	c9                   	leave  
c000bb71:	c3                   	ret    

c000bb72 <readline>:
c000bb72:	55                   	push   %ebp
c000bb73:	89 e5                	mov    %esp,%ebp
c000bb75:	53                   	push   %ebx
c000bb76:	83 ec 14             	sub    $0x14,%esp
c000bb79:	e8 77 5e ff ff       	call   c00019f5 <__x86.get_pc_thunk.bx>
c000bb7e:	81 c3 82 64 00 00    	add    $0x6482,%ebx
c000bb84:	8b 45 08             	mov    0x8(%ebp),%eax
c000bb87:	89 45 f4             	mov    %eax,-0xc(%ebp)
c000bb8a:	e9 bc 00 00 00       	jmp    c000bc4b <.L4+0x19>
c000bb8f:	8b 45 f4             	mov    -0xc(%ebp),%eax
c000bb92:	0f b6 00             	movzbl (%eax),%eax
c000bb95:	0f be c0             	movsbl %al,%eax
c000bb98:	83 e8 08             	sub    $0x8,%eax
c000bb9b:	83 f8 0c             	cmp    $0xc,%eax
c000bb9e:	0f 87 8e 00 00 00    	ja     c000bc32 <.L4>
c000bba4:	c1 e0 02             	shl    $0x2,%eax
c000bba7:	8b 84 18 f4 c2 ff ff 	mov    -0x3d0c(%eax,%ebx,1),%eax
c000bbae:	01 d8                	add    %ebx,%eax
c000bbb0:	ff e0                	jmp    *%eax

c000bbb2 <.L7>:
c000bbb2:	8b 45 f4             	mov    -0xc(%ebp),%eax
c000bbb5:	c6 00 00             	movb   $0x0,(%eax)
c000bbb8:	83 ec 0c             	sub    $0xc,%esp
c000bbbb:	6a 0a                	push   $0xa
c000bbbd:	e8 18 a2 ff ff       	call   c0005dda <putchar>
c000bbc2:	83 c4 10             	add    $0x10,%esp
c000bbc5:	e9 bd 00 00 00       	jmp    c000bc87 <.L4+0x55>

c000bbca <.L5>:
c000bbca:	0f b6 83 40 0a 00 00 	movzbl 0xa40(%ebx),%eax
c000bbd1:	3c 08                	cmp    $0x8,%al
c000bbd3:	74 76                	je     c000bc4b <.L4+0x19>
c000bbd5:	83 6d f4 01          	subl   $0x1,-0xc(%ebp)
c000bbd9:	83 ec 0c             	sub    $0xc,%esp
c000bbdc:	6a 08                	push   $0x8
c000bbde:	e8 f7 a1 ff ff       	call   c0005dda <putchar>
c000bbe3:	83 c4 10             	add    $0x10,%esp
c000bbe6:	eb 63                	jmp    c000bc4b <.L4+0x19>

c000bbe8 <.L8>:
c000bbe8:	8b 45 f4             	mov    -0xc(%ebp),%eax
c000bbeb:	c6 00 00             	movb   $0x0,(%eax)
c000bbee:	e8 15 a2 ff ff       	call   c0005e08 <clear>
c000bbf3:	e8 48 ff ff ff       	call   c000bb40 <print_prompt>
c000bbf8:	83 ec 08             	sub    $0x8,%esp
c000bbfb:	ff 75 08             	pushl  0x8(%ebp)
c000bbfe:	8d 83 a8 c2 ff ff    	lea    -0x3d58(%ebx),%eax
c000bc04:	50                   	push   %eax
c000bc05:	e8 af a6 ff ff       	call   c00062b9 <printf>
c000bc0a:	83 c4 10             	add    $0x10,%esp
c000bc0d:	eb 3c                	jmp    c000bc4b <.L4+0x19>
c000bc0f:	83 ec 0c             	sub    $0xc,%esp
c000bc12:	6a 08                	push   $0x8
c000bc14:	e8 c1 a1 ff ff       	call   c0005dda <putchar>
c000bc19:	83 c4 10             	add    $0x10,%esp
c000bc1c:	8b 45 f4             	mov    -0xc(%ebp),%eax
c000bc1f:	8d 50 ff             	lea    -0x1(%eax),%edx
c000bc22:	89 55 f4             	mov    %edx,-0xc(%ebp)
c000bc25:	c6 00 00             	movb   $0x0,(%eax)

c000bc28 <.L12>:
c000bc28:	8b 45 08             	mov    0x8(%ebp),%eax
c000bc2b:	3b 45 f4             	cmp    -0xc(%ebp),%eax
c000bc2e:	75 df                	jne    c000bc0f <.L8+0x27>
c000bc30:	eb 19                	jmp    c000bc4b <.L4+0x19>

c000bc32 <.L4>:
c000bc32:	8b 45 f4             	mov    -0xc(%ebp),%eax
c000bc35:	0f b6 00             	movzbl (%eax),%eax
c000bc38:	0f be c0             	movsbl %al,%eax
c000bc3b:	83 ec 0c             	sub    $0xc,%esp
c000bc3e:	50                   	push   %eax
c000bc3f:	e8 96 a1 ff ff       	call   c0005dda <putchar>
c000bc44:	83 c4 10             	add    $0x10,%esp
c000bc47:	83 45 f4 01          	addl   $0x1,-0xc(%ebp)
c000bc4b:	83 ec 04             	sub    $0x4,%esp
c000bc4e:	6a 01                	push   $0x1
c000bc50:	ff 75 f4             	pushl  -0xc(%ebp)
c000bc53:	6a 00                	push   $0x0
c000bc55:	e8 53 a1 ff ff       	call   c0005dad <read>
c000bc5a:	83 c4 10             	add    $0x10,%esp
c000bc5d:	83 f8 ff             	cmp    $0xffffffff,%eax
c000bc60:	74 13                	je     c000bc75 <.L4+0x43>
c000bc62:	8b 55 f4             	mov    -0xc(%ebp),%edx
c000bc65:	8b 45 08             	mov    0x8(%ebp),%eax
c000bc68:	29 c2                	sub    %eax,%edx
c000bc6a:	89 d0                	mov    %edx,%eax
c000bc6c:	39 45 0c             	cmp    %eax,0xc(%ebp)
c000bc6f:	0f 8f 1a ff ff ff    	jg     c000bb8f <readline+0x1d>
c000bc75:	83 ec 0c             	sub    $0xc,%esp
c000bc78:	8d 83 ac c2 ff ff    	lea    -0x3d54(%ebx),%eax
c000bc7e:	50                   	push   %eax
c000bc7f:	e8 35 a6 ff ff       	call   c00062b9 <printf>
c000bc84:	83 c4 10             	add    $0x10,%esp
c000bc87:	8b 5d fc             	mov    -0x4(%ebp),%ebx
c000bc8a:	c9                   	leave  
c000bc8b:	c3                   	ret    

c000bc8c <cmd_parse>:
c000bc8c:	55                   	push   %ebp
c000bc8d:	89 e5                	mov    %esp,%ebp
c000bc8f:	83 ec 14             	sub    $0x14,%esp
c000bc92:	e8 41 63 ff ff       	call   c0001fd8 <__x86.get_pc_thunk.ax>
c000bc97:	05 69 63 00 00       	add    $0x6369,%eax
c000bc9c:	8b 45 10             	mov    0x10(%ebp),%eax
c000bc9f:	88 45 ec             	mov    %al,-0x14(%ebp)
c000bca2:	c7 45 fc 00 00 00 00 	movl   $0x0,-0x4(%ebp)
c000bca9:	eb 19                	jmp    c000bcc4 <cmd_parse+0x38>
c000bcab:	8b 45 fc             	mov    -0x4(%ebp),%eax
c000bcae:	8d 14 85 00 00 00 00 	lea    0x0(,%eax,4),%edx
c000bcb5:	8b 45 0c             	mov    0xc(%ebp),%eax
c000bcb8:	01 d0                	add    %edx,%eax
c000bcba:	c7 00 00 00 00 00    	movl   $0x0,(%eax)
c000bcc0:	83 45 fc 01          	addl   $0x1,-0x4(%ebp)
c000bcc4:	83 7d fc 0f          	cmpl   $0xf,-0x4(%ebp)
c000bcc8:	7e e1                	jle    c000bcab <cmd_parse+0x1f>
c000bcca:	8b 45 08             	mov    0x8(%ebp),%eax
c000bccd:	89 45 f8             	mov    %eax,-0x8(%ebp)
c000bcd0:	c7 45 f4 00 00 00 00 	movl   $0x0,-0xc(%ebp)
c000bcd7:	eb 6f                	jmp    c000bd48 <cmd_parse+0xbc>
c000bcd9:	83 45 f8 01          	addl   $0x1,-0x8(%ebp)
c000bcdd:	8b 45 f8             	mov    -0x8(%ebp),%eax
c000bce0:	0f b6 00             	movzbl (%eax),%eax
c000bce3:	38 45 ec             	cmp    %al,-0x14(%ebp)
c000bce6:	74 f1                	je     c000bcd9 <cmd_parse+0x4d>
c000bce8:	8b 45 f8             	mov    -0x8(%ebp),%eax
c000bceb:	0f b6 00             	movzbl (%eax),%eax
c000bcee:	84 c0                	test   %al,%al
c000bcf0:	74 62                	je     c000bd54 <cmd_parse+0xc8>
c000bcf2:	8b 45 f4             	mov    -0xc(%ebp),%eax
c000bcf5:	8d 14 85 00 00 00 00 	lea    0x0(,%eax,4),%edx
c000bcfc:	8b 45 0c             	mov    0xc(%ebp),%eax
c000bcff:	01 c2                	add    %eax,%edx
c000bd01:	8b 45 f8             	mov    -0x8(%ebp),%eax
c000bd04:	89 02                	mov    %eax,(%edx)
c000bd06:	eb 04                	jmp    c000bd0c <cmd_parse+0x80>
c000bd08:	83 45 f8 01          	addl   $0x1,-0x8(%ebp)
c000bd0c:	8b 45 f8             	mov    -0x8(%ebp),%eax
c000bd0f:	0f b6 00             	movzbl (%eax),%eax
c000bd12:	84 c0                	test   %al,%al
c000bd14:	74 0b                	je     c000bd21 <cmd_parse+0x95>
c000bd16:	8b 45 f8             	mov    -0x8(%ebp),%eax
c000bd19:	0f b6 00             	movzbl (%eax),%eax
c000bd1c:	38 45 ec             	cmp    %al,-0x14(%ebp)
c000bd1f:	75 e7                	jne    c000bd08 <cmd_parse+0x7c>
c000bd21:	8b 45 f8             	mov    -0x8(%ebp),%eax
c000bd24:	0f b6 00             	movzbl (%eax),%eax
c000bd27:	84 c0                	test   %al,%al
c000bd29:	74 0c                	je     c000bd37 <cmd_parse+0xab>
c000bd2b:	8b 45 f8             	mov    -0x8(%ebp),%eax
c000bd2e:	8d 50 01             	lea    0x1(%eax),%edx
c000bd31:	89 55 f8             	mov    %edx,-0x8(%ebp)
c000bd34:	c6 00 00             	movb   $0x0,(%eax)
c000bd37:	83 7d f4 10          	cmpl   $0x10,-0xc(%ebp)
c000bd3b:	7e 07                	jle    c000bd44 <cmd_parse+0xb8>
c000bd3d:	b8 ff ff ff ff       	mov    $0xffffffff,%eax
c000bd42:	eb 14                	jmp    c000bd58 <cmd_parse+0xcc>
c000bd44:	83 45 f4 01          	addl   $0x1,-0xc(%ebp)
c000bd48:	8b 45 f8             	mov    -0x8(%ebp),%eax
c000bd4b:	0f b6 00             	movzbl (%eax),%eax
c000bd4e:	84 c0                	test   %al,%al
c000bd50:	75 8b                	jne    c000bcdd <cmd_parse+0x51>
c000bd52:	eb 01                	jmp    c000bd55 <cmd_parse+0xc9>
c000bd54:	90                   	nop
c000bd55:	8b 45 f4             	mov    -0xc(%ebp),%eax
c000bd58:	c9                   	leave  
c000bd59:	c3                   	ret    

c000bd5a <my_shell>:
c000bd5a:	55                   	push   %ebp
c000bd5b:	89 e5                	mov    %esp,%ebp
c000bd5d:	53                   	push   %ebx
c000bd5e:	83 ec 24             	sub    $0x24,%esp
c000bd61:	e8 8f 5c ff ff       	call   c00019f5 <__x86.get_pc_thunk.bx>
c000bd66:	81 c3 9a 62 00 00    	add    $0x629a,%ebx
c000bd6c:	c6 83 40 06 00 00 2f 	movb   $0x2f,0x640(%ebx)
c000bd73:	e8 c8 fd ff ff       	call   c000bb40 <print_prompt>
c000bd78:	83 ec 04             	sub    $0x4,%esp
c000bd7b:	68 00 02 00 00       	push   $0x200
c000bd80:	6a 00                	push   $0x0
c000bd82:	8d 83 40 08 00 00    	lea    0x840(%ebx),%eax
c000bd88:	50                   	push   %eax
c000bd89:	e8 07 70 ff ff       	call   c0002d95 <memset>
c000bd8e:	83 c4 10             	add    $0x10,%esp
c000bd91:	83 ec 04             	sub    $0x4,%esp
c000bd94:	68 00 02 00 00       	push   $0x200
c000bd99:	6a 00                	push   $0x0
c000bd9b:	8d 83 40 0a 00 00    	lea    0xa40(%ebx),%eax
c000bda1:	50                   	push   %eax
c000bda2:	e8 ee 6f ff ff       	call   c0002d95 <memset>
c000bda7:	83 c4 10             	add    $0x10,%esp
c000bdaa:	83 ec 08             	sub    $0x8,%esp
c000bdad:	68 00 02 00 00       	push   $0x200
c000bdb2:	8d 83 40 0a 00 00    	lea    0xa40(%ebx),%eax
c000bdb8:	50                   	push   %eax
c000bdb9:	e8 b4 fd ff ff       	call   c000bb72 <readline>
c000bdbe:	83 c4 10             	add    $0x10,%esp
c000bdc1:	0f b6 83 40 0a 00 00 	movzbl 0xa40(%ebx),%eax
c000bdc8:	84 c0                	test   %al,%al
c000bdca:	0f 84 4d 03 00 00    	je     c000c11d <my_shell+0x3c3>
c000bdd0:	c7 83 78 01 00 00 ff 	movl   $0xffffffff,0x178(%ebx)
c000bdd7:	ff ff ff 
c000bdda:	83 ec 04             	sub    $0x4,%esp
c000bddd:	6a 20                	push   $0x20
c000bddf:	c7 c0 c0 43 01 c0    	mov    $0xc00143c0,%eax
c000bde5:	50                   	push   %eax
c000bde6:	8d 83 40 0a 00 00    	lea    0xa40(%ebx),%eax
c000bdec:	50                   	push   %eax
c000bded:	e8 9a fe ff ff       	call   c000bc8c <cmd_parse>
c000bdf2:	83 c4 10             	add    $0x10,%esp
c000bdf5:	89 83 78 01 00 00    	mov    %eax,0x178(%ebx)
c000bdfb:	8b 83 78 01 00 00    	mov    0x178(%ebx),%eax
c000be01:	83 f8 ff             	cmp    $0xffffffff,%eax
c000be04:	75 19                	jne    c000be1f <my_shell+0xc5>
c000be06:	83 ec 08             	sub    $0x8,%esp
c000be09:	6a 10                	push   $0x10
c000be0b:	8d 83 28 c3 ff ff    	lea    -0x3cd8(%ebx),%eax
c000be11:	50                   	push   %eax
c000be12:	e8 a2 a4 ff ff       	call   c00062b9 <printf>
c000be17:	83 c4 10             	add    $0x10,%esp
c000be1a:	e9 ff 02 00 00       	jmp    c000c11e <my_shell+0x3c4>
c000be1f:	c7 c0 c0 43 01 c0    	mov    $0xc00143c0,%eax
c000be25:	8b 00                	mov    (%eax),%eax
c000be27:	83 ec 08             	sub    $0x8,%esp
c000be2a:	50                   	push   %eax
c000be2b:	8d 83 44 c3 ff ff    	lea    -0x3cbc(%ebx),%eax
c000be31:	50                   	push   %eax
c000be32:	e8 b6 70 ff ff       	call   c0002eed <strcmp>
c000be37:	83 c4 10             	add    $0x10,%esp
c000be3a:	84 c0                	test   %al,%al
c000be3c:	75 20                	jne    c000be5e <my_shell+0x104>
c000be3e:	8b 83 78 01 00 00    	mov    0x178(%ebx),%eax
c000be44:	89 c2                	mov    %eax,%edx
c000be46:	83 ec 08             	sub    $0x8,%esp
c000be49:	c7 c0 c0 43 01 c0    	mov    $0xc00143c0,%eax
c000be4f:	50                   	push   %eax
c000be50:	52                   	push   %edx
c000be51:	e8 1e 06 00 00       	call   c000c474 <buildin_ls>
c000be56:	83 c4 10             	add    $0x10,%esp
c000be59:	e9 97 02 00 00       	jmp    c000c0f5 <my_shell+0x39b>
c000be5e:	c7 c0 c0 43 01 c0    	mov    $0xc00143c0,%eax
c000be64:	8b 00                	mov    (%eax),%eax
c000be66:	83 ec 08             	sub    $0x8,%esp
c000be69:	50                   	push   %eax
c000be6a:	8d 83 47 c3 ff ff    	lea    -0x3cb9(%ebx),%eax
c000be70:	50                   	push   %eax
c000be71:	e8 77 70 ff ff       	call   c0002eed <strcmp>
c000be76:	83 c4 10             	add    $0x10,%esp
c000be79:	84 c0                	test   %al,%al
c000be7b:	75 5a                	jne    c000bed7 <my_shell+0x17d>
c000be7d:	8b 83 78 01 00 00    	mov    0x178(%ebx),%eax
c000be83:	89 c2                	mov    %eax,%edx
c000be85:	83 ec 08             	sub    $0x8,%esp
c000be88:	c7 c0 c0 43 01 c0    	mov    $0xc00143c0,%eax
c000be8e:	50                   	push   %eax
c000be8f:	52                   	push   %edx
c000be90:	e8 36 05 00 00       	call   c000c3cb <buildin_cd>
c000be95:	83 c4 10             	add    $0x10,%esp
c000be98:	85 c0                	test   %eax,%eax
c000be9a:	0f 84 55 02 00 00    	je     c000c0f5 <my_shell+0x39b>
c000bea0:	83 ec 04             	sub    $0x4,%esp
c000bea3:	68 00 02 00 00       	push   $0x200
c000bea8:	6a 00                	push   $0x0
c000beaa:	8d 83 40 06 00 00    	lea    0x640(%ebx),%eax
c000beb0:	50                   	push   %eax
c000beb1:	e8 df 6e ff ff       	call   c0002d95 <memset>
c000beb6:	83 c4 10             	add    $0x10,%esp
c000beb9:	83 ec 08             	sub    $0x8,%esp
c000bebc:	8d 83 40 08 00 00    	lea    0x840(%ebx),%eax
c000bec2:	50                   	push   %eax
c000bec3:	8d 83 40 06 00 00    	lea    0x640(%ebx),%eax
c000bec9:	50                   	push   %eax
c000beca:	e8 ae 6f ff ff       	call   c0002e7d <strcpy>
c000becf:	83 c4 10             	add    $0x10,%esp
c000bed2:	e9 1e 02 00 00       	jmp    c000c0f5 <my_shell+0x39b>
c000bed7:	c7 c0 c0 43 01 c0    	mov    $0xc00143c0,%eax
c000bedd:	8b 00                	mov    (%eax),%eax
c000bedf:	83 ec 08             	sub    $0x8,%esp
c000bee2:	50                   	push   %eax
c000bee3:	8d 83 4a c3 ff ff    	lea    -0x3cb6(%ebx),%eax
c000bee9:	50                   	push   %eax
c000beea:	e8 fe 6f ff ff       	call   c0002eed <strcmp>
c000beef:	83 c4 10             	add    $0x10,%esp
c000bef2:	84 c0                	test   %al,%al
c000bef4:	75 20                	jne    c000bf16 <my_shell+0x1bc>
c000bef6:	8b 83 78 01 00 00    	mov    0x178(%ebx),%eax
c000befc:	89 c2                	mov    %eax,%edx
c000befe:	83 ec 08             	sub    $0x8,%esp
c000bf01:	c7 c0 c0 43 01 c0    	mov    $0xc00143c0,%eax
c000bf07:	50                   	push   %eax
c000bf08:	52                   	push   %edx
c000bf09:	e8 44 04 00 00       	call   c000c352 <buildin_pwd>
c000bf0e:	83 c4 10             	add    $0x10,%esp
c000bf11:	e9 df 01 00 00       	jmp    c000c0f5 <my_shell+0x39b>
c000bf16:	c7 c0 c0 43 01 c0    	mov    $0xc00143c0,%eax
c000bf1c:	8b 00                	mov    (%eax),%eax
c000bf1e:	83 ec 08             	sub    $0x8,%esp
c000bf21:	50                   	push   %eax
c000bf22:	8d 83 4e c3 ff ff    	lea    -0x3cb2(%ebx),%eax
c000bf28:	50                   	push   %eax
c000bf29:	e8 bf 6f ff ff       	call   c0002eed <strcmp>
c000bf2e:	83 c4 10             	add    $0x10,%esp
c000bf31:	84 c0                	test   %al,%al
c000bf33:	75 20                	jne    c000bf55 <my_shell+0x1fb>
c000bf35:	8b 83 78 01 00 00    	mov    0x178(%ebx),%eax
c000bf3b:	89 c2                	mov    %eax,%edx
c000bf3d:	83 ec 08             	sub    $0x8,%esp
c000bf40:	c7 c0 c0 43 01 c0    	mov    $0xc00143c0,%eax
c000bf46:	50                   	push   %eax
c000bf47:	52                   	push   %edx
c000bf48:	e8 19 09 00 00       	call   c000c866 <buildin_ps>
c000bf4d:	83 c4 10             	add    $0x10,%esp
c000bf50:	e9 a0 01 00 00       	jmp    c000c0f5 <my_shell+0x39b>
c000bf55:	c7 c0 c0 43 01 c0    	mov    $0xc00143c0,%eax
c000bf5b:	8b 00                	mov    (%eax),%eax
c000bf5d:	83 ec 08             	sub    $0x8,%esp
c000bf60:	50                   	push   %eax
c000bf61:	8d 83 51 c3 ff ff    	lea    -0x3caf(%ebx),%eax
c000bf67:	50                   	push   %eax
c000bf68:	e8 80 6f ff ff       	call   c0002eed <strcmp>
c000bf6d:	83 c4 10             	add    $0x10,%esp
c000bf70:	84 c0                	test   %al,%al
c000bf72:	75 20                	jne    c000bf94 <my_shell+0x23a>
c000bf74:	8b 83 78 01 00 00    	mov    0x178(%ebx),%eax
c000bf7a:	89 c2                	mov    %eax,%edx
c000bf7c:	83 ec 08             	sub    $0x8,%esp
c000bf7f:	c7 c0 c0 43 01 c0    	mov    $0xc00143c0,%eax
c000bf85:	50                   	push   %eax
c000bf86:	52                   	push   %edx
c000bf87:	e8 13 09 00 00       	call   c000c89f <buildin_clear>
c000bf8c:	83 c4 10             	add    $0x10,%esp
c000bf8f:	e9 61 01 00 00       	jmp    c000c0f5 <my_shell+0x39b>
c000bf94:	c7 c0 c0 43 01 c0    	mov    $0xc00143c0,%eax
c000bf9a:	8b 00                	mov    (%eax),%eax
c000bf9c:	83 ec 08             	sub    $0x8,%esp
c000bf9f:	50                   	push   %eax
c000bfa0:	8d 83 57 c3 ff ff    	lea    -0x3ca9(%ebx),%eax
c000bfa6:	50                   	push   %eax
c000bfa7:	e8 41 6f ff ff       	call   c0002eed <strcmp>
c000bfac:	83 c4 10             	add    $0x10,%esp
c000bfaf:	84 c0                	test   %al,%al
c000bfb1:	75 20                	jne    c000bfd3 <my_shell+0x279>
c000bfb3:	8b 83 78 01 00 00    	mov    0x178(%ebx),%eax
c000bfb9:	89 c2                	mov    %eax,%edx
c000bfbb:	83 ec 08             	sub    $0x8,%esp
c000bfbe:	c7 c0 c0 43 01 c0    	mov    $0xc00143c0,%eax
c000bfc4:	50                   	push   %eax
c000bfc5:	52                   	push   %edx
c000bfc6:	e8 0d 09 00 00       	call   c000c8d8 <buildin_mkdir>
c000bfcb:	83 c4 10             	add    $0x10,%esp
c000bfce:	e9 22 01 00 00       	jmp    c000c0f5 <my_shell+0x39b>
c000bfd3:	c7 c0 c0 43 01 c0    	mov    $0xc00143c0,%eax
c000bfd9:	8b 00                	mov    (%eax),%eax
c000bfdb:	83 ec 08             	sub    $0x8,%esp
c000bfde:	50                   	push   %eax
c000bfdf:	8d 83 5d c3 ff ff    	lea    -0x3ca3(%ebx),%eax
c000bfe5:	50                   	push   %eax
c000bfe6:	e8 02 6f ff ff       	call   c0002eed <strcmp>
c000bfeb:	83 c4 10             	add    $0x10,%esp
c000bfee:	84 c0                	test   %al,%al
c000bff0:	75 20                	jne    c000c012 <my_shell+0x2b8>
c000bff2:	8b 83 78 01 00 00    	mov    0x178(%ebx),%eax
c000bff8:	89 c2                	mov    %eax,%edx
c000bffa:	83 ec 08             	sub    $0x8,%esp
c000bffd:	c7 c0 c0 43 01 c0    	mov    $0xc00143c0,%eax
c000c003:	50                   	push   %eax
c000c004:	52                   	push   %edx
c000c005:	e8 7b 09 00 00       	call   c000c985 <buildin_rmdir>
c000c00a:	83 c4 10             	add    $0x10,%esp
c000c00d:	e9 e3 00 00 00       	jmp    c000c0f5 <my_shell+0x39b>
c000c012:	c7 c0 c0 43 01 c0    	mov    $0xc00143c0,%eax
c000c018:	8b 00                	mov    (%eax),%eax
c000c01a:	83 ec 08             	sub    $0x8,%esp
c000c01d:	50                   	push   %eax
c000c01e:	8d 83 63 c3 ff ff    	lea    -0x3c9d(%ebx),%eax
c000c024:	50                   	push   %eax
c000c025:	e8 c3 6e ff ff       	call   c0002eed <strcmp>
c000c02a:	83 c4 10             	add    $0x10,%esp
c000c02d:	84 c0                	test   %al,%al
c000c02f:	75 20                	jne    c000c051 <my_shell+0x2f7>
c000c031:	8b 83 78 01 00 00    	mov    0x178(%ebx),%eax
c000c037:	89 c2                	mov    %eax,%edx
c000c039:	83 ec 08             	sub    $0x8,%esp
c000c03c:	c7 c0 c0 43 01 c0    	mov    $0xc00143c0,%eax
c000c042:	50                   	push   %eax
c000c043:	52                   	push   %edx
c000c044:	e8 e9 09 00 00       	call   c000ca32 <buildin_rm>
c000c049:	83 c4 10             	add    $0x10,%esp
c000c04c:	e9 a4 00 00 00       	jmp    c000c0f5 <my_shell+0x39b>
c000c051:	e8 38 9d ff ff       	call   c0005d8e <fork>
c000c056:	98                   	cwtl   
c000c057:	89 45 f0             	mov    %eax,-0x10(%ebp)
c000c05a:	83 7d f0 00          	cmpl   $0x0,-0x10(%ebp)
c000c05e:	74 02                	je     c000c062 <my_shell+0x308>
c000c060:	eb fe                	jmp    c000c060 <my_shell+0x306>
c000c062:	c7 c0 c0 43 01 c0    	mov    $0xc00143c0,%eax
c000c068:	8b 00                	mov    (%eax),%eax
c000c06a:	83 ec 08             	sub    $0x8,%esp
c000c06d:	8d 93 40 08 00 00    	lea    0x840(%ebx),%edx
c000c073:	52                   	push   %edx
c000c074:	50                   	push   %eax
c000c075:	e8 0f 02 00 00       	call   c000c289 <make_clear_abs_path>
c000c07a:	83 c4 10             	add    $0x10,%esp
c000c07d:	c7 c0 c0 43 01 c0    	mov    $0xc00143c0,%eax
c000c083:	8d 93 40 08 00 00    	lea    0x840(%ebx),%edx
c000c089:	89 10                	mov    %edx,(%eax)
c000c08b:	83 ec 04             	sub    $0x4,%esp
c000c08e:	6a 0c                	push   $0xc
c000c090:	6a 00                	push   $0x0
c000c092:	8d 45 e4             	lea    -0x1c(%ebp),%eax
c000c095:	50                   	push   %eax
c000c096:	e8 fa 6c ff ff       	call   c0002d95 <memset>
c000c09b:	83 c4 10             	add    $0x10,%esp
c000c09e:	c7 c0 c0 43 01 c0    	mov    $0xc00143c0,%eax
c000c0a4:	8b 00                	mov    (%eax),%eax
c000c0a6:	83 ec 08             	sub    $0x8,%esp
c000c0a9:	8d 55 e4             	lea    -0x1c(%ebp),%edx
c000c0ac:	52                   	push   %edx
c000c0ad:	50                   	push   %eax
c000c0ae:	e8 4b 9f ff ff       	call   c0005ffe <stat>
c000c0b3:	83 c4 10             	add    $0x10,%esp
c000c0b6:	83 f8 ff             	cmp    $0xffffffff,%eax
c000c0b9:	75 1d                	jne    c000c0d8 <my_shell+0x37e>
c000c0bb:	c7 c0 c0 43 01 c0    	mov    $0xc00143c0,%eax
c000c0c1:	8b 00                	mov    (%eax),%eax
c000c0c3:	83 ec 08             	sub    $0x8,%esp
c000c0c6:	50                   	push   %eax
c000c0c7:	8d 83 68 c3 ff ff    	lea    -0x3c98(%ebx),%eax
c000c0cd:	50                   	push   %eax
c000c0ce:	e8 e6 a1 ff ff       	call   c00062b9 <printf>
c000c0d3:	83 c4 10             	add    $0x10,%esp
c000c0d6:	eb 1b                	jmp    c000c0f3 <my_shell+0x399>
c000c0d8:	c7 c0 c0 43 01 c0    	mov    $0xc00143c0,%eax
c000c0de:	8b 00                	mov    (%eax),%eax
c000c0e0:	83 ec 08             	sub    $0x8,%esp
c000c0e3:	c7 c2 c0 43 01 c0    	mov    $0xc00143c0,%edx
c000c0e9:	52                   	push   %edx
c000c0ea:	50                   	push   %eax
c000c0eb:	e8 80 9f ff ff       	call   c0006070 <execv>
c000c0f0:	83 c4 10             	add    $0x10,%esp
c000c0f3:	eb fe                	jmp    c000c0f3 <my_shell+0x399>
c000c0f5:	c7 45 f4 00 00 00 00 	movl   $0x0,-0xc(%ebp)
c000c0fc:	eb 14                	jmp    c000c112 <my_shell+0x3b8>
c000c0fe:	c7 c0 c0 43 01 c0    	mov    $0xc00143c0,%eax
c000c104:	8b 55 f4             	mov    -0xc(%ebp),%edx
c000c107:	c7 04 90 00 00 00 00 	movl   $0x0,(%eax,%edx,4)
c000c10e:	83 45 f4 01          	addl   $0x1,-0xc(%ebp)
c000c112:	83 7d f4 0f          	cmpl   $0xf,-0xc(%ebp)
c000c116:	7e e6                	jle    c000c0fe <my_shell+0x3a4>
c000c118:	e9 56 fc ff ff       	jmp    c000bd73 <my_shell+0x19>
c000c11d:	90                   	nop
c000c11e:	e9 50 fc ff ff       	jmp    c000bd73 <my_shell+0x19>

c000c123 <wash_path>:
c000c123:	55                   	push   %ebp
c000c124:	89 e5                	mov    %esp,%ebp
c000c126:	53                   	push   %ebx
c000c127:	83 ec 24             	sub    $0x24,%esp
c000c12a:	e8 c6 58 ff ff       	call   c00019f5 <__x86.get_pc_thunk.bx>
c000c12f:	81 c3 d1 5e 00 00    	add    $0x5ed1,%ebx
c000c135:	c7 45 e0 00 00 00 00 	movl   $0x0,-0x20(%ebp)
c000c13c:	c7 45 e4 00 00 00 00 	movl   $0x0,-0x1c(%ebp)
c000c143:	c7 45 e8 00 00 00 00 	movl   $0x0,-0x18(%ebp)
c000c14a:	c7 45 ec 00 00 00 00 	movl   $0x0,-0x14(%ebp)
c000c151:	8b 45 08             	mov    0x8(%ebp),%eax
c000c154:	89 45 f4             	mov    %eax,-0xc(%ebp)
c000c157:	83 ec 08             	sub    $0x8,%esp
c000c15a:	8d 45 e0             	lea    -0x20(%ebp),%eax
c000c15d:	50                   	push   %eax
c000c15e:	ff 75 f4             	pushl  -0xc(%ebp)
c000c161:	e8 41 dc ff ff       	call   c0009da7 <path_parse>
c000c166:	83 c4 10             	add    $0x10,%esp
c000c169:	89 45 f4             	mov    %eax,-0xc(%ebp)
c000c16c:	0f b6 45 e0          	movzbl -0x20(%ebp),%eax
c000c170:	84 c0                	test   %al,%al
c000c172:	75 14                	jne    c000c188 <wash_path+0x65>
c000c174:	8b 45 0c             	mov    0xc(%ebp),%eax
c000c177:	c6 00 2f             	movb   $0x2f,(%eax)
c000c17a:	8b 45 0c             	mov    0xc(%ebp),%eax
c000c17d:	83 c0 01             	add    $0x1,%eax
c000c180:	c6 00 00             	movb   $0x0,(%eax)
c000c183:	e9 fc 00 00 00       	jmp    c000c284 <wash_path+0x161>
c000c188:	8b 45 0c             	mov    0xc(%ebp),%eax
c000c18b:	c6 00 00             	movb   $0x0,(%eax)
c000c18e:	83 ec 08             	sub    $0x8,%esp
c000c191:	8d 83 a0 c3 ff ff    	lea    -0x3c60(%ebx),%eax
c000c197:	50                   	push   %eax
c000c198:	ff 75 0c             	pushl  0xc(%ebp)
c000c19b:	e8 3b 6e ff ff       	call   c0002fdb <strcat>
c000c1a0:	83 c4 10             	add    $0x10,%esp
c000c1a3:	e9 d0 00 00 00       	jmp    c000c278 <wash_path+0x155>
c000c1a8:	83 ec 08             	sub    $0x8,%esp
c000c1ab:	8d 45 e0             	lea    -0x20(%ebp),%eax
c000c1ae:	50                   	push   %eax
c000c1af:	8d 83 a2 c3 ff ff    	lea    -0x3c5e(%ebx),%eax
c000c1b5:	50                   	push   %eax
c000c1b6:	e8 32 6d ff ff       	call   c0002eed <strcmp>
c000c1bb:	83 c4 10             	add    $0x10,%esp
c000c1be:	84 c0                	test   %al,%al
c000c1c0:	75 2e                	jne    c000c1f0 <wash_path+0xcd>
c000c1c2:	83 ec 08             	sub    $0x8,%esp
c000c1c5:	6a 2f                	push   $0x2f
c000c1c7:	ff 75 0c             	pushl  0xc(%ebp)
c000c1ca:	e8 c3 6d ff ff       	call   c0002f92 <strrchr>
c000c1cf:	83 c4 10             	add    $0x10,%esp
c000c1d2:	89 45 f0             	mov    %eax,-0x10(%ebp)
c000c1d5:	8b 45 f0             	mov    -0x10(%ebp),%eax
c000c1d8:	3b 45 0c             	cmp    0xc(%ebp),%eax
c000c1db:	74 08                	je     c000c1e5 <wash_path+0xc2>
c000c1dd:	8b 45 f0             	mov    -0x10(%ebp),%eax
c000c1e0:	c6 00 00             	movb   $0x0,(%eax)
c000c1e3:	eb 65                	jmp    c000c24a <wash_path+0x127>
c000c1e5:	8b 45 f0             	mov    -0x10(%ebp),%eax
c000c1e8:	83 c0 01             	add    $0x1,%eax
c000c1eb:	c6 00 00             	movb   $0x0,(%eax)
c000c1ee:	eb 5a                	jmp    c000c24a <wash_path+0x127>
c000c1f0:	83 ec 08             	sub    $0x8,%esp
c000c1f3:	8d 45 e0             	lea    -0x20(%ebp),%eax
c000c1f6:	50                   	push   %eax
c000c1f7:	8d 83 a5 c3 ff ff    	lea    -0x3c5b(%ebx),%eax
c000c1fd:	50                   	push   %eax
c000c1fe:	e8 ea 6c ff ff       	call   c0002eed <strcmp>
c000c203:	83 c4 10             	add    $0x10,%esp
c000c206:	84 c0                	test   %al,%al
c000c208:	74 40                	je     c000c24a <wash_path+0x127>
c000c20a:	83 ec 08             	sub    $0x8,%esp
c000c20d:	8d 83 a0 c3 ff ff    	lea    -0x3c60(%ebx),%eax
c000c213:	50                   	push   %eax
c000c214:	ff 75 0c             	pushl  0xc(%ebp)
c000c217:	e8 d1 6c ff ff       	call   c0002eed <strcmp>
c000c21c:	83 c4 10             	add    $0x10,%esp
c000c21f:	84 c0                	test   %al,%al
c000c221:	74 15                	je     c000c238 <wash_path+0x115>
c000c223:	83 ec 08             	sub    $0x8,%esp
c000c226:	8d 83 a0 c3 ff ff    	lea    -0x3c60(%ebx),%eax
c000c22c:	50                   	push   %eax
c000c22d:	ff 75 0c             	pushl  0xc(%ebp)
c000c230:	e8 a6 6d ff ff       	call   c0002fdb <strcat>
c000c235:	83 c4 10             	add    $0x10,%esp
c000c238:	83 ec 08             	sub    $0x8,%esp
c000c23b:	8d 45 e0             	lea    -0x20(%ebp),%eax
c000c23e:	50                   	push   %eax
c000c23f:	ff 75 0c             	pushl  0xc(%ebp)
c000c242:	e8 94 6d ff ff       	call   c0002fdb <strcat>
c000c247:	83 c4 10             	add    $0x10,%esp
c000c24a:	83 ec 04             	sub    $0x4,%esp
c000c24d:	6a 10                	push   $0x10
c000c24f:	6a 00                	push   $0x0
c000c251:	8d 45 e0             	lea    -0x20(%ebp),%eax
c000c254:	50                   	push   %eax
c000c255:	e8 3b 6b ff ff       	call   c0002d95 <memset>
c000c25a:	83 c4 10             	add    $0x10,%esp
c000c25d:	83 7d f4 00          	cmpl   $0x0,-0xc(%ebp)
c000c261:	74 15                	je     c000c278 <wash_path+0x155>
c000c263:	83 ec 08             	sub    $0x8,%esp
c000c266:	8d 45 e0             	lea    -0x20(%ebp),%eax
c000c269:	50                   	push   %eax
c000c26a:	ff 75 f4             	pushl  -0xc(%ebp)
c000c26d:	e8 35 db ff ff       	call   c0009da7 <path_parse>
c000c272:	83 c4 10             	add    $0x10,%esp
c000c275:	89 45 f4             	mov    %eax,-0xc(%ebp)
c000c278:	0f b6 45 e0          	movzbl -0x20(%ebp),%eax
c000c27c:	84 c0                	test   %al,%al
c000c27e:	0f 85 24 ff ff ff    	jne    c000c1a8 <wash_path+0x85>
c000c284:	8b 5d fc             	mov    -0x4(%ebp),%ebx
c000c287:	c9                   	leave  
c000c288:	c3                   	ret    

c000c289 <make_clear_abs_path>:
c000c289:	55                   	push   %ebp
c000c28a:	89 e5                	mov    %esp,%ebp
c000c28c:	57                   	push   %edi
c000c28d:	53                   	push   %ebx
c000c28e:	81 ec 00 02 00 00    	sub    $0x200,%esp
c000c294:	e8 5c 57 ff ff       	call   c00019f5 <__x86.get_pc_thunk.bx>
c000c299:	81 c3 67 5d 00 00    	add    $0x5d67,%ebx
c000c29f:	8d 95 f8 fd ff ff    	lea    -0x208(%ebp),%edx
c000c2a5:	b8 00 00 00 00       	mov    $0x0,%eax
c000c2aa:	b9 80 00 00 00       	mov    $0x80,%ecx
c000c2af:	89 d7                	mov    %edx,%edi
c000c2b1:	f3 ab                	rep stos %eax,%es:(%edi)
c000c2b3:	8b 45 08             	mov    0x8(%ebp),%eax
c000c2b6:	0f b6 00             	movzbl (%eax),%eax
c000c2b9:	3c 2f                	cmp    $0x2f,%al
c000c2bb:	74 63                	je     c000c320 <make_clear_abs_path+0x97>
c000c2bd:	83 ec 04             	sub    $0x4,%esp
c000c2c0:	68 00 02 00 00       	push   $0x200
c000c2c5:	6a 00                	push   $0x0
c000c2c7:	8d 85 f8 fd ff ff    	lea    -0x208(%ebp),%eax
c000c2cd:	50                   	push   %eax
c000c2ce:	e8 c2 6a ff ff       	call   c0002d95 <memset>
c000c2d3:	83 c4 10             	add    $0x10,%esp
c000c2d6:	83 ec 08             	sub    $0x8,%esp
c000c2d9:	68 00 02 00 00       	push   $0x200
c000c2de:	8d 85 f8 fd ff ff    	lea    -0x208(%ebp),%eax
c000c2e4:	50                   	push   %eax
c000c2e5:	e8 3b 9b ff ff       	call   c0005e25 <getcwd>
c000c2ea:	83 c4 10             	add    $0x10,%esp
c000c2ed:	85 c0                	test   %eax,%eax
c000c2ef:	74 2f                	je     c000c320 <make_clear_abs_path+0x97>
c000c2f1:	0f b6 85 f8 fd ff ff 	movzbl -0x208(%ebp),%eax
c000c2f8:	3c 2f                	cmp    $0x2f,%al
c000c2fa:	75 0b                	jne    c000c307 <make_clear_abs_path+0x7e>
c000c2fc:	0f b6 85 f9 fd ff ff 	movzbl -0x207(%ebp),%eax
c000c303:	84 c0                	test   %al,%al
c000c305:	74 19                	je     c000c320 <make_clear_abs_path+0x97>
c000c307:	83 ec 08             	sub    $0x8,%esp
c000c30a:	8d 83 a0 c3 ff ff    	lea    -0x3c60(%ebx),%eax
c000c310:	50                   	push   %eax
c000c311:	8d 85 f8 fd ff ff    	lea    -0x208(%ebp),%eax
c000c317:	50                   	push   %eax
c000c318:	e8 be 6c ff ff       	call   c0002fdb <strcat>
c000c31d:	83 c4 10             	add    $0x10,%esp
c000c320:	83 ec 08             	sub    $0x8,%esp
c000c323:	ff 75 08             	pushl  0x8(%ebp)
c000c326:	8d 85 f8 fd ff ff    	lea    -0x208(%ebp),%eax
c000c32c:	50                   	push   %eax
c000c32d:	e8 a9 6c ff ff       	call   c0002fdb <strcat>
c000c332:	83 c4 10             	add    $0x10,%esp
c000c335:	83 ec 08             	sub    $0x8,%esp
c000c338:	ff 75 0c             	pushl  0xc(%ebp)
c000c33b:	8d 85 f8 fd ff ff    	lea    -0x208(%ebp),%eax
c000c341:	50                   	push   %eax
c000c342:	e8 dc fd ff ff       	call   c000c123 <wash_path>
c000c347:	83 c4 10             	add    $0x10,%esp
c000c34a:	90                   	nop
c000c34b:	8d 65 f8             	lea    -0x8(%ebp),%esp
c000c34e:	5b                   	pop    %ebx
c000c34f:	5f                   	pop    %edi
c000c350:	5d                   	pop    %ebp
c000c351:	c3                   	ret    

c000c352 <buildin_pwd>:
c000c352:	55                   	push   %ebp
c000c353:	89 e5                	mov    %esp,%ebp
c000c355:	53                   	push   %ebx
c000c356:	83 ec 04             	sub    $0x4,%esp
c000c359:	e8 97 56 ff ff       	call   c00019f5 <__x86.get_pc_thunk.bx>
c000c35e:	81 c3 a2 5c 00 00    	add    $0x5ca2,%ebx
c000c364:	83 7d 08 01          	cmpl   $0x1,0x8(%ebp)
c000c368:	74 14                	je     c000c37e <buildin_pwd+0x2c>
c000c36a:	83 ec 0c             	sub    $0xc,%esp
c000c36d:	8d 83 a7 c3 ff ff    	lea    -0x3c59(%ebx),%eax
c000c373:	50                   	push   %eax
c000c374:	e8 40 9f ff ff       	call   c00062b9 <printf>
c000c379:	83 c4 10             	add    $0x10,%esp
c000c37c:	eb 48                	jmp    c000c3c6 <buildin_pwd+0x74>
c000c37e:	83 ec 08             	sub    $0x8,%esp
c000c381:	68 00 02 00 00       	push   $0x200
c000c386:	c7 c0 40 28 01 c0    	mov    $0xc0012840,%eax
c000c38c:	50                   	push   %eax
c000c38d:	e8 93 9a ff ff       	call   c0005e25 <getcwd>
c000c392:	83 c4 10             	add    $0x10,%esp
c000c395:	85 c0                	test   %eax,%eax
c000c397:	74 1b                	je     c000c3b4 <buildin_pwd+0x62>
c000c399:	83 ec 08             	sub    $0x8,%esp
c000c39c:	c7 c0 40 28 01 c0    	mov    $0xc0012840,%eax
c000c3a2:	50                   	push   %eax
c000c3a3:	8d 83 c2 c3 ff ff    	lea    -0x3c3e(%ebx),%eax
c000c3a9:	50                   	push   %eax
c000c3aa:	e8 0a 9f ff ff       	call   c00062b9 <printf>
c000c3af:	83 c4 10             	add    $0x10,%esp
c000c3b2:	eb 12                	jmp    c000c3c6 <buildin_pwd+0x74>
c000c3b4:	83 ec 0c             	sub    $0xc,%esp
c000c3b7:	8d 83 c8 c3 ff ff    	lea    -0x3c38(%ebx),%eax
c000c3bd:	50                   	push   %eax
c000c3be:	e8 f6 9e ff ff       	call   c00062b9 <printf>
c000c3c3:	83 c4 10             	add    $0x10,%esp
c000c3c6:	8b 5d fc             	mov    -0x4(%ebp),%ebx
c000c3c9:	c9                   	leave  
c000c3ca:	c3                   	ret    

c000c3cb <buildin_cd>:
c000c3cb:	55                   	push   %ebp
c000c3cc:	89 e5                	mov    %esp,%ebp
c000c3ce:	53                   	push   %ebx
c000c3cf:	83 ec 04             	sub    $0x4,%esp
c000c3d2:	e8 1e 56 ff ff       	call   c00019f5 <__x86.get_pc_thunk.bx>
c000c3d7:	81 c3 29 5c 00 00    	add    $0x5c29,%ebx
c000c3dd:	83 7d 08 02          	cmpl   $0x2,0x8(%ebp)
c000c3e1:	76 19                	jbe    c000c3fc <buildin_cd+0x31>
c000c3e3:	83 ec 0c             	sub    $0xc,%esp
c000c3e6:	8d 83 f1 c3 ff ff    	lea    -0x3c0f(%ebx),%eax
c000c3ec:	50                   	push   %eax
c000c3ed:	e8 c7 9e ff ff       	call   c00062b9 <printf>
c000c3f2:	83 c4 10             	add    $0x10,%esp
c000c3f5:	b8 00 00 00 00       	mov    $0x0,%eax
c000c3fa:	eb 73                	jmp    c000c46f <buildin_cd+0xa4>
c000c3fc:	83 7d 08 01          	cmpl   $0x1,0x8(%ebp)
c000c400:	75 15                	jne    c000c417 <buildin_cd+0x4c>
c000c402:	c7 c0 40 28 01 c0    	mov    $0xc0012840,%eax
c000c408:	c6 00 2f             	movb   $0x2f,(%eax)
c000c40b:	c7 c0 40 28 01 c0    	mov    $0xc0012840,%eax
c000c411:	c6 40 01 00          	movb   $0x0,0x1(%eax)
c000c415:	eb 1b                	jmp    c000c432 <buildin_cd+0x67>
c000c417:	8b 45 0c             	mov    0xc(%ebp),%eax
c000c41a:	83 c0 04             	add    $0x4,%eax
c000c41d:	8b 00                	mov    (%eax),%eax
c000c41f:	83 ec 08             	sub    $0x8,%esp
c000c422:	c7 c2 40 28 01 c0    	mov    $0xc0012840,%edx
c000c428:	52                   	push   %edx
c000c429:	50                   	push   %eax
c000c42a:	e8 5a fe ff ff       	call   c000c289 <make_clear_abs_path>
c000c42f:	83 c4 10             	add    $0x10,%esp
c000c432:	83 ec 0c             	sub    $0xc,%esp
c000c435:	c7 c0 40 28 01 c0    	mov    $0xc0012840,%eax
c000c43b:	50                   	push   %eax
c000c43c:	e8 e9 9b ff ff       	call   c000602a <chdir>
c000c441:	83 c4 10             	add    $0x10,%esp
c000c444:	83 f8 ff             	cmp    $0xffffffff,%eax
c000c447:	75 20                	jne    c000c469 <buildin_cd+0x9e>
c000c449:	83 ec 08             	sub    $0x8,%esp
c000c44c:	c7 c0 40 28 01 c0    	mov    $0xc0012840,%eax
c000c452:	50                   	push   %eax
c000c453:	8d 83 0f c4 ff ff    	lea    -0x3bf1(%ebx),%eax
c000c459:	50                   	push   %eax
c000c45a:	e8 5a 9e ff ff       	call   c00062b9 <printf>
c000c45f:	83 c4 10             	add    $0x10,%esp
c000c462:	b8 00 00 00 00       	mov    $0x0,%eax
c000c467:	eb 06                	jmp    c000c46f <buildin_cd+0xa4>
c000c469:	c7 c0 40 28 01 c0    	mov    $0xc0012840,%eax
c000c46f:	8b 5d fc             	mov    -0x4(%ebp),%ebx
c000c472:	c9                   	leave  
c000c473:	c3                   	ret    

c000c474 <buildin_ls>:
c000c474:	55                   	push   %ebp
c000c475:	89 e5                	mov    %esp,%ebp
c000c477:	57                   	push   %edi
c000c478:	56                   	push   %esi
c000c479:	53                   	push   %ebx
c000c47a:	81 ec 3c 02 00 00    	sub    $0x23c,%esp
c000c480:	e8 70 55 ff ff       	call   c00019f5 <__x86.get_pc_thunk.bx>
c000c485:	81 c3 7b 5b 00 00    	add    $0x5b7b,%ebx
c000c48b:	c7 45 e4 00 00 00 00 	movl   $0x0,-0x1c(%ebp)
c000c492:	83 ec 04             	sub    $0x4,%esp
c000c495:	6a 0c                	push   $0xc
c000c497:	6a 00                	push   $0x0
c000c499:	8d 45 b8             	lea    -0x48(%ebp),%eax
c000c49c:	50                   	push   %eax
c000c49d:	e8 f3 68 ff ff       	call   c0002d95 <memset>
c000c4a2:	83 c4 10             	add    $0x10,%esp
c000c4a5:	c7 45 e0 00 00 00 00 	movl   $0x0,-0x20(%ebp)
c000c4ac:	c7 45 dc 00 00 00 00 	movl   $0x0,-0x24(%ebp)
c000c4b3:	c7 45 d8 01 00 00 00 	movl   $0x1,-0x28(%ebp)
c000c4ba:	e9 f6 00 00 00       	jmp    c000c5b5 <buildin_ls+0x141>
c000c4bf:	8b 45 d8             	mov    -0x28(%ebp),%eax
c000c4c2:	8d 14 85 00 00 00 00 	lea    0x0(,%eax,4),%edx
c000c4c9:	8b 45 0c             	mov    0xc(%ebp),%eax
c000c4cc:	01 d0                	add    %edx,%eax
c000c4ce:	8b 00                	mov    (%eax),%eax
c000c4d0:	0f b6 00             	movzbl (%eax),%eax
c000c4d3:	3c 2d                	cmp    $0x2d,%al
c000c4d5:	0f 85 9c 00 00 00    	jne    c000c577 <buildin_ls+0x103>
c000c4db:	8b 45 d8             	mov    -0x28(%ebp),%eax
c000c4de:	8d 14 85 00 00 00 00 	lea    0x0(,%eax,4),%edx
c000c4e5:	8b 45 0c             	mov    0xc(%ebp),%eax
c000c4e8:	01 d0                	add    %edx,%eax
c000c4ea:	8b 00                	mov    (%eax),%eax
c000c4ec:	83 ec 08             	sub    $0x8,%esp
c000c4ef:	50                   	push   %eax
c000c4f0:	8d 83 29 c4 ff ff    	lea    -0x3bd7(%ebx),%eax
c000c4f6:	50                   	push   %eax
c000c4f7:	e8 f1 69 ff ff       	call   c0002eed <strcmp>
c000c4fc:	83 c4 10             	add    $0x10,%esp
c000c4ff:	84 c0                	test   %al,%al
c000c501:	75 0c                	jne    c000c50f <buildin_ls+0x9b>
c000c503:	c7 45 e0 01 00 00 00 	movl   $0x1,-0x20(%ebp)
c000c50a:	e9 a2 00 00 00       	jmp    c000c5b1 <buildin_ls+0x13d>
c000c50f:	8b 45 d8             	mov    -0x28(%ebp),%eax
c000c512:	8d 14 85 00 00 00 00 	lea    0x0(,%eax,4),%edx
c000c519:	8b 45 0c             	mov    0xc(%ebp),%eax
c000c51c:	01 d0                	add    %edx,%eax
c000c51e:	8b 00                	mov    (%eax),%eax
c000c520:	83 ec 08             	sub    $0x8,%esp
c000c523:	50                   	push   %eax
c000c524:	8d 83 2c c4 ff ff    	lea    -0x3bd4(%ebx),%eax
c000c52a:	50                   	push   %eax
c000c52b:	e8 bd 69 ff ff       	call   c0002eed <strcmp>
c000c530:	83 c4 10             	add    $0x10,%esp
c000c533:	84 c0                	test   %al,%al
c000c535:	75 17                	jne    c000c54e <buildin_ls+0xda>
c000c537:	83 ec 0c             	sub    $0xc,%esp
c000c53a:	8d 83 30 c4 ff ff    	lea    -0x3bd0(%ebx),%eax
c000c540:	50                   	push   %eax
c000c541:	e8 73 9d ff ff       	call   c00062b9 <printf>
c000c546:	83 c4 10             	add    $0x10,%esp
c000c549:	e9 10 03 00 00       	jmp    c000c85e <buildin_ls+0x3ea>
c000c54e:	8b 45 d8             	mov    -0x28(%ebp),%eax
c000c551:	8d 14 85 00 00 00 00 	lea    0x0(,%eax,4),%edx
c000c558:	8b 45 0c             	mov    0xc(%ebp),%eax
c000c55b:	01 d0                	add    %edx,%eax
c000c55d:	8b 00                	mov    (%eax),%eax
c000c55f:	83 ec 08             	sub    $0x8,%esp
c000c562:	50                   	push   %eax
c000c563:	8d 83 a0 c4 ff ff    	lea    -0x3b60(%ebx),%eax
c000c569:	50                   	push   %eax
c000c56a:	e8 4a 9d ff ff       	call   c00062b9 <printf>
c000c56f:	83 c4 10             	add    $0x10,%esp
c000c572:	e9 e7 02 00 00       	jmp    c000c85e <buildin_ls+0x3ea>
c000c577:	83 7d dc 00          	cmpl   $0x0,-0x24(%ebp)
c000c57b:	75 1d                	jne    c000c59a <buildin_ls+0x126>
c000c57d:	8b 45 d8             	mov    -0x28(%ebp),%eax
c000c580:	8d 14 85 00 00 00 00 	lea    0x0(,%eax,4),%edx
c000c587:	8b 45 0c             	mov    0xc(%ebp),%eax
c000c58a:	01 d0                	add    %edx,%eax
c000c58c:	8b 00                	mov    (%eax),%eax
c000c58e:	89 45 e4             	mov    %eax,-0x1c(%ebp)
c000c591:	c7 45 dc 01 00 00 00 	movl   $0x1,-0x24(%ebp)
c000c598:	eb 17                	jmp    c000c5b1 <buildin_ls+0x13d>
c000c59a:	83 ec 0c             	sub    $0xc,%esp
c000c59d:	8d 83 d9 c4 ff ff    	lea    -0x3b27(%ebx),%eax
c000c5a3:	50                   	push   %eax
c000c5a4:	e8 10 9d ff ff       	call   c00062b9 <printf>
c000c5a9:	83 c4 10             	add    $0x10,%esp
c000c5ac:	e9 ad 02 00 00       	jmp    c000c85e <buildin_ls+0x3ea>
c000c5b1:	83 45 d8 01          	addl   $0x1,-0x28(%ebp)
c000c5b5:	8b 45 d8             	mov    -0x28(%ebp),%eax
c000c5b8:	3b 45 08             	cmp    0x8(%ebp),%eax
c000c5bb:	0f 82 fe fe ff ff    	jb     c000c4bf <buildin_ls+0x4b>
c000c5c1:	83 7d e4 00          	cmpl   $0x0,-0x1c(%ebp)
c000c5c5:	75 3d                	jne    c000c604 <buildin_ls+0x190>
c000c5c7:	83 ec 08             	sub    $0x8,%esp
c000c5ca:	68 00 02 00 00       	push   $0x200
c000c5cf:	c7 c0 40 28 01 c0    	mov    $0xc0012840,%eax
c000c5d5:	50                   	push   %eax
c000c5d6:	e8 4a 98 ff ff       	call   c0005e25 <getcwd>
c000c5db:	83 c4 10             	add    $0x10,%esp
c000c5de:	85 c0                	test   %eax,%eax
c000c5e0:	74 0b                	je     c000c5ed <buildin_ls+0x179>
c000c5e2:	c7 c0 40 28 01 c0    	mov    $0xc0012840,%eax
c000c5e8:	89 45 e4             	mov    %eax,-0x1c(%ebp)
c000c5eb:	eb 35                	jmp    c000c622 <buildin_ls+0x1ae>
c000c5ed:	83 ec 0c             	sub    $0xc,%esp
c000c5f0:	8d 83 f4 c4 ff ff    	lea    -0x3b0c(%ebx),%eax
c000c5f6:	50                   	push   %eax
c000c5f7:	e8 bd 9c ff ff       	call   c00062b9 <printf>
c000c5fc:	83 c4 10             	add    $0x10,%esp
c000c5ff:	e9 5a 02 00 00       	jmp    c000c85e <buildin_ls+0x3ea>
c000c604:	83 ec 08             	sub    $0x8,%esp
c000c607:	c7 c0 40 28 01 c0    	mov    $0xc0012840,%eax
c000c60d:	50                   	push   %eax
c000c60e:	ff 75 e4             	pushl  -0x1c(%ebp)
c000c611:	e8 73 fc ff ff       	call   c000c289 <make_clear_abs_path>
c000c616:	83 c4 10             	add    $0x10,%esp
c000c619:	c7 c0 40 28 01 c0    	mov    $0xc0012840,%eax
c000c61f:	89 45 e4             	mov    %eax,-0x1c(%ebp)
c000c622:	83 ec 08             	sub    $0x8,%esp
c000c625:	8d 45 b8             	lea    -0x48(%ebp),%eax
c000c628:	50                   	push   %eax
c000c629:	ff 75 e4             	pushl  -0x1c(%ebp)
c000c62c:	e8 cd 99 ff ff       	call   c0005ffe <stat>
c000c631:	83 c4 10             	add    $0x10,%esp
c000c634:	83 f8 ff             	cmp    $0xffffffff,%eax
c000c637:	75 1a                	jne    c000c653 <buildin_ls+0x1df>
c000c639:	83 ec 08             	sub    $0x8,%esp
c000c63c:	ff 75 e4             	pushl  -0x1c(%ebp)
c000c63f:	8d 83 18 c5 ff ff    	lea    -0x3ae8(%ebx),%eax
c000c645:	50                   	push   %eax
c000c646:	e8 6e 9c ff ff       	call   c00062b9 <printf>
c000c64b:	83 c4 10             	add    $0x10,%esp
c000c64e:	e9 0b 02 00 00       	jmp    c000c85e <buildin_ls+0x3ea>
c000c653:	8b 45 c0             	mov    -0x40(%ebp),%eax
c000c656:	83 f8 02             	cmp    $0x2,%eax
c000c659:	0f 85 c8 01 00 00    	jne    c000c827 <buildin_ls+0x3b3>
c000c65f:	83 ec 0c             	sub    $0xc,%esp
c000c662:	ff 75 e4             	pushl  -0x1c(%ebp)
c000c665:	e8 c9 98 ff ff       	call   c0005f33 <opendir>
c000c66a:	83 c4 10             	add    $0x10,%esp
c000c66d:	89 45 cc             	mov    %eax,-0x34(%ebp)
c000c670:	c7 45 c8 00 00 00 00 	movl   $0x0,-0x38(%ebp)
c000c677:	8d 95 b8 fd ff ff    	lea    -0x248(%ebp),%edx
c000c67d:	b8 00 00 00 00       	mov    $0x0,%eax
c000c682:	b9 80 00 00 00       	mov    $0x80,%ecx
c000c687:	89 d7                	mov    %edx,%edi
c000c689:	f3 ab                	rep stos %eax,%es:(%edi)
c000c68b:	83 ec 0c             	sub    $0xc,%esp
c000c68e:	ff 75 e4             	pushl  -0x1c(%ebp)
c000c691:	e8 21 68 ff ff       	call   c0002eb7 <strlen>
c000c696:	83 c4 10             	add    $0x10,%esp
c000c699:	89 45 d4             	mov    %eax,-0x2c(%ebp)
c000c69c:	8b 45 d4             	mov    -0x2c(%ebp),%eax
c000c69f:	83 e8 01             	sub    $0x1,%eax
c000c6a2:	89 45 c4             	mov    %eax,-0x3c(%ebp)
c000c6a5:	83 ec 04             	sub    $0x4,%esp
c000c6a8:	ff 75 d4             	pushl  -0x2c(%ebp)
c000c6ab:	ff 75 e4             	pushl  -0x1c(%ebp)
c000c6ae:	8d 85 b8 fd ff ff    	lea    -0x248(%ebp),%eax
c000c6b4:	50                   	push   %eax
c000c6b5:	e8 16 67 ff ff       	call   c0002dd0 <memcpy>
c000c6ba:	83 c4 10             	add    $0x10,%esp
c000c6bd:	8d 95 b8 fd ff ff    	lea    -0x248(%ebp),%edx
c000c6c3:	8b 45 c4             	mov    -0x3c(%ebp),%eax
c000c6c6:	01 d0                	add    %edx,%eax
c000c6c8:	0f b6 00             	movzbl (%eax),%eax
c000c6cb:	3c 2f                	cmp    $0x2f,%al
c000c6cd:	74 12                	je     c000c6e1 <buildin_ls+0x26d>
c000c6cf:	8d 95 b8 fd ff ff    	lea    -0x248(%ebp),%edx
c000c6d5:	8b 45 d4             	mov    -0x2c(%ebp),%eax
c000c6d8:	01 d0                	add    %edx,%eax
c000c6da:	c6 00 2f             	movb   $0x2f,(%eax)
c000c6dd:	83 45 d4 01          	addl   $0x1,-0x2c(%ebp)
c000c6e1:	83 ec 0c             	sub    $0xc,%esp
c000c6e4:	ff 75 cc             	pushl  -0x34(%ebp)
c000c6e7:	e8 eb 98 ff ff       	call   c0005fd7 <rewinddir>
c000c6ec:	83 c4 10             	add    $0x10,%esp
c000c6ef:	83 7d e0 00          	cmpl   $0x0,-0x20(%ebp)
c000c6f3:	0f 84 f5 00 00 00    	je     c000c7ee <buildin_ls+0x37a>
c000c6f9:	8b 45 bc             	mov    -0x44(%ebp),%eax
c000c6fc:	83 ec 08             	sub    $0x8,%esp
c000c6ff:	50                   	push   %eax
c000c700:	8d 83 49 c5 ff ff    	lea    -0x3ab7(%ebx),%eax
c000c706:	50                   	push   %eax
c000c707:	e8 ad 9b ff ff       	call   c00062b9 <printf>
c000c70c:	83 c4 10             	add    $0x10,%esp
c000c70f:	e9 a7 00 00 00       	jmp    c000c7bb <buildin_ls+0x347>
c000c714:	c6 45 d3 64          	movb   $0x64,-0x2d(%ebp)
c000c718:	8b 45 c8             	mov    -0x38(%ebp),%eax
c000c71b:	8b 40 14             	mov    0x14(%eax),%eax
c000c71e:	83 f8 01             	cmp    $0x1,%eax
c000c721:	75 04                	jne    c000c727 <buildin_ls+0x2b3>
c000c723:	c6 45 d3 2d          	movb   $0x2d,-0x2d(%ebp)
c000c727:	8d 95 b8 fd ff ff    	lea    -0x248(%ebp),%edx
c000c72d:	8b 45 d4             	mov    -0x2c(%ebp),%eax
c000c730:	01 d0                	add    %edx,%eax
c000c732:	c6 00 00             	movb   $0x0,(%eax)
c000c735:	8b 45 c8             	mov    -0x38(%ebp),%eax
c000c738:	83 ec 08             	sub    $0x8,%esp
c000c73b:	50                   	push   %eax
c000c73c:	8d 85 b8 fd ff ff    	lea    -0x248(%ebp),%eax
c000c742:	50                   	push   %eax
c000c743:	e8 93 68 ff ff       	call   c0002fdb <strcat>
c000c748:	83 c4 10             	add    $0x10,%esp
c000c74b:	83 ec 04             	sub    $0x4,%esp
c000c74e:	6a 0c                	push   $0xc
c000c750:	6a 00                	push   $0x0
c000c752:	8d 45 b8             	lea    -0x48(%ebp),%eax
c000c755:	50                   	push   %eax
c000c756:	e8 3a 66 ff ff       	call   c0002d95 <memset>
c000c75b:	83 c4 10             	add    $0x10,%esp
c000c75e:	83 ec 08             	sub    $0x8,%esp
c000c761:	8d 45 b8             	lea    -0x48(%ebp),%eax
c000c764:	50                   	push   %eax
c000c765:	8d 85 b8 fd ff ff    	lea    -0x248(%ebp),%eax
c000c76b:	50                   	push   %eax
c000c76c:	e8 8d 98 ff ff       	call   c0005ffe <stat>
c000c771:	83 c4 10             	add    $0x10,%esp
c000c774:	83 f8 ff             	cmp    $0xffffffff,%eax
c000c777:	75 1c                	jne    c000c795 <buildin_ls+0x321>
c000c779:	8b 45 c8             	mov    -0x38(%ebp),%eax
c000c77c:	83 ec 08             	sub    $0x8,%esp
c000c77f:	50                   	push   %eax
c000c780:	8d 83 18 c5 ff ff    	lea    -0x3ae8(%ebx),%eax
c000c786:	50                   	push   %eax
c000c787:	e8 2d 9b ff ff       	call   c00062b9 <printf>
c000c78c:	83 c4 10             	add    $0x10,%esp
c000c78f:	90                   	nop
c000c790:	e9 c9 00 00 00       	jmp    c000c85e <buildin_ls+0x3ea>
c000c795:	8b 75 c8             	mov    -0x38(%ebp),%esi
c000c798:	8b 4d bc             	mov    -0x44(%ebp),%ecx
c000c79b:	8b 45 c8             	mov    -0x38(%ebp),%eax
c000c79e:	8b 50 10             	mov    0x10(%eax),%edx
c000c7a1:	0f be 45 d3          	movsbl -0x2d(%ebp),%eax
c000c7a5:	83 ec 0c             	sub    $0xc,%esp
c000c7a8:	56                   	push   %esi
c000c7a9:	51                   	push   %ecx
c000c7aa:	52                   	push   %edx
c000c7ab:	50                   	push   %eax
c000c7ac:	8d 83 54 c5 ff ff    	lea    -0x3aac(%ebx),%eax
c000c7b2:	50                   	push   %eax
c000c7b3:	e8 01 9b ff ff       	call   c00062b9 <printf>
c000c7b8:	83 c4 20             	add    $0x20,%esp
c000c7bb:	83 ec 0c             	sub    $0xc,%esp
c000c7be:	ff 75 cc             	pushl  -0x34(%ebp)
c000c7c1:	e8 e8 97 ff ff       	call   c0005fae <readdir>
c000c7c6:	83 c4 10             	add    $0x10,%esp
c000c7c9:	89 45 c8             	mov    %eax,-0x38(%ebp)
c000c7cc:	83 7d c8 00          	cmpl   $0x0,-0x38(%ebp)
c000c7d0:	0f 85 3e ff ff ff    	jne    c000c714 <buildin_ls+0x2a0>
c000c7d6:	eb 3f                	jmp    c000c817 <buildin_ls+0x3a3>
c000c7d8:	8b 45 c8             	mov    -0x38(%ebp),%eax
c000c7db:	83 ec 08             	sub    $0x8,%esp
c000c7de:	50                   	push   %eax
c000c7df:	8d 83 64 c5 ff ff    	lea    -0x3a9c(%ebx),%eax
c000c7e5:	50                   	push   %eax
c000c7e6:	e8 ce 9a ff ff       	call   c00062b9 <printf>
c000c7eb:	83 c4 10             	add    $0x10,%esp
c000c7ee:	83 ec 0c             	sub    $0xc,%esp
c000c7f1:	ff 75 cc             	pushl  -0x34(%ebp)
c000c7f4:	e8 b5 97 ff ff       	call   c0005fae <readdir>
c000c7f9:	83 c4 10             	add    $0x10,%esp
c000c7fc:	89 45 c8             	mov    %eax,-0x38(%ebp)
c000c7ff:	83 7d c8 00          	cmpl   $0x0,-0x38(%ebp)
c000c803:	75 d3                	jne    c000c7d8 <buildin_ls+0x364>
c000c805:	83 ec 0c             	sub    $0xc,%esp
c000c808:	8d 83 68 c5 ff ff    	lea    -0x3a98(%ebx),%eax
c000c80e:	50                   	push   %eax
c000c80f:	e8 a5 9a ff ff       	call   c00062b9 <printf>
c000c814:	83 c4 10             	add    $0x10,%esp
c000c817:	83 ec 0c             	sub    $0xc,%esp
c000c81a:	ff 75 cc             	pushl  -0x34(%ebp)
c000c81d:	e8 3a 97 ff ff       	call   c0005f5c <closedir>
c000c822:	83 c4 10             	add    $0x10,%esp
c000c825:	eb 37                	jmp    c000c85e <buildin_ls+0x3ea>
c000c827:	83 7d e0 00          	cmpl   $0x0,-0x20(%ebp)
c000c82b:	74 1c                	je     c000c849 <buildin_ls+0x3d5>
c000c82d:	8b 55 bc             	mov    -0x44(%ebp),%edx
c000c830:	8b 45 b8             	mov    -0x48(%ebp),%eax
c000c833:	ff 75 e4             	pushl  -0x1c(%ebp)
c000c836:	52                   	push   %edx
c000c837:	50                   	push   %eax
c000c838:	8d 83 6a c5 ff ff    	lea    -0x3a96(%ebx),%eax
c000c83e:	50                   	push   %eax
c000c83f:	e8 75 9a ff ff       	call   c00062b9 <printf>
c000c844:	83 c4 10             	add    $0x10,%esp
c000c847:	eb 15                	jmp    c000c85e <buildin_ls+0x3ea>
c000c849:	83 ec 08             	sub    $0x8,%esp
c000c84c:	ff 75 e4             	pushl  -0x1c(%ebp)
c000c84f:	8d 83 c2 c3 ff ff    	lea    -0x3c3e(%ebx),%eax
c000c855:	50                   	push   %eax
c000c856:	e8 5e 9a ff ff       	call   c00062b9 <printf>
c000c85b:	83 c4 10             	add    $0x10,%esp
c000c85e:	8d 65 f4             	lea    -0xc(%ebp),%esp
c000c861:	5b                   	pop    %ebx
c000c862:	5e                   	pop    %esi
c000c863:	5f                   	pop    %edi
c000c864:	5d                   	pop    %ebp
c000c865:	c3                   	ret    

c000c866 <buildin_ps>:
c000c866:	55                   	push   %ebp
c000c867:	89 e5                	mov    %esp,%ebp
c000c869:	53                   	push   %ebx
c000c86a:	83 ec 04             	sub    $0x4,%esp
c000c86d:	e8 66 57 ff ff       	call   c0001fd8 <__x86.get_pc_thunk.ax>
c000c872:	05 8e 57 00 00       	add    $0x578e,%eax
c000c877:	83 7d 08 01          	cmpl   $0x1,0x8(%ebp)
c000c87b:	74 16                	je     c000c893 <buildin_ps+0x2d>
c000c87d:	83 ec 0c             	sub    $0xc,%esp
c000c880:	8d 90 79 c5 ff ff    	lea    -0x3a87(%eax),%edx
c000c886:	52                   	push   %edx
c000c887:	89 c3                	mov    %eax,%ebx
c000c889:	e8 2b 9a ff ff       	call   c00062b9 <printf>
c000c88e:	83 c4 10             	add    $0x10,%esp
c000c891:	eb 07                	jmp    c000c89a <buildin_ps+0x34>
c000c893:	89 c3                	mov    %eax,%ebx
c000c895:	e8 b9 97 ff ff       	call   c0006053 <ps>
c000c89a:	8b 5d fc             	mov    -0x4(%ebp),%ebx
c000c89d:	c9                   	leave  
c000c89e:	c3                   	ret    

c000c89f <buildin_clear>:
c000c89f:	55                   	push   %ebp
c000c8a0:	89 e5                	mov    %esp,%ebp
c000c8a2:	53                   	push   %ebx
c000c8a3:	83 ec 04             	sub    $0x4,%esp
c000c8a6:	e8 2d 57 ff ff       	call   c0001fd8 <__x86.get_pc_thunk.ax>
c000c8ab:	05 55 57 00 00       	add    $0x5755,%eax
c000c8b0:	83 7d 08 01          	cmpl   $0x1,0x8(%ebp)
c000c8b4:	74 16                	je     c000c8cc <buildin_clear+0x2d>
c000c8b6:	83 ec 0c             	sub    $0xc,%esp
c000c8b9:	8d 90 93 c5 ff ff    	lea    -0x3a6d(%eax),%edx
c000c8bf:	52                   	push   %edx
c000c8c0:	89 c3                	mov    %eax,%ebx
c000c8c2:	e8 f2 99 ff ff       	call   c00062b9 <printf>
c000c8c7:	83 c4 10             	add    $0x10,%esp
c000c8ca:	eb 07                	jmp    c000c8d3 <buildin_clear+0x34>
c000c8cc:	89 c3                	mov    %eax,%ebx
c000c8ce:	e8 35 95 ff ff       	call   c0005e08 <clear>
c000c8d3:	8b 5d fc             	mov    -0x4(%ebp),%ebx
c000c8d6:	c9                   	leave  
c000c8d7:	c3                   	ret    

c000c8d8 <buildin_mkdir>:
c000c8d8:	55                   	push   %ebp
c000c8d9:	89 e5                	mov    %esp,%ebp
c000c8db:	53                   	push   %ebx
c000c8dc:	83 ec 14             	sub    $0x14,%esp
c000c8df:	e8 11 51 ff ff       	call   c00019f5 <__x86.get_pc_thunk.bx>
c000c8e4:	81 c3 1c 57 00 00    	add    $0x571c,%ebx
c000c8ea:	c7 45 f4 ff ff ff ff 	movl   $0xffffffff,-0xc(%ebp)
c000c8f1:	83 7d 08 02          	cmpl   $0x2,0x8(%ebp)
c000c8f5:	74 14                	je     c000c90b <buildin_mkdir+0x33>
c000c8f7:	83 ec 0c             	sub    $0xc,%esp
c000c8fa:	8d 83 b0 c5 ff ff    	lea    -0x3a50(%ebx),%eax
c000c900:	50                   	push   %eax
c000c901:	e8 b3 99 ff ff       	call   c00062b9 <printf>
c000c906:	83 c4 10             	add    $0x10,%esp
c000c909:	eb 72                	jmp    c000c97d <buildin_mkdir+0xa5>
c000c90b:	8b 45 0c             	mov    0xc(%ebp),%eax
c000c90e:	83 c0 04             	add    $0x4,%eax
c000c911:	8b 00                	mov    (%eax),%eax
c000c913:	83 ec 08             	sub    $0x8,%esp
c000c916:	c7 c2 40 28 01 c0    	mov    $0xc0012840,%edx
c000c91c:	52                   	push   %edx
c000c91d:	50                   	push   %eax
c000c91e:	e8 66 f9 ff ff       	call   c000c289 <make_clear_abs_path>
c000c923:	83 c4 10             	add    $0x10,%esp
c000c926:	83 ec 08             	sub    $0x8,%esp
c000c929:	c7 c0 40 28 01 c0    	mov    $0xc0012840,%eax
c000c92f:	50                   	push   %eax
c000c930:	8d 83 a0 c3 ff ff    	lea    -0x3c60(%ebx),%eax
c000c936:	50                   	push   %eax
c000c937:	e8 b1 65 ff ff       	call   c0002eed <strcmp>
c000c93c:	83 c4 10             	add    $0x10,%esp
c000c93f:	84 c0                	test   %al,%al
c000c941:	74 3a                	je     c000c97d <buildin_mkdir+0xa5>
c000c943:	83 ec 0c             	sub    $0xc,%esp
c000c946:	c7 c0 40 28 01 c0    	mov    $0xc0012840,%eax
c000c94c:	50                   	push   %eax
c000c94d:	e8 b8 95 ff ff       	call   c0005f0a <mkdir>
c000c952:	83 c4 10             	add    $0x10,%esp
c000c955:	85 c0                	test   %eax,%eax
c000c957:	75 09                	jne    c000c962 <buildin_mkdir+0x8a>
c000c959:	c7 45 f4 00 00 00 00 	movl   $0x0,-0xc(%ebp)
c000c960:	eb 1b                	jmp    c000c97d <buildin_mkdir+0xa5>
c000c962:	8b 45 0c             	mov    0xc(%ebp),%eax
c000c965:	83 c0 04             	add    $0x4,%eax
c000c968:	8b 00                	mov    (%eax),%eax
c000c96a:	83 ec 08             	sub    $0x8,%esp
c000c96d:	50                   	push   %eax
c000c96e:	8d 83 d4 c5 ff ff    	lea    -0x3a2c(%ebx),%eax
c000c974:	50                   	push   %eax
c000c975:	e8 3f 99 ff ff       	call   c00062b9 <printf>
c000c97a:	83 c4 10             	add    $0x10,%esp
c000c97d:	8b 45 f4             	mov    -0xc(%ebp),%eax
c000c980:	8b 5d fc             	mov    -0x4(%ebp),%ebx
c000c983:	c9                   	leave  
c000c984:	c3                   	ret    

c000c985 <buildin_rmdir>:
c000c985:	55                   	push   %ebp
c000c986:	89 e5                	mov    %esp,%ebp
c000c988:	53                   	push   %ebx
c000c989:	83 ec 14             	sub    $0x14,%esp
c000c98c:	e8 64 50 ff ff       	call   c00019f5 <__x86.get_pc_thunk.bx>
c000c991:	81 c3 6f 56 00 00    	add    $0x566f,%ebx
c000c997:	c7 45 f4 ff ff ff ff 	movl   $0xffffffff,-0xc(%ebp)
c000c99e:	83 7d 08 02          	cmpl   $0x2,0x8(%ebp)
c000c9a2:	74 14                	je     c000c9b8 <buildin_rmdir+0x33>
c000c9a4:	83 ec 0c             	sub    $0xc,%esp
c000c9a7:	8d 83 f8 c5 ff ff    	lea    -0x3a08(%ebx),%eax
c000c9ad:	50                   	push   %eax
c000c9ae:	e8 06 99 ff ff       	call   c00062b9 <printf>
c000c9b3:	83 c4 10             	add    $0x10,%esp
c000c9b6:	eb 72                	jmp    c000ca2a <buildin_rmdir+0xa5>
c000c9b8:	8b 45 0c             	mov    0xc(%ebp),%eax
c000c9bb:	83 c0 04             	add    $0x4,%eax
c000c9be:	8b 00                	mov    (%eax),%eax
c000c9c0:	83 ec 08             	sub    $0x8,%esp
c000c9c3:	c7 c2 40 28 01 c0    	mov    $0xc0012840,%edx
c000c9c9:	52                   	push   %edx
c000c9ca:	50                   	push   %eax
c000c9cb:	e8 b9 f8 ff ff       	call   c000c289 <make_clear_abs_path>
c000c9d0:	83 c4 10             	add    $0x10,%esp
c000c9d3:	83 ec 08             	sub    $0x8,%esp
c000c9d6:	c7 c0 40 28 01 c0    	mov    $0xc0012840,%eax
c000c9dc:	50                   	push   %eax
c000c9dd:	8d 83 a0 c3 ff ff    	lea    -0x3c60(%ebx),%eax
c000c9e3:	50                   	push   %eax
c000c9e4:	e8 04 65 ff ff       	call   c0002eed <strcmp>
c000c9e9:	83 c4 10             	add    $0x10,%esp
c000c9ec:	84 c0                	test   %al,%al
c000c9ee:	74 3a                	je     c000ca2a <buildin_rmdir+0xa5>
c000c9f0:	83 ec 0c             	sub    $0xc,%esp
c000c9f3:	c7 c0 40 28 01 c0    	mov    $0xc0012840,%eax
c000c9f9:	50                   	push   %eax
c000c9fa:	e8 86 95 ff ff       	call   c0005f85 <rmdir>
c000c9ff:	83 c4 10             	add    $0x10,%esp
c000ca02:	85 c0                	test   %eax,%eax
c000ca04:	75 09                	jne    c000ca0f <buildin_rmdir+0x8a>
c000ca06:	c7 45 f4 00 00 00 00 	movl   $0x0,-0xc(%ebp)
c000ca0d:	eb 1b                	jmp    c000ca2a <buildin_rmdir+0xa5>
c000ca0f:	8b 45 0c             	mov    0xc(%ebp),%eax
c000ca12:	83 c0 04             	add    $0x4,%eax
c000ca15:	8b 00                	mov    (%eax),%eax
c000ca17:	83 ec 08             	sub    $0x8,%esp
c000ca1a:	50                   	push   %eax
c000ca1b:	8d 83 19 c6 ff ff    	lea    -0x39e7(%ebx),%eax
c000ca21:	50                   	push   %eax
c000ca22:	e8 92 98 ff ff       	call   c00062b9 <printf>
c000ca27:	83 c4 10             	add    $0x10,%esp
c000ca2a:	8b 45 f4             	mov    -0xc(%ebp),%eax
c000ca2d:	8b 5d fc             	mov    -0x4(%ebp),%ebx
c000ca30:	c9                   	leave  
c000ca31:	c3                   	ret    

c000ca32 <buildin_rm>:
c000ca32:	55                   	push   %ebp
c000ca33:	89 e5                	mov    %esp,%ebp
c000ca35:	53                   	push   %ebx
c000ca36:	83 ec 14             	sub    $0x14,%esp
c000ca39:	e8 b7 4f ff ff       	call   c00019f5 <__x86.get_pc_thunk.bx>
c000ca3e:	81 c3 c2 55 00 00    	add    $0x55c2,%ebx
c000ca44:	c7 45 f4 ff ff ff ff 	movl   $0xffffffff,-0xc(%ebp)
c000ca4b:	83 7d 08 02          	cmpl   $0x2,0x8(%ebp)
c000ca4f:	74 14                	je     c000ca65 <buildin_rm+0x33>
c000ca51:	83 ec 0c             	sub    $0xc,%esp
c000ca54:	8d 83 33 c6 ff ff    	lea    -0x39cd(%ebx),%eax
c000ca5a:	50                   	push   %eax
c000ca5b:	e8 59 98 ff ff       	call   c00062b9 <printf>
c000ca60:	83 c4 10             	add    $0x10,%esp
c000ca63:	eb 72                	jmp    c000cad7 <buildin_rm+0xa5>
c000ca65:	8b 45 0c             	mov    0xc(%ebp),%eax
c000ca68:	83 c0 04             	add    $0x4,%eax
c000ca6b:	8b 00                	mov    (%eax),%eax
c000ca6d:	83 ec 08             	sub    $0x8,%esp
c000ca70:	c7 c2 40 28 01 c0    	mov    $0xc0012840,%edx
c000ca76:	52                   	push   %edx
c000ca77:	50                   	push   %eax
c000ca78:	e8 0c f8 ff ff       	call   c000c289 <make_clear_abs_path>
c000ca7d:	83 c4 10             	add    $0x10,%esp
c000ca80:	83 ec 08             	sub    $0x8,%esp
c000ca83:	c7 c0 40 28 01 c0    	mov    $0xc0012840,%eax
c000ca89:	50                   	push   %eax
c000ca8a:	8d 83 a0 c3 ff ff    	lea    -0x3c60(%ebx),%eax
c000ca90:	50                   	push   %eax
c000ca91:	e8 57 64 ff ff       	call   c0002eed <strcmp>
c000ca96:	83 c4 10             	add    $0x10,%esp
c000ca99:	84 c0                	test   %al,%al
c000ca9b:	74 3a                	je     c000cad7 <buildin_rm+0xa5>
c000ca9d:	83 ec 0c             	sub    $0xc,%esp
c000caa0:	c7 c0 40 28 01 c0    	mov    $0xc0012840,%eax
c000caa6:	50                   	push   %eax
c000caa7:	e8 35 94 ff ff       	call   c0005ee1 <unlink>
c000caac:	83 c4 10             	add    $0x10,%esp
c000caaf:	85 c0                	test   %eax,%eax
c000cab1:	75 09                	jne    c000cabc <buildin_rm+0x8a>
c000cab3:	c7 45 f4 00 00 00 00 	movl   $0x0,-0xc(%ebp)
c000caba:	eb 1b                	jmp    c000cad7 <buildin_rm+0xa5>
c000cabc:	8b 45 0c             	mov    0xc(%ebp),%eax
c000cabf:	83 c0 04             	add    $0x4,%eax
c000cac2:	8b 00                	mov    (%eax),%eax
c000cac4:	83 ec 08             	sub    $0x8,%esp
c000cac7:	50                   	push   %eax
c000cac8:	8d 83 51 c6 ff ff    	lea    -0x39af(%ebx),%eax
c000cace:	50                   	push   %eax
c000cacf:	e8 e5 97 ff ff       	call   c00062b9 <printf>
c000cad4:	83 c4 10             	add    $0x10,%esp
c000cad7:	8b 45 f4             	mov    -0xc(%ebp),%eax
c000cada:	8b 5d fc             	mov    -0x4(%ebp),%ebx
c000cadd:	c9                   	leave  
c000cade:	c3                   	ret    

c000cadf <segment_load>:
c000cadf:	55                   	push   %ebp
c000cae0:	89 e5                	mov    %esp,%ebp
c000cae2:	53                   	push   %ebx
c000cae3:	83 ec 24             	sub    $0x24,%esp
c000cae6:	e8 0a 4f ff ff       	call   c00019f5 <__x86.get_pc_thunk.bx>
c000caeb:	81 c3 15 55 00 00    	add    $0x5515,%ebx
c000caf1:	8b 45 14             	mov    0x14(%ebp),%eax
c000caf4:	25 00 f0 ff ff       	and    $0xfffff000,%eax
c000caf9:	89 45 e8             	mov    %eax,-0x18(%ebp)
c000cafc:	8b 45 14             	mov    0x14(%ebp),%eax
c000caff:	25 ff 0f 00 00       	and    $0xfff,%eax
c000cb04:	ba 00 10 00 00       	mov    $0x1000,%edx
c000cb09:	29 c2                	sub    %eax,%edx
c000cb0b:	89 d0                	mov    %edx,%eax
c000cb0d:	89 45 e4             	mov    %eax,-0x1c(%ebp)
c000cb10:	c7 45 f4 00 00 00 00 	movl   $0x0,-0xc(%ebp)
c000cb17:	8b 45 10             	mov    0x10(%ebp),%eax
c000cb1a:	3b 45 e4             	cmp    -0x1c(%ebp),%eax
c000cb1d:	76 1c                	jbe    c000cb3b <segment_load+0x5c>
c000cb1f:	8b 45 10             	mov    0x10(%ebp),%eax
c000cb22:	2b 45 e4             	sub    -0x1c(%ebp),%eax
c000cb25:	89 45 e0             	mov    %eax,-0x20(%ebp)
c000cb28:	8b 45 e0             	mov    -0x20(%ebp),%eax
c000cb2b:	05 ff 0f 00 00       	add    $0xfff,%eax
c000cb30:	c1 e8 0c             	shr    $0xc,%eax
c000cb33:	83 c0 01             	add    $0x1,%eax
c000cb36:	89 45 f4             	mov    %eax,-0xc(%ebp)
c000cb39:	eb 07                	jmp    c000cb42 <segment_load+0x63>
c000cb3b:	c7 45 f4 01 00 00 00 	movl   $0x1,-0xc(%ebp)
c000cb42:	c7 45 f0 00 00 00 00 	movl   $0x0,-0x10(%ebp)
c000cb49:	8b 45 e8             	mov    -0x18(%ebp),%eax
c000cb4c:	89 45 ec             	mov    %eax,-0x14(%ebp)
c000cb4f:	eb 60                	jmp    c000cbb1 <segment_load+0xd2>
c000cb51:	83 ec 0c             	sub    $0xc,%esp
c000cb54:	ff 75 ec             	pushl  -0x14(%ebp)
c000cb57:	e8 8a 68 ff ff       	call   c00033e6 <pde_ptr>
c000cb5c:	83 c4 10             	add    $0x10,%esp
c000cb5f:	89 45 dc             	mov    %eax,-0x24(%ebp)
c000cb62:	83 ec 0c             	sub    $0xc,%esp
c000cb65:	ff 75 ec             	pushl  -0x14(%ebp)
c000cb68:	e8 3f 68 ff ff       	call   c00033ac <pte_ptr>
c000cb6d:	83 c4 10             	add    $0x10,%esp
c000cb70:	89 45 d8             	mov    %eax,-0x28(%ebp)
c000cb73:	8b 45 dc             	mov    -0x24(%ebp),%eax
c000cb76:	8b 00                	mov    (%eax),%eax
c000cb78:	83 e0 01             	and    $0x1,%eax
c000cb7b:	85 c0                	test   %eax,%eax
c000cb7d:	74 0c                	je     c000cb8b <segment_load+0xac>
c000cb7f:	8b 45 d8             	mov    -0x28(%ebp),%eax
c000cb82:	8b 00                	mov    (%eax),%eax
c000cb84:	83 e0 01             	and    $0x1,%eax
c000cb87:	85 c0                	test   %eax,%eax
c000cb89:	75 1b                	jne    c000cba6 <segment_load+0xc7>
c000cb8b:	83 ec 08             	sub    $0x8,%esp
c000cb8e:	ff 75 ec             	pushl  -0x14(%ebp)
c000cb91:	6a 02                	push   $0x2
c000cb93:	e8 09 6b ff ff       	call   c00036a1 <get_a_page>
c000cb98:	83 c4 10             	add    $0x10,%esp
c000cb9b:	85 c0                	test   %eax,%eax
c000cb9d:	75 07                	jne    c000cba6 <segment_load+0xc7>
c000cb9f:	b8 00 00 00 00       	mov    $0x0,%eax
c000cba4:	eb 41                	jmp    c000cbe7 <segment_load+0x108>
c000cba6:	81 45 ec 00 10 00 00 	addl   $0x1000,-0x14(%ebp)
c000cbad:	83 45 f0 01          	addl   $0x1,-0x10(%ebp)
c000cbb1:	8b 45 f0             	mov    -0x10(%ebp),%eax
c000cbb4:	3b 45 f4             	cmp    -0xc(%ebp),%eax
c000cbb7:	72 98                	jb     c000cb51 <segment_load+0x72>
c000cbb9:	8b 45 0c             	mov    0xc(%ebp),%eax
c000cbbc:	83 ec 04             	sub    $0x4,%esp
c000cbbf:	6a 01                	push   $0x1
c000cbc1:	50                   	push   %eax
c000cbc2:	ff 75 08             	pushl  0x8(%ebp)
c000cbc5:	e8 c5 db ff ff       	call   c000a78f <sys_lseek>
c000cbca:	83 c4 10             	add    $0x10,%esp
c000cbcd:	8b 45 14             	mov    0x14(%ebp),%eax
c000cbd0:	83 ec 04             	sub    $0x4,%esp
c000cbd3:	ff 75 10             	pushl  0x10(%ebp)
c000cbd6:	50                   	push   %eax
c000cbd7:	ff 75 08             	pushl  0x8(%ebp)
c000cbda:	e8 a6 da ff ff       	call   c000a685 <sys_read>
c000cbdf:	83 c4 10             	add    $0x10,%esp
c000cbe2:	b8 01 00 00 00       	mov    $0x1,%eax
c000cbe7:	8b 5d fc             	mov    -0x4(%ebp),%ebx
c000cbea:	c9                   	leave  
c000cbeb:	c3                   	ret    

c000cbec <load>:
c000cbec:	55                   	push   %ebp
c000cbed:	89 e5                	mov    %esp,%ebp
c000cbef:	53                   	push   %ebx
c000cbf0:	83 ec 74             	sub    $0x74,%esp
c000cbf3:	e8 fd 4d ff ff       	call   c00019f5 <__x86.get_pc_thunk.bx>
c000cbf8:	81 c3 08 54 00 00    	add    $0x5408,%ebx
c000cbfe:	c7 45 f4 ff ff ff ff 	movl   $0xffffffff,-0xc(%ebp)
c000cc05:	83 ec 04             	sub    $0x4,%esp
c000cc08:	6a 34                	push   $0x34
c000cc0a:	6a 00                	push   $0x0
c000cc0c:	8d 45 b0             	lea    -0x50(%ebp),%eax
c000cc0f:	50                   	push   %eax
c000cc10:	e8 80 61 ff ff       	call   c0002d95 <memset>
c000cc15:	83 c4 10             	add    $0x10,%esp
c000cc18:	83 ec 08             	sub    $0x8,%esp
c000cc1b:	6a 00                	push   $0x0
c000cc1d:	ff 75 08             	pushl  0x8(%ebp)
c000cc20:	e8 9b d4 ff ff       	call   c000a0c0 <sys_open>
c000cc25:	83 c4 10             	add    $0x10,%esp
c000cc28:	89 45 e8             	mov    %eax,-0x18(%ebp)
c000cc2b:	83 7d e8 ff          	cmpl   $0xffffffff,-0x18(%ebp)
c000cc2f:	75 1c                	jne    c000cc4d <load+0x61>
c000cc31:	83 ec 0c             	sub    $0xc,%esp
c000cc34:	8d 83 68 c6 ff ff    	lea    -0x3998(%ebx),%eax
c000cc3a:	50                   	push   %eax
c000cc3b:	e8 31 97 ff ff       	call   c0006371 <printk>
c000cc40:	83 c4 10             	add    $0x10,%esp
c000cc43:	b8 ff ff ff ff       	mov    $0xffffffff,%eax
c000cc48:	e9 9e 01 00 00       	jmp    c000cdeb <load+0x1ff>
c000cc4d:	83 ec 04             	sub    $0x4,%esp
c000cc50:	6a 34                	push   $0x34
c000cc52:	8d 45 b0             	lea    -0x50(%ebp),%eax
c000cc55:	50                   	push   %eax
c000cc56:	ff 75 e8             	pushl  -0x18(%ebp)
c000cc59:	e8 27 da ff ff       	call   c000a685 <sys_read>
c000cc5e:	83 c4 10             	add    $0x10,%esp
c000cc61:	83 f8 34             	cmp    $0x34,%eax
c000cc64:	74 20                	je     c000cc86 <load+0x9a>
c000cc66:	83 ec 08             	sub    $0x8,%esp
c000cc69:	6a 34                	push   $0x34
c000cc6b:	8d 83 72 c6 ff ff    	lea    -0x398e(%ebx),%eax
c000cc71:	50                   	push   %eax
c000cc72:	e8 fa 96 ff ff       	call   c0006371 <printk>
c000cc77:	83 c4 10             	add    $0x10,%esp
c000cc7a:	c7 45 f4 ff ff ff ff 	movl   $0xffffffff,-0xc(%ebp)
c000cc81:	e9 42 01 00 00       	jmp    c000cdc8 <load+0x1dc>
c000cc86:	83 ec 04             	sub    $0x4,%esp
c000cc89:	6a 07                	push   $0x7
c000cc8b:	8d 83 81 c6 ff ff    	lea    -0x397f(%ebx),%eax
c000cc91:	50                   	push   %eax
c000cc92:	8d 45 b0             	lea    -0x50(%ebp),%eax
c000cc95:	50                   	push   %eax
c000cc96:	e8 7a 61 ff ff       	call   c0002e15 <memcmp>
c000cc9b:	83 c4 10             	add    $0x10,%esp
c000cc9e:	85 c0                	test   %eax,%eax
c000cca0:	75 30                	jne    c000ccd2 <load+0xe6>
c000cca2:	0f b7 45 c0          	movzwl -0x40(%ebp),%eax
c000cca6:	66 83 f8 02          	cmp    $0x2,%ax
c000ccaa:	75 26                	jne    c000ccd2 <load+0xe6>
c000ccac:	0f b7 45 c2          	movzwl -0x3e(%ebp),%eax
c000ccb0:	66 83 f8 03          	cmp    $0x3,%ax
c000ccb4:	75 1c                	jne    c000ccd2 <load+0xe6>
c000ccb6:	8b 45 c4             	mov    -0x3c(%ebp),%eax
c000ccb9:	83 f8 01             	cmp    $0x1,%eax
c000ccbc:	75 14                	jne    c000ccd2 <load+0xe6>
c000ccbe:	0f b7 45 dc          	movzwl -0x24(%ebp),%eax
c000ccc2:	66 3d 00 04          	cmp    $0x400,%ax
c000ccc6:	77 0a                	ja     c000ccd2 <load+0xe6>
c000ccc8:	0f b7 45 da          	movzwl -0x26(%ebp),%eax
c000cccc:	66 83 f8 20          	cmp    $0x20,%ax
c000ccd0:	74 1e                	je     c000ccf0 <load+0x104>
c000ccd2:	83 ec 0c             	sub    $0xc,%esp
c000ccd5:	8d 83 89 c6 ff ff    	lea    -0x3977(%ebx),%eax
c000ccdb:	50                   	push   %eax
c000ccdc:	e8 90 96 ff ff       	call   c0006371 <printk>
c000cce1:	83 c4 10             	add    $0x10,%esp
c000cce4:	c7 45 f4 ff ff ff ff 	movl   $0xffffffff,-0xc(%ebp)
c000cceb:	e9 d8 00 00 00       	jmp    c000cdc8 <load+0x1dc>
c000ccf0:	8b 45 cc             	mov    -0x34(%ebp),%eax
c000ccf3:	89 45 f0             	mov    %eax,-0x10(%ebp)
c000ccf6:	0f b7 45 da          	movzwl -0x26(%ebp),%eax
c000ccfa:	66 89 45 e6          	mov    %ax,-0x1a(%ebp)
c000ccfe:	c7 45 ec 00 00 00 00 	movl   $0x0,-0x14(%ebp)
c000cd05:	0f b7 45 dc          	movzwl -0x24(%ebp),%eax
c000cd09:	0f b7 c0             	movzwl %ax,%eax
c000cd0c:	83 ec 08             	sub    $0x8,%esp
c000cd0f:	50                   	push   %eax
c000cd10:	8d 83 94 c6 ff ff    	lea    -0x396c(%ebx),%eax
c000cd16:	50                   	push   %eax
c000cd17:	e8 9d 95 ff ff       	call   c00062b9 <printf>
c000cd1c:	83 c4 10             	add    $0x10,%esp
c000cd1f:	e9 8e 00 00 00       	jmp    c000cdb2 <load+0x1c6>
c000cd24:	0f b7 45 e6          	movzwl -0x1a(%ebp),%eax
c000cd28:	83 ec 04             	sub    $0x4,%esp
c000cd2b:	50                   	push   %eax
c000cd2c:	6a 00                	push   $0x0
c000cd2e:	8d 45 90             	lea    -0x70(%ebp),%eax
c000cd31:	50                   	push   %eax
c000cd32:	e8 5e 60 ff ff       	call   c0002d95 <memset>
c000cd37:	83 c4 10             	add    $0x10,%esp
c000cd3a:	8b 45 f0             	mov    -0x10(%ebp),%eax
c000cd3d:	83 ec 04             	sub    $0x4,%esp
c000cd40:	6a 01                	push   $0x1
c000cd42:	50                   	push   %eax
c000cd43:	ff 75 e8             	pushl  -0x18(%ebp)
c000cd46:	e8 44 da ff ff       	call   c000a78f <sys_lseek>
c000cd4b:	83 c4 10             	add    $0x10,%esp
c000cd4e:	0f b7 45 e6          	movzwl -0x1a(%ebp),%eax
c000cd52:	83 ec 04             	sub    $0x4,%esp
c000cd55:	50                   	push   %eax
c000cd56:	8d 45 90             	lea    -0x70(%ebp),%eax
c000cd59:	50                   	push   %eax
c000cd5a:	ff 75 e8             	pushl  -0x18(%ebp)
c000cd5d:	e8 23 d9 ff ff       	call   c000a685 <sys_read>
c000cd62:	83 c4 10             	add    $0x10,%esp
c000cd65:	89 c2                	mov    %eax,%edx
c000cd67:	0f b7 45 e6          	movzwl -0x1a(%ebp),%eax
c000cd6b:	39 c2                	cmp    %eax,%edx
c000cd6d:	74 09                	je     c000cd78 <load+0x18c>
c000cd6f:	c7 45 f4 ff ff ff ff 	movl   $0xffffffff,-0xc(%ebp)
c000cd76:	eb 50                	jmp    c000cdc8 <load+0x1dc>
c000cd78:	8b 45 90             	mov    -0x70(%ebp),%eax
c000cd7b:	83 f8 01             	cmp    $0x1,%eax
c000cd7e:	75 24                	jne    c000cda4 <load+0x1b8>
c000cd80:	8b 4d 98             	mov    -0x68(%ebp),%ecx
c000cd83:	8b 55 a0             	mov    -0x60(%ebp),%edx
c000cd86:	8b 45 94             	mov    -0x6c(%ebp),%eax
c000cd89:	51                   	push   %ecx
c000cd8a:	52                   	push   %edx
c000cd8b:	50                   	push   %eax
c000cd8c:	ff 75 e8             	pushl  -0x18(%ebp)
c000cd8f:	e8 4b fd ff ff       	call   c000cadf <segment_load>
c000cd94:	83 c4 10             	add    $0x10,%esp
c000cd97:	85 c0                	test   %eax,%eax
c000cd99:	75 09                	jne    c000cda4 <load+0x1b8>
c000cd9b:	c7 45 f4 ff ff ff ff 	movl   $0xffffffff,-0xc(%ebp)
c000cda2:	eb 24                	jmp    c000cdc8 <load+0x1dc>
c000cda4:	0f b7 45 da          	movzwl -0x26(%ebp),%eax
c000cda8:	0f b7 c0             	movzwl %ax,%eax
c000cdab:	01 45 f0             	add    %eax,-0x10(%ebp)
c000cdae:	83 45 ec 01          	addl   $0x1,-0x14(%ebp)
c000cdb2:	0f b7 45 dc          	movzwl -0x24(%ebp),%eax
c000cdb6:	0f b7 c0             	movzwl %ax,%eax
c000cdb9:	39 45 ec             	cmp    %eax,-0x14(%ebp)
c000cdbc:	0f 82 62 ff ff ff    	jb     c000cd24 <load+0x138>
c000cdc2:	8b 45 c8             	mov    -0x38(%ebp),%eax
c000cdc5:	89 45 f4             	mov    %eax,-0xc(%ebp)
c000cdc8:	83 ec 0c             	sub    $0xc,%esp
c000cdcb:	ff 75 e8             	pushl  -0x18(%ebp)
c000cdce:	e8 6c d5 ff ff       	call   c000a33f <sys_close>
c000cdd3:	83 c4 10             	add    $0x10,%esp
c000cdd6:	83 ec 0c             	sub    $0xc,%esp
c000cdd9:	8d 83 ac c6 ff ff    	lea    -0x3954(%ebx),%eax
c000cddf:	50                   	push   %eax
c000cde0:	e8 8c 95 ff ff       	call   c0006371 <printk>
c000cde5:	83 c4 10             	add    $0x10,%esp
c000cde8:	8b 45 f4             	mov    -0xc(%ebp),%eax
c000cdeb:	8b 5d fc             	mov    -0x4(%ebp),%ebx
c000cdee:	c9                   	leave  
c000cdef:	c3                   	ret    

c000cdf0 <sys_execv>:
c000cdf0:	55                   	push   %ebp
c000cdf1:	89 e5                	mov    %esp,%ebp
c000cdf3:	53                   	push   %ebx
c000cdf4:	83 ec 14             	sub    $0x14,%esp
c000cdf7:	e8 f9 4b ff ff       	call   c00019f5 <__x86.get_pc_thunk.bx>
c000cdfc:	81 c3 04 52 00 00    	add    $0x5204,%ebx
c000ce02:	c7 45 f4 00 00 00 00 	movl   $0x0,-0xc(%ebp)
c000ce09:	eb 04                	jmp    c000ce0f <sys_execv+0x1f>
c000ce0b:	83 45 f4 01          	addl   $0x1,-0xc(%ebp)
c000ce0f:	8b 45 f4             	mov    -0xc(%ebp),%eax
c000ce12:	8d 14 85 00 00 00 00 	lea    0x0(,%eax,4),%edx
c000ce19:	8b 45 0c             	mov    0xc(%ebp),%eax
c000ce1c:	01 d0                	add    %edx,%eax
c000ce1e:	8b 00                	mov    (%eax),%eax
c000ce20:	85 c0                	test   %eax,%eax
c000ce22:	75 e7                	jne    c000ce0b <sys_execv+0x1b>
c000ce24:	83 ec 0c             	sub    $0xc,%esp
c000ce27:	ff 75 08             	pushl  0x8(%ebp)
c000ce2a:	e8 bd fd ff ff       	call   c000cbec <load>
c000ce2f:	83 c4 10             	add    $0x10,%esp
c000ce32:	89 45 f0             	mov    %eax,-0x10(%ebp)
c000ce35:	83 ec 08             	sub    $0x8,%esp
c000ce38:	ff 75 08             	pushl  0x8(%ebp)
c000ce3b:	8d 83 b7 c6 ff ff    	lea    -0x3949(%ebx),%eax
c000ce41:	50                   	push   %eax
c000ce42:	e8 2a 95 ff ff       	call   c0006371 <printk>
c000ce47:	83 c4 10             	add    $0x10,%esp
c000ce4a:	83 ec 08             	sub    $0x8,%esp
c000ce4d:	ff 75 f0             	pushl  -0x10(%ebp)
c000ce50:	8d 83 c0 c6 ff ff    	lea    -0x3940(%ebx),%eax
c000ce56:	50                   	push   %eax
c000ce57:	e8 15 95 ff ff       	call   c0006371 <printk>
c000ce5c:	83 c4 10             	add    $0x10,%esp
c000ce5f:	83 7d f0 ff          	cmpl   $0xffffffff,-0x10(%ebp)
c000ce63:	75 1c                	jne    c000ce81 <sys_execv+0x91>
c000ce65:	83 ec 0c             	sub    $0xc,%esp
c000ce68:	8d 83 c5 c6 ff ff    	lea    -0x393b(%ebx),%eax
c000ce6e:	50                   	push   %eax
c000ce6f:	e8 fd 94 ff ff       	call   c0006371 <printk>
c000ce74:	83 c4 10             	add    $0x10,%esp
c000ce77:	b8 ff ff ff ff       	mov    $0xffffffff,%eax
c000ce7c:	e9 9e 00 00 00       	jmp    c000cf1f <sys_execv+0x12f>
c000ce81:	e8 ed 74 ff ff       	call   c0004373 <running_thread>
c000ce86:	89 45 ec             	mov    %eax,-0x14(%ebp)
c000ce89:	8b 45 ec             	mov    -0x14(%ebp),%eax
c000ce8c:	0f b7 40 04          	movzwl 0x4(%eax),%eax
c000ce90:	98                   	cwtl   
c000ce91:	83 ec 08             	sub    $0x8,%esp
c000ce94:	50                   	push   %eax
c000ce95:	8d 83 ca c6 ff ff    	lea    -0x3936(%ebx),%eax
c000ce9b:	50                   	push   %eax
c000ce9c:	e8 18 94 ff ff       	call   c00062b9 <printf>
c000cea1:	83 c4 10             	add    $0x10,%esp
c000cea4:	8b 45 ec             	mov    -0x14(%ebp),%eax
c000cea7:	83 c0 0d             	add    $0xd,%eax
c000ceaa:	83 ec 04             	sub    $0x4,%esp
c000cead:	6a 10                	push   $0x10
c000ceaf:	ff 75 08             	pushl  0x8(%ebp)
c000ceb2:	50                   	push   %eax
c000ceb3:	e8 18 5f ff ff       	call   c0002dd0 <memcpy>
c000ceb8:	83 c4 10             	add    $0x10,%esp
c000cebb:	8b 45 ec             	mov    -0x14(%ebp),%eax
c000cebe:	05 b4 0f 00 00       	add    $0xfb4,%eax
c000cec3:	89 45 e8             	mov    %eax,-0x18(%ebp)
c000cec6:	83 ec 0c             	sub    $0xc,%esp
c000cec9:	8d 83 d4 c6 ff ff    	lea    -0x392c(%ebx),%eax
c000cecf:	50                   	push   %eax
c000ced0:	e8 9c 94 ff ff       	call   c0006371 <printk>
c000ced5:	83 c4 10             	add    $0x10,%esp
c000ced8:	8b 55 0c             	mov    0xc(%ebp),%edx
c000cedb:	8b 45 e8             	mov    -0x18(%ebp),%eax
c000cede:	89 50 14             	mov    %edx,0x14(%eax)
c000cee1:	8b 45 e8             	mov    -0x18(%ebp),%eax
c000cee4:	8b 55 f4             	mov    -0xc(%ebp),%edx
c000cee7:	89 50 1c             	mov    %edx,0x1c(%eax)
c000ceea:	8b 55 f0             	mov    -0x10(%ebp),%edx
c000ceed:	8b 45 e8             	mov    -0x18(%ebp),%eax
c000cef0:	89 50 38             	mov    %edx,0x38(%eax)
c000cef3:	8b 45 e8             	mov    -0x18(%ebp),%eax
c000cef6:	c7 40 44 00 00 00 c0 	movl   $0xc0000000,0x44(%eax)
c000cefd:	83 ec 08             	sub    $0x8,%esp
c000cf00:	ff 75 e8             	pushl  -0x18(%ebp)
c000cf03:	8d 83 db c6 ff ff    	lea    -0x3925(%ebx),%eax
c000cf09:	50                   	push   %eax
c000cf0a:	e8 62 94 ff ff       	call   c0006371 <printk>
c000cf0f:	83 c4 10             	add    $0x10,%esp
c000cf12:	8b 65 e8             	mov    -0x18(%ebp),%esp
c000cf15:	e9 c6 52 ff ff       	jmp    c00021e0 <intr_exit>
c000cf1a:	b8 00 00 00 00       	mov    $0x0,%eax
c000cf1f:	8b 5d fc             	mov    -0x4(%ebp),%ebx
c000cf22:	c9                   	leave  
c000cf23:	c3                   	ret    
